---
triple:          'arm64-apple-darwin'
binary-path:     game
relocations:
  - { offsetInCU: 0x2CF93, offset: 0x2CF93, size: 0x8, addend: 0x0, symName: __ZNSt3__112__to_addressB8ue170006IN2sf6SpriteEEEPT_S4_, symObjAddr: 0x608, symBinAddr: 0x100002100, symSize: 0x14 }
  - { offsetInCU: 0x2CFC8, offset: 0x2CFC8, size: 0x8, addend: 0x0, symName: __ZNSt3__119__libcpp_deallocateB8ue170006EPvmm, symObjAddr: 0x700, symBinAddr: 0x1000021F8, symSize: 0x60 }
  - { offsetInCU: 0x2D02D, offset: 0x2D02D, size: 0x8, addend: 0x0, symName: __ZNSt3__124__is_overaligned_for_newB8ue170006Em, symObjAddr: 0x760, symBinAddr: 0x100002258, symSize: 0x20 }
  - { offsetInCU: 0x2D05B, offset: 0x2D05B, size: 0x8, addend: 0x0, symName: __ZNSt3__127__do_deallocate_handle_sizeB8ue170006IJSt11align_val_tEEEvPvmDpT_, symObjAddr: 0x780, symBinAddr: 0x100002278, symSize: 0x30 }
  - { offsetInCU: 0x2D0AE, offset: 0x2D0AE, size: 0x8, addend: 0x0, symName: __ZNSt3__127__do_deallocate_handle_sizeB8ue170006IJEEEvPvmDpT_, symObjAddr: 0x7B0, symBinAddr: 0x1000022A8, symSize: 0x28 }
  - { offsetInCU: 0x2D0EC, offset: 0x2D0EC, size: 0x8, addend: 0x0, symName: __ZNSt3__124__libcpp_operator_deleteB8ue170006IJPvSt11align_val_tEEEvDpT_, symObjAddr: 0x7D8, symBinAddr: 0x1000022D0, symSize: 0x2C }
  - { offsetInCU: 0x2D135, offset: 0x2D135, size: 0x8, addend: 0x0, symName: __ZNSt3__124__libcpp_operator_deleteB8ue170006IJPvEEEvDpT_, symObjAddr: 0x804, symBinAddr: 0x1000022FC, symSize: 0x24 }
  - { offsetInCU: 0x2D22A, offset: 0x2D22A, size: 0x8, addend: 0x0, symName: __ZNSt3__112__to_addressB8ue170006IN3tmx7Tileset4TileEEEPT_S5_, symObjAddr: 0x1214, symBinAddr: 0x100002D0C, symSize: 0x14 }
  - { offsetInCU: 0x2D25F, offset: 0x2D25F, size: 0x8, addend: 0x0, symName: __ZNSt3__112__to_addressB8ue170006IN3tmx6ObjectEEEPT_S4_, symObjAddr: 0x1774, symBinAddr: 0x10000326C, symSize: 0x14 }
  - { offsetInCU: 0x2D294, offset: 0x2D294, size: 0x8, addend: 0x0, symName: __ZNSt3__112__to_addressB8ue170006IN3tmx7Vector2IfEEEEPT_S5_, symObjAddr: 0x1C34, symBinAddr: 0x10000372C, symSize: 0x14 }
  - { offsetInCU: 0x2D2C9, offset: 0x2D2C9, size: 0x8, addend: 0x0, symName: __ZNSt3__112__to_addressB8ue170006IN3tmx7Tileset4Tile9Animation5FrameEEEPT_S7_, symObjAddr: 0x22C4, symBinAddr: 0x100003DBC, symSize: 0x14 }
  - { offsetInCU: 0x2D2FE, offset: 0x2D2FE, size: 0x8, addend: 0x0, symName: __ZNSt3__112__to_addressB8ue170006IjEEPT_S2_, symObjAddr: 0x28DC, symBinAddr: 0x1000043D4, symSize: 0x14 }
  - { offsetInCU: 0x2D333, offset: 0x2D333, size: 0x8, addend: 0x0, symName: __ZNSt3__112__to_addressB8ue170006IN3tmx7Tileset7TerrainEEEPT_S5_, symObjAddr: 0x2DC4, symBinAddr: 0x1000048BC, symSize: 0x14 }
  - { offsetInCU: 0x2D368, offset: 0x2D368, size: 0x8, addend: 0x0, symName: __ZNSt3__17launderB8ue170006INS_4pairIKNS_12basic_stringIcNS_11char_traitsIcEENS_9allocatorIcEEEEN3tmx7TilesetEEEEEPT_SD_, symObjAddr: 0x2FD4, symBinAddr: 0x100004ACC, symSize: 0x24 }
  - { offsetInCU: 0x2D39F, offset: 0x2D39F, size: 0x8, addend: 0x0, symName: __ZNSt3__19__launderB8ue170006INS_4pairIKNS_12basic_stringIcNS_11char_traitsIcEENS_9allocatorIcEEEEN3tmx7TilesetEEEEEPT_SD_, symObjAddr: 0x2FF8, symBinAddr: 0x100004AF0, symSize: 0x14 }
  - { offsetInCU: 0x2D496, offset: 0x2D496, size: 0x8, addend: 0x0, symName: __ZNSt3__17launderB8ue170006INS_4pairIKNS_12basic_stringIcNS_11char_traitsIcEENS_9allocatorIcEEEEN3tmx6ObjectEEEEEPT_SD_, symObjAddr: 0x3630, symBinAddr: 0x100005128, symSize: 0x24 }
  - { offsetInCU: 0x2D4CD, offset: 0x2D4CD, size: 0x8, addend: 0x0, symName: __ZNSt3__19__launderB8ue170006INS_4pairIKNS_12basic_stringIcNS_11char_traitsIcEENS_9allocatorIcEEEEN3tmx6ObjectEEEEEPT_SD_, symObjAddr: 0x3654, symBinAddr: 0x10000514C, symSize: 0x14 }
  - { offsetInCU: 0x2D591, offset: 0x2D591, size: 0x8, addend: 0x0, symName: __ZNSt3__17launderB8ue170006INS_4pairIKjN3tmx7Tileset4TileEEEEEPT_S8_, symObjAddr: 0x3C04, symBinAddr: 0x1000056FC, symSize: 0x24 }
  - { offsetInCU: 0x2D5C8, offset: 0x2D5C8, size: 0x8, addend: 0x0, symName: __ZNSt3__19__launderB8ue170006INS_4pairIKjN3tmx7Tileset4TileEEEEEPT_S8_, symObjAddr: 0x3C28, symBinAddr: 0x100005720, symSize: 0x14 }
  - { offsetInCU: 0x2D632, offset: 0x2D632, size: 0x8, addend: 0x0, symName: __ZNSt3__112__to_addressB8ue170006IN3tmx8PropertyEEEPT_S4_, symObjAddr: 0x4070, symBinAddr: 0x100005B68, symSize: 0x14 }
  - { offsetInCU: 0x2D667, offset: 0x2D667, size: 0x8, addend: 0x0, symName: __ZNSt3__112__to_addressB8ue170006INS_10unique_ptrIN3tmx5LayerENS_14default_deleteIS3_EEEEEEPT_S8_, symObjAddr: 0x45D4, symBinAddr: 0x1000060CC, symSize: 0x14 }
  - { offsetInCU: 0x2D69C, offset: 0x2D69C, size: 0x8, addend: 0x0, symName: __ZNSt3__112__to_addressB8ue170006IN3tmx7TilesetEEEPT_S4_, symObjAddr: 0x4C60, symBinAddr: 0x100006758, symSize: 0x14 }
  - { offsetInCU: 0x2D75E, offset: 0x2D75E, size: 0x8, addend: 0x0, symName: __ZNSt3__17launderB8ue170006INS_4pairIKNS_12basic_stringIcNS_11char_traitsIcEENS_9allocatorIcEEEEN2sf7TextureEEEEEPT_SD_, symObjAddr: 0x5400, symBinAddr: 0x100006EF8, symSize: 0x24 }
  - { offsetInCU: 0x2D795, offset: 0x2D795, size: 0x8, addend: 0x0, symName: __ZNSt3__19__launderB8ue170006INS_4pairIKNS_12basic_stringIcNS_11char_traitsIcEENS_9allocatorIcEEEEN2sf7TextureEEEEEPT_SD_, symObjAddr: 0x5424, symBinAddr: 0x100006F1C, symSize: 0x14 }
  - { offsetInCU: 0x2D7CC, offset: 0x2D7CC, size: 0x8, addend: 0x0, symName: __ZNSt3__112__to_addressB8ue170006I8PlatformEEPT_S3_, symObjAddr: 0x5A00, symBinAddr: 0x1000074F8, symSize: 0x14 }
  - { offsetInCU: 0x2D801, offset: 0x2D801, size: 0x8, addend: 0x0, symName: __ZNSt3__112__to_addressB8ue170006IN2sf6VertexEEEPT_S4_, symObjAddr: 0x5FB0, symBinAddr: 0x100007AA8, symSize: 0x14 }
  - { offsetInCU: 0x34DDB, offset: 0x34DDB, size: 0x8, addend: 0x0, symName: _main, symObjAddr: 0x0, symBinAddr: 0x100001AF8, symSize: 0x6C }
  - { offsetInCU: 0x3521F, offset: 0x3521F, size: 0x8, addend: 0x0, symName: __ZN4GameD1Ev, symObjAddr: 0x6C, symBinAddr: 0x100001B64, symSize: 0x2C }
  - { offsetInCU: 0x3524B, offset: 0x3524B, size: 0x8, addend: 0x0, symName: __ZN4GameD2Ev, symObjAddr: 0x98, symBinAddr: 0x100001B90, symSize: 0x8C }
  - { offsetInCU: 0x35277, offset: 0x35277, size: 0x8, addend: 0x0, symName: __ZNSt3__16vectorIN2sf6SpriteENS_9allocatorIS2_EEED1B8ue170006Ev, symObjAddr: 0x124, symBinAddr: 0x100001C1C, symSize: 0x2C }
  - { offsetInCU: 0x352A1, offset: 0x352A1, size: 0x8, addend: 0x0, symName: __ZN3tmx3MapD1Ev, symObjAddr: 0x150, symBinAddr: 0x100001C48, symSize: 0x2C }
  - { offsetInCU: 0x352CB, offset: 0x352CB, size: 0x8, addend: 0x0, symName: __ZNSt3__110unique_ptrIN2sf6SpriteENS_14default_deleteIS2_EEED1B8ue170006Ev, symObjAddr: 0x17C, symBinAddr: 0x100001C74, symSize: 0x2C }
  - { offsetInCU: 0x352F5, offset: 0x352F5, size: 0x8, addend: 0x0, symName: __ZNSt3__110unique_ptrI6AssetsNS_14default_deleteIS1_EEED1B8ue170006Ev, symObjAddr: 0x1A8, symBinAddr: 0x100001CA0, symSize: 0x2C }
  - { offsetInCU: 0x3531F, offset: 0x3531F, size: 0x8, addend: 0x0, symName: __ZNSt3__110unique_ptrI5LevelNS_14default_deleteIS1_EEED1B8ue170006Ev, symObjAddr: 0x1D4, symBinAddr: 0x100001CCC, symSize: 0x2C }
  - { offsetInCU: 0x35349, offset: 0x35349, size: 0x8, addend: 0x0, symName: __ZNSt3__16vectorI8PlatformNS_9allocatorIS1_EEED1B8ue170006Ev, symObjAddr: 0x200, symBinAddr: 0x100001CF8, symSize: 0x2C }
  - { offsetInCU: 0x35373, offset: 0x35373, size: 0x8, addend: 0x0, symName: __ZNSt3__110unique_ptrI6PlayerNS_14default_deleteIS1_EEED1B8ue170006Ev, symObjAddr: 0x22C, symBinAddr: 0x100001D24, symSize: 0x2C }
  - { offsetInCU: 0x3539D, offset: 0x3539D, size: 0x8, addend: 0x0, symName: __ZN2sf12RenderWindowD1Ev, symObjAddr: 0x258, symBinAddr: 0x100001D50, symSize: 0x2C }
  - { offsetInCU: 0x353C9, offset: 0x353C9, size: 0x8, addend: 0x0, symName: __ZNSt3__16vectorIN2sf6SpriteENS_9allocatorIS2_EEED2B8ue170006Ev, symObjAddr: 0x284, symBinAddr: 0x100001D7C, symSize: 0x44 }
  - { offsetInCU: 0x353F3, offset: 0x353F3, size: 0x8, addend: 0x0, symName: __ZNSt3__16vectorIN2sf6SpriteENS_9allocatorIS2_EEE16__destroy_vectorC1B8ue170006ERS5_, symObjAddr: 0x2C8, symBinAddr: 0x100001DC0, symSize: 0x34 }
  - { offsetInCU: 0x3542C, offset: 0x3542C, size: 0x8, addend: 0x0, symName: __ZNSt3__16vectorIN2sf6SpriteENS_9allocatorIS2_EEE16__destroy_vectorclB8ue170006Ev, symObjAddr: 0x308, symBinAddr: 0x100001E00, symSize: 0x90 }
  - { offsetInCU: 0x35452, offset: 0x35452, size: 0x8, addend: 0x0, symName: __ZNSt3__16vectorIN2sf6SpriteENS_9allocatorIS2_EEE16__destroy_vectorC2B8ue170006ERS5_, symObjAddr: 0x398, symBinAddr: 0x100001E90, symSize: 0x20 }
  - { offsetInCU: 0x3548B, offset: 0x3548B, size: 0x8, addend: 0x0, symName: __ZNSt3__16vectorIN2sf6SpriteENS_9allocatorIS2_EEE7__clearB8ue170006Ev, symObjAddr: 0x3B8, symBinAddr: 0x100001EB0, symSize: 0x28 }
  - { offsetInCU: 0x354B1, offset: 0x354B1, size: 0x8, addend: 0x0, symName: __ZNKSt3__16vectorIN2sf6SpriteENS_9allocatorIS2_EEE17__annotate_deleteB8ue170006Ev, symObjAddr: 0x3E0, symBinAddr: 0x100001ED8, symSize: 0xD4 }
  - { offsetInCU: 0x354D7, offset: 0x354D7, size: 0x8, addend: 0x0, symName: __ZNSt3__116allocator_traitsINS_9allocatorIN2sf6SpriteEEEE10deallocateB8ue170006ERS4_PS3_m, symObjAddr: 0x4B4, symBinAddr: 0x100001FAC, symSize: 0x34 }
  - { offsetInCU: 0x35519, offset: 0x35519, size: 0x8, addend: 0x0, symName: __ZNSt3__16vectorIN2sf6SpriteENS_9allocatorIS2_EEE7__allocB8ue170006Ev, symObjAddr: 0x4E8, symBinAddr: 0x100001FE0, symSize: 0x28 }
  - { offsetInCU: 0x3553F, offset: 0x3553F, size: 0x8, addend: 0x0, symName: __ZNKSt3__16vectorIN2sf6SpriteENS_9allocatorIS2_EEE8capacityB8ue170006Ev, symObjAddr: 0x510, symBinAddr: 0x100002008, symSize: 0x40 }
  - { offsetInCU: 0x35565, offset: 0x35565, size: 0x8, addend: 0x0, symName: __ZNSt3__16vectorIN2sf6SpriteENS_9allocatorIS2_EEE22__base_destruct_at_endB8ue170006EPS2_, symObjAddr: 0x550, symBinAddr: 0x100002048, symSize: 0x8C }
  - { offsetInCU: 0x355A9, offset: 0x355A9, size: 0x8, addend: 0x0, symName: __ZNSt3__116allocator_traitsINS_9allocatorIN2sf6SpriteEEEE7destroyB8ue170006IS3_vEEvRS4_PT_, symObjAddr: 0x5DC, symBinAddr: 0x1000020D4, symSize: 0x2C }
  - { offsetInCU: 0x355E6, offset: 0x355E6, size: 0x8, addend: 0x0, symName: __ZNSt3__19allocatorIN2sf6SpriteEE7destroyB8ue170006EPS2_, symObjAddr: 0x61C, symBinAddr: 0x100002114, symSize: 0x30 }
  - { offsetInCU: 0x3561A, offset: 0x3561A, size: 0x8, addend: 0x0, symName: __ZNKSt3__16vectorIN2sf6SpriteENS_9allocatorIS2_EEE31__annotate_contiguous_containerB8ue170006EPKvS7_S7_S7_, symObjAddr: 0x64C, symBinAddr: 0x100002144, symSize: 0x20 }
  - { offsetInCU: 0x35670, offset: 0x35670, size: 0x8, addend: 0x0, symName: __ZNKSt3__16vectorIN2sf6SpriteENS_9allocatorIS2_EEE4dataB8ue170006Ev, symObjAddr: 0x66C, symBinAddr: 0x100002164, symSize: 0x28 }
  - { offsetInCU: 0x35696, offset: 0x35696, size: 0x8, addend: 0x0, symName: __ZNKSt3__16vectorIN2sf6SpriteENS_9allocatorIS2_EEE4sizeB8ue170006Ev, symObjAddr: 0x694, symBinAddr: 0x10000218C, symSize: 0x28 }
  - { offsetInCU: 0x356BC, offset: 0x356BC, size: 0x8, addend: 0x0, symName: __ZNSt3__19allocatorIN2sf6SpriteEE10deallocateB8ue170006EPS2_m, symObjAddr: 0x6BC, symBinAddr: 0x1000021B4, symSize: 0x44 }
  - { offsetInCU: 0x356FE, offset: 0x356FE, size: 0x8, addend: 0x0, symName: __ZNSt3__117__compressed_pairIPN2sf6SpriteENS_9allocatorIS2_EEE6secondB8ue170006Ev, symObjAddr: 0x828, symBinAddr: 0x100002320, symSize: 0x24 }
  - { offsetInCU: 0x35724, offset: 0x35724, size: 0x8, addend: 0x0, symName: __ZNSt3__122__compressed_pair_elemINS_9allocatorIN2sf6SpriteEEELi1ELb1EE5__getB8ue170006Ev, symObjAddr: 0x84C, symBinAddr: 0x100002344, symSize: 0x14 }
  - { offsetInCU: 0x3574A, offset: 0x3574A, size: 0x8, addend: 0x0, symName: __ZNKSt3__16vectorIN2sf6SpriteENS_9allocatorIS2_EEE9__end_capB8ue170006Ev, symObjAddr: 0x860, symBinAddr: 0x100002358, symSize: 0x28 }
  - { offsetInCU: 0x35770, offset: 0x35770, size: 0x8, addend: 0x0, symName: __ZNKSt3__117__compressed_pairIPN2sf6SpriteENS_9allocatorIS2_EEE5firstB8ue170006Ev, symObjAddr: 0x888, symBinAddr: 0x100002380, symSize: 0x24 }
  - { offsetInCU: 0x35796, offset: 0x35796, size: 0x8, addend: 0x0, symName: __ZNKSt3__122__compressed_pair_elemIPN2sf6SpriteELi0ELb0EE5__getB8ue170006Ev, symObjAddr: 0x8AC, symBinAddr: 0x1000023A4, symSize: 0x14 }
  - { offsetInCU: 0x357BC, offset: 0x357BC, size: 0x8, addend: 0x0, symName: __ZN3tmx3MapD2Ev, symObjAddr: 0x8C0, symBinAddr: 0x1000023B8, symSize: 0x84 }
  - { offsetInCU: 0x357E6, offset: 0x357E6, size: 0x8, addend: 0x0, symName: __ZNSt3__113unordered_mapINS_12basic_stringIcNS_11char_traitsIcEENS_9allocatorIcEEEEN3tmx7TilesetENS_4hashIS6_EENS_8equal_toIS6_EENS4_INS_4pairIKS6_S8_EEEEED1B8ue170006Ev, symObjAddr: 0x944, symBinAddr: 0x10000243C, symSize: 0x2C }
  - { offsetInCU: 0x35810, offset: 0x35810, size: 0x8, addend: 0x0, symName: __ZNSt3__113unordered_mapINS_12basic_stringIcNS_11char_traitsIcEENS_9allocatorIcEEEEN3tmx6ObjectENS_4hashIS6_EENS_8equal_toIS6_EENS4_INS_4pairIKS6_S8_EEEEED1B8ue170006Ev, symObjAddr: 0x970, symBinAddr: 0x100002468, symSize: 0x2C }
  - { offsetInCU: 0x3583A, offset: 0x3583A, size: 0x8, addend: 0x0, symName: __ZNSt3__13mapIjN3tmx7Tileset4TileENS_4lessIjEENS_9allocatorINS_4pairIKjS3_EEEEED1B8ue170006Ev, symObjAddr: 0x99C, symBinAddr: 0x100002494, symSize: 0x2C }
  - { offsetInCU: 0x35864, offset: 0x35864, size: 0x8, addend: 0x0, symName: __ZNSt3__16vectorIN3tmx8PropertyENS_9allocatorIS2_EEED1B8ue170006Ev, symObjAddr: 0x9C8, symBinAddr: 0x1000024C0, symSize: 0x2C }
  - { offsetInCU: 0x3588E, offset: 0x3588E, size: 0x8, addend: 0x0, symName: __ZNSt3__16vectorINS_10unique_ptrIN3tmx5LayerENS_14default_deleteIS3_EEEENS_9allocatorIS6_EEED1B8ue170006Ev, symObjAddr: 0x9F4, symBinAddr: 0x1000024EC, symSize: 0x2C }
  - { offsetInCU: 0x358B8, offset: 0x358B8, size: 0x8, addend: 0x0, symName: __ZNSt3__16vectorIN3tmx7TilesetENS_9allocatorIS2_EEED1B8ue170006Ev, symObjAddr: 0xA20, symBinAddr: 0x100002518, symSize: 0x2C }
  - { offsetInCU: 0x358E2, offset: 0x358E2, size: 0x8, addend: 0x0, symName: __ZNSt3__113unordered_mapINS_12basic_stringIcNS_11char_traitsIcEENS_9allocatorIcEEEEN3tmx7TilesetENS_4hashIS6_EENS_8equal_toIS6_EENS4_INS_4pairIKS6_S8_EEEEED2B8ue170006Ev, symObjAddr: 0xA4C, symBinAddr: 0x100002544, symSize: 0x2C }
  - { offsetInCU: 0x3590C, offset: 0x3590C, size: 0x8, addend: 0x0, symName: __ZNSt3__112__hash_tableINS_17__hash_value_typeINS_12basic_stringIcNS_11char_traitsIcEENS_9allocatorIcEEEEN3tmx7TilesetEEENS_22__unordered_map_hasherIS7_SA_NS_4hashIS7_EENS_8equal_toIS7_EELb1EEENS_21__unordered_map_equalIS7_SA_SF_SD_Lb1EEENS5_ISA_EEED1Ev, symObjAddr: 0xA78, symBinAddr: 0x100002570, symSize: 0x2C }
  - { offsetInCU: 0x35938, offset: 0x35938, size: 0x8, addend: 0x0, symName: __ZNSt3__112__hash_tableINS_17__hash_value_typeINS_12basic_stringIcNS_11char_traitsIcEENS_9allocatorIcEEEEN3tmx7TilesetEEENS_22__unordered_map_hasherIS7_SA_NS_4hashIS7_EENS_8equal_toIS7_EELb1EEENS_21__unordered_map_equalIS7_SA_SF_SD_Lb1EEENS5_ISA_EEED2Ev, symObjAddr: 0xAA4, symBinAddr: 0x10000259C, symSize: 0x48 }
  - { offsetInCU: 0x35964, offset: 0x35964, size: 0x8, addend: 0x0, symName: __ZNSt3__112__hash_tableINS_17__hash_value_typeINS_12basic_stringIcNS_11char_traitsIcEENS_9allocatorIcEEEEN3tmx7TilesetEEENS_22__unordered_map_hasherIS7_SA_NS_4hashIS7_EENS_8equal_toIS7_EELb1EEENS_21__unordered_map_equalIS7_SA_SF_SD_Lb1EEENS5_ISA_EEE17__deallocate_nodeEPNS_16__hash_node_baseIPNS_11__hash_nodeISA_PvEEEE, symObjAddr: 0xAEC, symBinAddr: 0x1000025E4, symSize: 0xA8 }
  - { offsetInCU: 0x359CF, offset: 0x359CF, size: 0x8, addend: 0x0, symName: __ZNSt3__117__compressed_pairINS_16__hash_node_baseIPNS_11__hash_nodeINS_17__hash_value_typeINS_12basic_stringIcNS_11char_traitsIcEENS_9allocatorIcEEEEN3tmx7TilesetEEEPvEEEENS7_ISE_EEE5firstB8ue170006Ev, symObjAddr: 0xB94, symBinAddr: 0x10000268C, symSize: 0x24 }
  - { offsetInCU: 0x359F5, offset: 0x359F5, size: 0x8, addend: 0x0, symName: __ZNSt3__110unique_ptrIA_PNS_16__hash_node_baseIPNS_11__hash_nodeINS_17__hash_value_typeINS_12basic_stringIcNS_11char_traitsIcEENS_9allocatorIcEEEEN3tmx7TilesetEEEPvEEEENS_25__bucket_list_deallocatorINS7_ISH_EEEEED1B8ue170006Ev, symObjAddr: 0xBB8, symBinAddr: 0x1000026B0, symSize: 0x2C }
  - { offsetInCU: 0x35A1F, offset: 0x35A1F, size: 0x8, addend: 0x0, symName: __ZNSt3__112__hash_tableINS_17__hash_value_typeINS_12basic_stringIcNS_11char_traitsIcEENS_9allocatorIcEEEEN3tmx7TilesetEEENS_22__unordered_map_hasherIS7_SA_NS_4hashIS7_EENS_8equal_toIS7_EELb1EEENS_21__unordered_map_equalIS7_SA_SF_SD_Lb1EEENS5_ISA_EEE12__node_allocB8ue170006Ev, symObjAddr: 0xBE4, symBinAddr: 0x1000026DC, symSize: 0x28 }
  - { offsetInCU: 0x35A45, offset: 0x35A45, size: 0x8, addend: 0x0, symName: __ZNSt3__116__hash_node_baseIPNS_11__hash_nodeINS_17__hash_value_typeINS_12basic_stringIcNS_11char_traitsIcEENS_9allocatorIcEEEEN3tmx7TilesetEEEPvEEE8__upcastB8ue170006Ev, symObjAddr: 0xC0C, symBinAddr: 0x100002704, symSize: 0x24 }
  - { offsetInCU: 0x35A70, offset: 0x35A70, size: 0x8, addend: 0x0, symName: __ZNSt3__116allocator_traitsINS_9allocatorINS_11__hash_nodeINS_17__hash_value_typeINS_12basic_stringIcNS_11char_traitsIcEENS1_IcEEEEN3tmx7TilesetEEEPvEEEEE7destroyB8ue170006INS_4pairIKS8_SA_EEvvEEvRSE_PT_, symObjAddr: 0xC30, symBinAddr: 0x100002728, symSize: 0x28 }
  - { offsetInCU: 0x35AAB, offset: 0x35AAB, size: 0x8, addend: 0x0, symName: __ZNSt3__122__hash_key_value_typesINS_17__hash_value_typeINS_12basic_stringIcNS_11char_traitsIcEENS_9allocatorIcEEEEN3tmx7TilesetEEEE9__get_ptrB8ue170006ERSA_, symObjAddr: 0xC58, symBinAddr: 0x100002750, symSize: 0x24 }
  - { offsetInCU: 0x35ACE, offset: 0x35ACE, size: 0x8, addend: 0x0, symName: __ZNSt3__116allocator_traitsINS_9allocatorINS_11__hash_nodeINS_17__hash_value_typeINS_12basic_stringIcNS_11char_traitsIcEENS1_IcEEEEN3tmx7TilesetEEEPvEEEEE10deallocateB8ue170006ERSE_PSD_m, symObjAddr: 0xC7C, symBinAddr: 0x100002774, symSize: 0x34 }
  - { offsetInCU: 0x35B10, offset: 0x35B10, size: 0x8, addend: 0x0, symName: __ZNSt3__117__compressed_pairINS_16__hash_node_baseIPNS_11__hash_nodeINS_17__hash_value_typeINS_12basic_stringIcNS_11char_traitsIcEENS_9allocatorIcEEEEN3tmx7TilesetEEEPvEEEENS7_ISE_EEE6secondB8ue170006Ev, symObjAddr: 0xCB0, symBinAddr: 0x1000027A8, symSize: 0x24 }
  - { offsetInCU: 0x35B36, offset: 0x35B36, size: 0x8, addend: 0x0, symName: __ZNSt3__122__compressed_pair_elemINS_9allocatorINS_11__hash_nodeINS_17__hash_value_typeINS_12basic_stringIcNS_11char_traitsIcEENS1_IcEEEEN3tmx7TilesetEEEPvEEEELi1ELb1EE5__getB8ue170006Ev, symObjAddr: 0xCD4, symBinAddr: 0x1000027CC, symSize: 0x14 }
  - { offsetInCU: 0x35B5C, offset: 0x35B5C, size: 0x8, addend: 0x0, symName: __ZNSt3__114pointer_traitsIPNS_16__hash_node_baseIPNS_11__hash_nodeINS_17__hash_value_typeINS_12basic_stringIcNS_11char_traitsIcEENS_9allocatorIcEEEEN3tmx7TilesetEEEPvEEEEE10pointer_toB8ue170006ERSG_, symObjAddr: 0xCE8, symBinAddr: 0x1000027E0, symSize: 0x14 }
  - { offsetInCU: 0x35B7F, offset: 0x35B7F, size: 0x8, addend: 0x0, symName: __ZNSt3__14pairIKNS_12basic_stringIcNS_11char_traitsIcEENS_9allocatorIcEEEEN3tmx7TilesetEED1Ev, symObjAddr: 0xCFC, symBinAddr: 0x1000027F4, symSize: 0x2C }
  - { offsetInCU: 0x35BAB, offset: 0x35BAB, size: 0x8, addend: 0x0, symName: __ZNSt3__14pairIKNS_12basic_stringIcNS_11char_traitsIcEENS_9allocatorIcEEEEN3tmx7TilesetEED2Ev, symObjAddr: 0xD28, symBinAddr: 0x100002820, symSize: 0x38 }
  - { offsetInCU: 0x35BD7, offset: 0x35BD7, size: 0x8, addend: 0x0, symName: __ZN3tmx7TilesetD1Ev, symObjAddr: 0xD60, symBinAddr: 0x100002858, symSize: 0x2C }
  - { offsetInCU: 0x35C03, offset: 0x35C03, size: 0x8, addend: 0x0, symName: __ZN3tmx7TilesetD2Ev, symObjAddr: 0xD8C, symBinAddr: 0x100002884, symSize: 0x8C }
  - { offsetInCU: 0x35C2F, offset: 0x35C2F, size: 0x8, addend: 0x0, symName: __ZNSt3__16vectorIN3tmx7Tileset4TileENS_9allocatorIS3_EEED1B8ue170006Ev, symObjAddr: 0xE18, symBinAddr: 0x100002910, symSize: 0x2C }
  - { offsetInCU: 0x35C59, offset: 0x35C59, size: 0x8, addend: 0x0, symName: __ZNSt3__16vectorIjNS_9allocatorIjEEED1B8ue170006Ev, symObjAddr: 0xE44, symBinAddr: 0x10000293C, symSize: 0x2C }
  - { offsetInCU: 0x35C83, offset: 0x35C83, size: 0x8, addend: 0x0, symName: __ZNSt3__16vectorIN3tmx7Tileset7TerrainENS_9allocatorIS3_EEED1B8ue170006Ev, symObjAddr: 0xE70, symBinAddr: 0x100002968, symSize: 0x2C }
  - { offsetInCU: 0x35CAD, offset: 0x35CAD, size: 0x8, addend: 0x0, symName: __ZNSt3__16vectorIN3tmx7Tileset4TileENS_9allocatorIS3_EEED2B8ue170006Ev, symObjAddr: 0xE9C, symBinAddr: 0x100002994, symSize: 0x44 }
  - { offsetInCU: 0x35CD7, offset: 0x35CD7, size: 0x8, addend: 0x0, symName: __ZNSt3__16vectorIN3tmx7Tileset4TileENS_9allocatorIS3_EEE16__destroy_vectorC1B8ue170006ERS6_, symObjAddr: 0xEE0, symBinAddr: 0x1000029D8, symSize: 0x34 }
  - { offsetInCU: 0x35D10, offset: 0x35D10, size: 0x8, addend: 0x0, symName: __ZNSt3__16vectorIN3tmx7Tileset4TileENS_9allocatorIS3_EEE16__destroy_vectorclB8ue170006Ev, symObjAddr: 0xF14, symBinAddr: 0x100002A0C, symSize: 0x90 }
  - { offsetInCU: 0x35D36, offset: 0x35D36, size: 0x8, addend: 0x0, symName: __ZNSt3__16vectorIN3tmx7Tileset4TileENS_9allocatorIS3_EEE16__destroy_vectorC2B8ue170006ERS6_, symObjAddr: 0xFA4, symBinAddr: 0x100002A9C, symSize: 0x20 }
  - { offsetInCU: 0x35D6F, offset: 0x35D6F, size: 0x8, addend: 0x0, symName: __ZNSt3__16vectorIN3tmx7Tileset4TileENS_9allocatorIS3_EEE7__clearB8ue170006Ev, symObjAddr: 0xFC4, symBinAddr: 0x100002ABC, symSize: 0x28 }
  - { offsetInCU: 0x35D95, offset: 0x35D95, size: 0x8, addend: 0x0, symName: __ZNKSt3__16vectorIN3tmx7Tileset4TileENS_9allocatorIS3_EEE17__annotate_deleteB8ue170006Ev, symObjAddr: 0xFEC, symBinAddr: 0x100002AE4, symSize: 0xD4 }
  - { offsetInCU: 0x35DBB, offset: 0x35DBB, size: 0x8, addend: 0x0, symName: __ZNSt3__116allocator_traitsINS_9allocatorIN3tmx7Tileset4TileEEEE10deallocateB8ue170006ERS5_PS4_m, symObjAddr: 0x10C0, symBinAddr: 0x100002BB8, symSize: 0x34 }
  - { offsetInCU: 0x35DFD, offset: 0x35DFD, size: 0x8, addend: 0x0, symName: __ZNSt3__16vectorIN3tmx7Tileset4TileENS_9allocatorIS3_EEE7__allocB8ue170006Ev, symObjAddr: 0x10F4, symBinAddr: 0x100002BEC, symSize: 0x28 }
  - { offsetInCU: 0x35E23, offset: 0x35E23, size: 0x8, addend: 0x0, symName: __ZNKSt3__16vectorIN3tmx7Tileset4TileENS_9allocatorIS3_EEE8capacityB8ue170006Ev, symObjAddr: 0x111C, symBinAddr: 0x100002C14, symSize: 0x40 }
  - { offsetInCU: 0x35E49, offset: 0x35E49, size: 0x8, addend: 0x0, symName: __ZNSt3__16vectorIN3tmx7Tileset4TileENS_9allocatorIS3_EEE22__base_destruct_at_endB8ue170006EPS3_, symObjAddr: 0x115C, symBinAddr: 0x100002C54, symSize: 0x8C }
  - { offsetInCU: 0x35E8D, offset: 0x35E8D, size: 0x8, addend: 0x0, symName: __ZNSt3__116allocator_traitsINS_9allocatorIN3tmx7Tileset4TileEEEE7destroyB8ue170006IS4_vEEvRS5_PT_, symObjAddr: 0x11E8, symBinAddr: 0x100002CE0, symSize: 0x2C }
  - { offsetInCU: 0x35ECA, offset: 0x35ECA, size: 0x8, addend: 0x0, symName: __ZNSt3__19allocatorIN3tmx7Tileset4TileEE7destroyB8ue170006EPS3_, symObjAddr: 0x1228, symBinAddr: 0x100002D20, symSize: 0x28 }
  - { offsetInCU: 0x35F03, offset: 0x35F03, size: 0x8, addend: 0x0, symName: __ZN3tmx7Tileset4TileD1Ev, symObjAddr: 0x1250, symBinAddr: 0x100002D48, symSize: 0x2C }
  - { offsetInCU: 0x35F2F, offset: 0x35F2F, size: 0x8, addend: 0x0, symName: __ZN3tmx7Tileset4TileD2Ev, symObjAddr: 0x127C, symBinAddr: 0x100002D74, symSize: 0x60 }
  - { offsetInCU: 0x35F5B, offset: 0x35F5B, size: 0x8, addend: 0x0, symName: __ZN3tmx11ObjectGroupD1Ev, symObjAddr: 0x12DC, symBinAddr: 0x100002DD4, symSize: 0x2C }
  - { offsetInCU: 0x35F8C, offset: 0x35F8C, size: 0x8, addend: 0x0, symName: __ZN3tmx7Tileset4Tile9AnimationD1Ev, symObjAddr: 0x1308, symBinAddr: 0x100002E00, symSize: 0x2C }
  - { offsetInCU: 0x35FB8, offset: 0x35FB8, size: 0x8, addend: 0x0, symName: __ZN3tmx11ObjectGroupD2Ev, symObjAddr: 0x1334, symBinAddr: 0x100002E2C, symSize: 0x44 }
  - { offsetInCU: 0x35FE4, offset: 0x35FE4, size: 0x8, addend: 0x0, symName: __ZNSt3__16vectorIN3tmx6ObjectENS_9allocatorIS2_EEED1B8ue170006Ev, symObjAddr: 0x1378, symBinAddr: 0x100002E70, symSize: 0x2C }
  - { offsetInCU: 0x3600E, offset: 0x3600E, size: 0x8, addend: 0x0, symName: __ZN3tmx5LayerD2Ev, symObjAddr: 0x13A4, symBinAddr: 0x100002E9C, symSize: 0x58 }
  - { offsetInCU: 0x36038, offset: 0x36038, size: 0x8, addend: 0x0, symName: __ZNSt3__16vectorIN3tmx6ObjectENS_9allocatorIS2_EEED2B8ue170006Ev, symObjAddr: 0x13FC, symBinAddr: 0x100002EF4, symSize: 0x44 }
  - { offsetInCU: 0x36062, offset: 0x36062, size: 0x8, addend: 0x0, symName: __ZNSt3__16vectorIN3tmx6ObjectENS_9allocatorIS2_EEE16__destroy_vectorC1B8ue170006ERS5_, symObjAddr: 0x1440, symBinAddr: 0x100002F38, symSize: 0x34 }
  - { offsetInCU: 0x3609B, offset: 0x3609B, size: 0x8, addend: 0x0, symName: __ZNSt3__16vectorIN3tmx6ObjectENS_9allocatorIS2_EEE16__destroy_vectorclB8ue170006Ev, symObjAddr: 0x1474, symBinAddr: 0x100002F6C, symSize: 0x90 }
  - { offsetInCU: 0x360C1, offset: 0x360C1, size: 0x8, addend: 0x0, symName: __ZNSt3__16vectorIN3tmx6ObjectENS_9allocatorIS2_EEE16__destroy_vectorC2B8ue170006ERS5_, symObjAddr: 0x1504, symBinAddr: 0x100002FFC, symSize: 0x20 }
  - { offsetInCU: 0x360FA, offset: 0x360FA, size: 0x8, addend: 0x0, symName: __ZNSt3__16vectorIN3tmx6ObjectENS_9allocatorIS2_EEE7__clearB8ue170006Ev, symObjAddr: 0x1524, symBinAddr: 0x10000301C, symSize: 0x28 }
  - { offsetInCU: 0x36120, offset: 0x36120, size: 0x8, addend: 0x0, symName: __ZNKSt3__16vectorIN3tmx6ObjectENS_9allocatorIS2_EEE17__annotate_deleteB8ue170006Ev, symObjAddr: 0x154C, symBinAddr: 0x100003044, symSize: 0xD4 }
  - { offsetInCU: 0x36146, offset: 0x36146, size: 0x8, addend: 0x0, symName: __ZNSt3__116allocator_traitsINS_9allocatorIN3tmx6ObjectEEEE10deallocateB8ue170006ERS4_PS3_m, symObjAddr: 0x1620, symBinAddr: 0x100003118, symSize: 0x34 }
  - { offsetInCU: 0x36188, offset: 0x36188, size: 0x8, addend: 0x0, symName: __ZNSt3__16vectorIN3tmx6ObjectENS_9allocatorIS2_EEE7__allocB8ue170006Ev, symObjAddr: 0x1654, symBinAddr: 0x10000314C, symSize: 0x28 }
  - { offsetInCU: 0x361AE, offset: 0x361AE, size: 0x8, addend: 0x0, symName: __ZNKSt3__16vectorIN3tmx6ObjectENS_9allocatorIS2_EEE8capacityB8ue170006Ev, symObjAddr: 0x167C, symBinAddr: 0x100003174, symSize: 0x40 }
  - { offsetInCU: 0x361D4, offset: 0x361D4, size: 0x8, addend: 0x0, symName: __ZNSt3__16vectorIN3tmx6ObjectENS_9allocatorIS2_EEE22__base_destruct_at_endB8ue170006EPS2_, symObjAddr: 0x16BC, symBinAddr: 0x1000031B4, symSize: 0x8C }
  - { offsetInCU: 0x36218, offset: 0x36218, size: 0x8, addend: 0x0, symName: __ZNSt3__116allocator_traitsINS_9allocatorIN3tmx6ObjectEEEE7destroyB8ue170006IS3_vEEvRS4_PT_, symObjAddr: 0x1748, symBinAddr: 0x100003240, symSize: 0x2C }
  - { offsetInCU: 0x36255, offset: 0x36255, size: 0x8, addend: 0x0, symName: __ZNSt3__19allocatorIN3tmx6ObjectEE7destroyB8ue170006EPS2_, symObjAddr: 0x1788, symBinAddr: 0x100003280, symSize: 0x28 }
  - { offsetInCU: 0x36289, offset: 0x36289, size: 0x8, addend: 0x0, symName: __ZN3tmx6ObjectD1Ev, symObjAddr: 0x17B0, symBinAddr: 0x1000032A8, symSize: 0x2C }
  - { offsetInCU: 0x362B5, offset: 0x362B5, size: 0x8, addend: 0x0, symName: __ZN3tmx6ObjectD2Ev, symObjAddr: 0x17DC, symBinAddr: 0x1000032D4, symSize: 0x6C }
  - { offsetInCU: 0x362E6, offset: 0x362E6, size: 0x8, addend: 0x0, symName: __ZN3tmx4TextD1Ev, symObjAddr: 0x1848, symBinAddr: 0x100003340, symSize: 0x2C }
  - { offsetInCU: 0x36312, offset: 0x36312, size: 0x8, addend: 0x0, symName: __ZNSt3__16vectorIN3tmx7Vector2IfEENS_9allocatorIS3_EEED1B8ue170006Ev, symObjAddr: 0x1874, symBinAddr: 0x10000336C, symSize: 0x2C }
  - { offsetInCU: 0x3633C, offset: 0x3633C, size: 0x8, addend: 0x0, symName: __ZN3tmx4TextD2Ev, symObjAddr: 0x18A0, symBinAddr: 0x100003398, symSize: 0x38 }
  - { offsetInCU: 0x36368, offset: 0x36368, size: 0x8, addend: 0x0, symName: __ZNSt3__16vectorIN3tmx7Vector2IfEENS_9allocatorIS3_EEED2B8ue170006Ev, symObjAddr: 0x18D8, symBinAddr: 0x1000033D0, symSize: 0x44 }
  - { offsetInCU: 0x36392, offset: 0x36392, size: 0x8, addend: 0x0, symName: __ZNSt3__16vectorIN3tmx7Vector2IfEENS_9allocatorIS3_EEE16__destroy_vectorC1B8ue170006ERS6_, symObjAddr: 0x191C, symBinAddr: 0x100003414, symSize: 0x34 }
  - { offsetInCU: 0x363CB, offset: 0x363CB, size: 0x8, addend: 0x0, symName: __ZNSt3__16vectorIN3tmx7Vector2IfEENS_9allocatorIS3_EEE16__destroy_vectorclB8ue170006Ev, symObjAddr: 0x1950, symBinAddr: 0x100003448, symSize: 0x90 }
  - { offsetInCU: 0x363F1, offset: 0x363F1, size: 0x8, addend: 0x0, symName: __ZNSt3__16vectorIN3tmx7Vector2IfEENS_9allocatorIS3_EEE16__destroy_vectorC2B8ue170006ERS6_, symObjAddr: 0x19E0, symBinAddr: 0x1000034D8, symSize: 0x20 }
  - { offsetInCU: 0x3642A, offset: 0x3642A, size: 0x8, addend: 0x0, symName: __ZNSt3__16vectorIN3tmx7Vector2IfEENS_9allocatorIS3_EEE7__clearB8ue170006Ev, symObjAddr: 0x1A00, symBinAddr: 0x1000034F8, symSize: 0x28 }
  - { offsetInCU: 0x36450, offset: 0x36450, size: 0x8, addend: 0x0, symName: __ZNKSt3__16vectorIN3tmx7Vector2IfEENS_9allocatorIS3_EEE17__annotate_deleteB8ue170006Ev, symObjAddr: 0x1A28, symBinAddr: 0x100003520, symSize: 0xB8 }
  - { offsetInCU: 0x36476, offset: 0x36476, size: 0x8, addend: 0x0, symName: __ZNSt3__116allocator_traitsINS_9allocatorIN3tmx7Vector2IfEEEEE10deallocateB8ue170006ERS5_PS4_m, symObjAddr: 0x1AE0, symBinAddr: 0x1000035D8, symSize: 0x34 }
  - { offsetInCU: 0x364B8, offset: 0x364B8, size: 0x8, addend: 0x0, symName: __ZNSt3__16vectorIN3tmx7Vector2IfEENS_9allocatorIS3_EEE7__allocB8ue170006Ev, symObjAddr: 0x1B14, symBinAddr: 0x10000360C, symSize: 0x28 }
  - { offsetInCU: 0x364DE, offset: 0x364DE, size: 0x8, addend: 0x0, symName: __ZNKSt3__16vectorIN3tmx7Vector2IfEENS_9allocatorIS3_EEE8capacityB8ue170006Ev, symObjAddr: 0x1B3C, symBinAddr: 0x100003634, symSize: 0x40 }
  - { offsetInCU: 0x36504, offset: 0x36504, size: 0x8, addend: 0x0, symName: __ZNSt3__16vectorIN3tmx7Vector2IfEENS_9allocatorIS3_EEE22__base_destruct_at_endB8ue170006EPS3_, symObjAddr: 0x1B7C, symBinAddr: 0x100003674, symSize: 0x8C }
  - { offsetInCU: 0x36548, offset: 0x36548, size: 0x8, addend: 0x0, symName: __ZNSt3__116allocator_traitsINS_9allocatorIN3tmx7Vector2IfEEEEE7destroyB8ue170006IS4_vEEvRS5_PT_, symObjAddr: 0x1C08, symBinAddr: 0x100003700, symSize: 0x2C }
  - { offsetInCU: 0x36585, offset: 0x36585, size: 0x8, addend: 0x0, symName: __ZNSt3__19allocatorIN3tmx7Vector2IfEEE7destroyB8ue170006EPS3_, symObjAddr: 0x1C48, symBinAddr: 0x100003740, symSize: 0x14 }
  - { offsetInCU: 0x365B9, offset: 0x365B9, size: 0x8, addend: 0x0, symName: __ZNKSt3__16vectorIN3tmx7Vector2IfEENS_9allocatorIS3_EEE31__annotate_contiguous_containerB8ue170006EPKvS8_S8_S8_, symObjAddr: 0x1C5C, symBinAddr: 0x100003754, symSize: 0x20 }
  - { offsetInCU: 0x3660F, offset: 0x3660F, size: 0x8, addend: 0x0, symName: __ZNKSt3__16vectorIN3tmx7Vector2IfEENS_9allocatorIS3_EEE4dataB8ue170006Ev, symObjAddr: 0x1C7C, symBinAddr: 0x100003774, symSize: 0x28 }
  - { offsetInCU: 0x36635, offset: 0x36635, size: 0x8, addend: 0x0, symName: __ZNKSt3__16vectorIN3tmx7Vector2IfEENS_9allocatorIS3_EEE4sizeB8ue170006Ev, symObjAddr: 0x1CA4, symBinAddr: 0x10000379C, symSize: 0x28 }
  - { offsetInCU: 0x3665B, offset: 0x3665B, size: 0x8, addend: 0x0, symName: __ZNSt3__19allocatorIN3tmx7Vector2IfEEE10deallocateB8ue170006EPS3_m, symObjAddr: 0x1CCC, symBinAddr: 0x1000037C4, symSize: 0x40 }
  - { offsetInCU: 0x3669D, offset: 0x3669D, size: 0x8, addend: 0x0, symName: __ZNSt3__117__compressed_pairIPN3tmx7Vector2IfEENS_9allocatorIS3_EEE6secondB8ue170006Ev, symObjAddr: 0x1D0C, symBinAddr: 0x100003804, symSize: 0x24 }
  - { offsetInCU: 0x366C3, offset: 0x366C3, size: 0x8, addend: 0x0, symName: __ZNSt3__122__compressed_pair_elemINS_9allocatorIN3tmx7Vector2IfEEEELi1ELb1EE5__getB8ue170006Ev, symObjAddr: 0x1D30, symBinAddr: 0x100003828, symSize: 0x14 }
  - { offsetInCU: 0x366E9, offset: 0x366E9, size: 0x8, addend: 0x0, symName: __ZNKSt3__16vectorIN3tmx7Vector2IfEENS_9allocatorIS3_EEE9__end_capB8ue170006Ev, symObjAddr: 0x1D44, symBinAddr: 0x10000383C, symSize: 0x28 }
  - { offsetInCU: 0x3670F, offset: 0x3670F, size: 0x8, addend: 0x0, symName: __ZNKSt3__117__compressed_pairIPN3tmx7Vector2IfEENS_9allocatorIS3_EEE5firstB8ue170006Ev, symObjAddr: 0x1D6C, symBinAddr: 0x100003864, symSize: 0x24 }
  - { offsetInCU: 0x36735, offset: 0x36735, size: 0x8, addend: 0x0, symName: __ZNKSt3__122__compressed_pair_elemIPN3tmx7Vector2IfEELi0ELb0EE5__getB8ue170006Ev, symObjAddr: 0x1D90, symBinAddr: 0x100003888, symSize: 0x14 }
  - { offsetInCU: 0x3675B, offset: 0x3675B, size: 0x8, addend: 0x0, symName: __ZNKSt3__16vectorIN3tmx6ObjectENS_9allocatorIS2_EEE31__annotate_contiguous_containerB8ue170006EPKvS7_S7_S7_, symObjAddr: 0x1DA4, symBinAddr: 0x10000389C, symSize: 0x20 }
  - { offsetInCU: 0x367B1, offset: 0x367B1, size: 0x8, addend: 0x0, symName: __ZNKSt3__16vectorIN3tmx6ObjectENS_9allocatorIS2_EEE4dataB8ue170006Ev, symObjAddr: 0x1DC4, symBinAddr: 0x1000038BC, symSize: 0x28 }
  - { offsetInCU: 0x367D7, offset: 0x367D7, size: 0x8, addend: 0x0, symName: __ZNKSt3__16vectorIN3tmx6ObjectENS_9allocatorIS2_EEE4sizeB8ue170006Ev, symObjAddr: 0x1DEC, symBinAddr: 0x1000038E4, symSize: 0x28 }
  - { offsetInCU: 0x367FD, offset: 0x367FD, size: 0x8, addend: 0x0, symName: __ZNSt3__19allocatorIN3tmx6ObjectEE10deallocateB8ue170006EPS2_m, symObjAddr: 0x1E14, symBinAddr: 0x10000390C, symSize: 0x44 }
  - { offsetInCU: 0x3683F, offset: 0x3683F, size: 0x8, addend: 0x0, symName: __ZNSt3__117__compressed_pairIPN3tmx6ObjectENS_9allocatorIS2_EEE6secondB8ue170006Ev, symObjAddr: 0x1E58, symBinAddr: 0x100003950, symSize: 0x24 }
  - { offsetInCU: 0x36865, offset: 0x36865, size: 0x8, addend: 0x0, symName: __ZNSt3__122__compressed_pair_elemINS_9allocatorIN3tmx6ObjectEEELi1ELb1EE5__getB8ue170006Ev, symObjAddr: 0x1E7C, symBinAddr: 0x100003974, symSize: 0x14 }
  - { offsetInCU: 0x3688B, offset: 0x3688B, size: 0x8, addend: 0x0, symName: __ZNKSt3__16vectorIN3tmx6ObjectENS_9allocatorIS2_EEE9__end_capB8ue170006Ev, symObjAddr: 0x1E90, symBinAddr: 0x100003988, symSize: 0x28 }
  - { offsetInCU: 0x368B1, offset: 0x368B1, size: 0x8, addend: 0x0, symName: __ZNKSt3__117__compressed_pairIPN3tmx6ObjectENS_9allocatorIS2_EEE5firstB8ue170006Ev, symObjAddr: 0x1EB8, symBinAddr: 0x1000039B0, symSize: 0x24 }
  - { offsetInCU: 0x368D7, offset: 0x368D7, size: 0x8, addend: 0x0, symName: __ZNKSt3__122__compressed_pair_elemIPN3tmx6ObjectELi0ELb0EE5__getB8ue170006Ev, symObjAddr: 0x1EDC, symBinAddr: 0x1000039D4, symSize: 0x14 }
  - { offsetInCU: 0x368FD, offset: 0x368FD, size: 0x8, addend: 0x0, symName: __ZN3tmx5LayerD1Ev, symObjAddr: 0x1EF0, symBinAddr: 0x1000039E8, symSize: 0x14 }
  - { offsetInCU: 0x36927, offset: 0x36927, size: 0x8, addend: 0x0, symName: __ZN3tmx5LayerD0Ev, symObjAddr: 0x1F04, symBinAddr: 0x1000039FC, symSize: 0xC }
  - { offsetInCU: 0x36951, offset: 0x36951, size: 0x8, addend: 0x0, symName: __ZN3tmx7Tileset4Tile9AnimationD2Ev, symObjAddr: 0x1F10, symBinAddr: 0x100003A08, symSize: 0x2C }
  - { offsetInCU: 0x3697D, offset: 0x3697D, size: 0x8, addend: 0x0, symName: __ZNSt3__16vectorIN3tmx7Tileset4Tile9Animation5FrameENS_9allocatorIS5_EEED1B8ue170006Ev, symObjAddr: 0x1F3C, symBinAddr: 0x100003A34, symSize: 0x2C }
  - { offsetInCU: 0x369A7, offset: 0x369A7, size: 0x8, addend: 0x0, symName: __ZNSt3__16vectorIN3tmx7Tileset4Tile9Animation5FrameENS_9allocatorIS5_EEED2B8ue170006Ev, symObjAddr: 0x1F68, symBinAddr: 0x100003A60, symSize: 0x44 }
  - { offsetInCU: 0x369D1, offset: 0x369D1, size: 0x8, addend: 0x0, symName: __ZNSt3__16vectorIN3tmx7Tileset4Tile9Animation5FrameENS_9allocatorIS5_EEE16__destroy_vectorC1B8ue170006ERS8_, symObjAddr: 0x1FAC, symBinAddr: 0x100003AA4, symSize: 0x34 }
  - { offsetInCU: 0x36A0A, offset: 0x36A0A, size: 0x8, addend: 0x0, symName: __ZNSt3__16vectorIN3tmx7Tileset4Tile9Animation5FrameENS_9allocatorIS5_EEE16__destroy_vectorclB8ue170006Ev, symObjAddr: 0x1FE0, symBinAddr: 0x100003AD8, symSize: 0x90 }
  - { offsetInCU: 0x36A30, offset: 0x36A30, size: 0x8, addend: 0x0, symName: __ZNSt3__16vectorIN3tmx7Tileset4Tile9Animation5FrameENS_9allocatorIS5_EEE16__destroy_vectorC2B8ue170006ERS8_, symObjAddr: 0x2070, symBinAddr: 0x100003B68, symSize: 0x20 }
  - { offsetInCU: 0x36A69, offset: 0x36A69, size: 0x8, addend: 0x0, symName: __ZNSt3__16vectorIN3tmx7Tileset4Tile9Animation5FrameENS_9allocatorIS5_EEE7__clearB8ue170006Ev, symObjAddr: 0x2090, symBinAddr: 0x100003B88, symSize: 0x28 }
  - { offsetInCU: 0x36A8F, offset: 0x36A8F, size: 0x8, addend: 0x0, symName: __ZNKSt3__16vectorIN3tmx7Tileset4Tile9Animation5FrameENS_9allocatorIS5_EEE17__annotate_deleteB8ue170006Ev, symObjAddr: 0x20B8, symBinAddr: 0x100003BB0, symSize: 0xB8 }
  - { offsetInCU: 0x36AB5, offset: 0x36AB5, size: 0x8, addend: 0x0, symName: __ZNSt3__116allocator_traitsINS_9allocatorIN3tmx7Tileset4Tile9Animation5FrameEEEE10deallocateB8ue170006ERS7_PS6_m, symObjAddr: 0x2170, symBinAddr: 0x100003C68, symSize: 0x34 }
  - { offsetInCU: 0x36AF7, offset: 0x36AF7, size: 0x8, addend: 0x0, symName: __ZNSt3__16vectorIN3tmx7Tileset4Tile9Animation5FrameENS_9allocatorIS5_EEE7__allocB8ue170006Ev, symObjAddr: 0x21A4, symBinAddr: 0x100003C9C, symSize: 0x28 }
  - { offsetInCU: 0x36B1D, offset: 0x36B1D, size: 0x8, addend: 0x0, symName: __ZNKSt3__16vectorIN3tmx7Tileset4Tile9Animation5FrameENS_9allocatorIS5_EEE8capacityB8ue170006Ev, symObjAddr: 0x21CC, symBinAddr: 0x100003CC4, symSize: 0x40 }
  - { offsetInCU: 0x36B43, offset: 0x36B43, size: 0x8, addend: 0x0, symName: __ZNSt3__16vectorIN3tmx7Tileset4Tile9Animation5FrameENS_9allocatorIS5_EEE22__base_destruct_at_endB8ue170006EPS5_, symObjAddr: 0x220C, symBinAddr: 0x100003D04, symSize: 0x8C }
  - { offsetInCU: 0x36B87, offset: 0x36B87, size: 0x8, addend: 0x0, symName: __ZNSt3__116allocator_traitsINS_9allocatorIN3tmx7Tileset4Tile9Animation5FrameEEEE7destroyB8ue170006IS6_vEEvRS7_PT_, symObjAddr: 0x2298, symBinAddr: 0x100003D90, symSize: 0x2C }
  - { offsetInCU: 0x36BC4, offset: 0x36BC4, size: 0x8, addend: 0x0, symName: __ZNSt3__19allocatorIN3tmx7Tileset4Tile9Animation5FrameEE7destroyB8ue170006EPS5_, symObjAddr: 0x22D8, symBinAddr: 0x100003DD0, symSize: 0x14 }
  - { offsetInCU: 0x36BF8, offset: 0x36BF8, size: 0x8, addend: 0x0, symName: __ZNKSt3__16vectorIN3tmx7Tileset4Tile9Animation5FrameENS_9allocatorIS5_EEE31__annotate_contiguous_containerB8ue170006EPKvSA_SA_SA_, symObjAddr: 0x22EC, symBinAddr: 0x100003DE4, symSize: 0x20 }
  - { offsetInCU: 0x36C4E, offset: 0x36C4E, size: 0x8, addend: 0x0, symName: __ZNKSt3__16vectorIN3tmx7Tileset4Tile9Animation5FrameENS_9allocatorIS5_EEE4dataB8ue170006Ev, symObjAddr: 0x230C, symBinAddr: 0x100003E04, symSize: 0x28 }
  - { offsetInCU: 0x36C74, offset: 0x36C74, size: 0x8, addend: 0x0, symName: __ZNKSt3__16vectorIN3tmx7Tileset4Tile9Animation5FrameENS_9allocatorIS5_EEE4sizeB8ue170006Ev, symObjAddr: 0x2334, symBinAddr: 0x100003E2C, symSize: 0x28 }
  - { offsetInCU: 0x36C9A, offset: 0x36C9A, size: 0x8, addend: 0x0, symName: __ZNSt3__19allocatorIN3tmx7Tileset4Tile9Animation5FrameEE10deallocateB8ue170006EPS5_m, symObjAddr: 0x235C, symBinAddr: 0x100003E54, symSize: 0x40 }
  - { offsetInCU: 0x36CDC, offset: 0x36CDC, size: 0x8, addend: 0x0, symName: __ZNSt3__117__compressed_pairIPN3tmx7Tileset4Tile9Animation5FrameENS_9allocatorIS5_EEE6secondB8ue170006Ev, symObjAddr: 0x239C, symBinAddr: 0x100003E94, symSize: 0x24 }
  - { offsetInCU: 0x36D02, offset: 0x36D02, size: 0x8, addend: 0x0, symName: __ZNSt3__122__compressed_pair_elemINS_9allocatorIN3tmx7Tileset4Tile9Animation5FrameEEELi1ELb1EE5__getB8ue170006Ev, symObjAddr: 0x23C0, symBinAddr: 0x100003EB8, symSize: 0x14 }
  - { offsetInCU: 0x36D28, offset: 0x36D28, size: 0x8, addend: 0x0, symName: __ZNKSt3__16vectorIN3tmx7Tileset4Tile9Animation5FrameENS_9allocatorIS5_EEE9__end_capB8ue170006Ev, symObjAddr: 0x23D4, symBinAddr: 0x100003ECC, symSize: 0x28 }
  - { offsetInCU: 0x36D4E, offset: 0x36D4E, size: 0x8, addend: 0x0, symName: __ZNKSt3__117__compressed_pairIPN3tmx7Tileset4Tile9Animation5FrameENS_9allocatorIS5_EEE5firstB8ue170006Ev, symObjAddr: 0x23FC, symBinAddr: 0x100003EF4, symSize: 0x24 }
  - { offsetInCU: 0x36D74, offset: 0x36D74, size: 0x8, addend: 0x0, symName: __ZNKSt3__122__compressed_pair_elemIPN3tmx7Tileset4Tile9Animation5FrameELi0ELb0EE5__getB8ue170006Ev, symObjAddr: 0x2420, symBinAddr: 0x100003F18, symSize: 0x14 }
  - { offsetInCU: 0x36D9A, offset: 0x36D9A, size: 0x8, addend: 0x0, symName: __ZNKSt3__16vectorIN3tmx7Tileset4TileENS_9allocatorIS3_EEE31__annotate_contiguous_containerB8ue170006EPKvS8_S8_S8_, symObjAddr: 0x2434, symBinAddr: 0x100003F2C, symSize: 0x20 }
  - { offsetInCU: 0x36DF0, offset: 0x36DF0, size: 0x8, addend: 0x0, symName: __ZNKSt3__16vectorIN3tmx7Tileset4TileENS_9allocatorIS3_EEE4dataB8ue170006Ev, symObjAddr: 0x2454, symBinAddr: 0x100003F4C, symSize: 0x28 }
  - { offsetInCU: 0x36E16, offset: 0x36E16, size: 0x8, addend: 0x0, symName: __ZNKSt3__16vectorIN3tmx7Tileset4TileENS_9allocatorIS3_EEE4sizeB8ue170006Ev, symObjAddr: 0x247C, symBinAddr: 0x100003F74, symSize: 0x28 }
  - { offsetInCU: 0x36E3C, offset: 0x36E3C, size: 0x8, addend: 0x0, symName: __ZNSt3__19allocatorIN3tmx7Tileset4TileEE10deallocateB8ue170006EPS3_m, symObjAddr: 0x24A4, symBinAddr: 0x100003F9C, symSize: 0x44 }
  - { offsetInCU: 0x36E7E, offset: 0x36E7E, size: 0x8, addend: 0x0, symName: __ZNSt3__117__compressed_pairIPN3tmx7Tileset4TileENS_9allocatorIS3_EEE6secondB8ue170006Ev, symObjAddr: 0x24E8, symBinAddr: 0x100003FE0, symSize: 0x24 }
  - { offsetInCU: 0x36EA4, offset: 0x36EA4, size: 0x8, addend: 0x0, symName: __ZNSt3__122__compressed_pair_elemINS_9allocatorIN3tmx7Tileset4TileEEELi1ELb1EE5__getB8ue170006Ev, symObjAddr: 0x250C, symBinAddr: 0x100004004, symSize: 0x14 }
  - { offsetInCU: 0x36ECA, offset: 0x36ECA, size: 0x8, addend: 0x0, symName: __ZNKSt3__16vectorIN3tmx7Tileset4TileENS_9allocatorIS3_EEE9__end_capB8ue170006Ev, symObjAddr: 0x2520, symBinAddr: 0x100004018, symSize: 0x28 }
  - { offsetInCU: 0x36EF0, offset: 0x36EF0, size: 0x8, addend: 0x0, symName: __ZNKSt3__117__compressed_pairIPN3tmx7Tileset4TileENS_9allocatorIS3_EEE5firstB8ue170006Ev, symObjAddr: 0x2548, symBinAddr: 0x100004040, symSize: 0x24 }
  - { offsetInCU: 0x36F16, offset: 0x36F16, size: 0x8, addend: 0x0, symName: __ZNKSt3__122__compressed_pair_elemIPN3tmx7Tileset4TileELi0ELb0EE5__getB8ue170006Ev, symObjAddr: 0x256C, symBinAddr: 0x100004064, symSize: 0x14 }
  - { offsetInCU: 0x36F3C, offset: 0x36F3C, size: 0x8, addend: 0x0, symName: __ZNSt3__16vectorIjNS_9allocatorIjEEED2B8ue170006Ev, symObjAddr: 0x2580, symBinAddr: 0x100004078, symSize: 0x44 }
  - { offsetInCU: 0x36F66, offset: 0x36F66, size: 0x8, addend: 0x0, symName: __ZNSt3__16vectorIjNS_9allocatorIjEEE16__destroy_vectorC1B8ue170006ERS3_, symObjAddr: 0x25C4, symBinAddr: 0x1000040BC, symSize: 0x34 }
  - { offsetInCU: 0x36F9F, offset: 0x36F9F, size: 0x8, addend: 0x0, symName: __ZNSt3__16vectorIjNS_9allocatorIjEEE16__destroy_vectorclB8ue170006Ev, symObjAddr: 0x25F8, symBinAddr: 0x1000040F0, symSize: 0x90 }
  - { offsetInCU: 0x36FC5, offset: 0x36FC5, size: 0x8, addend: 0x0, symName: __ZNSt3__16vectorIjNS_9allocatorIjEEE16__destroy_vectorC2B8ue170006ERS3_, symObjAddr: 0x2688, symBinAddr: 0x100004180, symSize: 0x20 }
  - { offsetInCU: 0x36FFE, offset: 0x36FFE, size: 0x8, addend: 0x0, symName: __ZNSt3__16vectorIjNS_9allocatorIjEEE7__clearB8ue170006Ev, symObjAddr: 0x26A8, symBinAddr: 0x1000041A0, symSize: 0x28 }
  - { offsetInCU: 0x37024, offset: 0x37024, size: 0x8, addend: 0x0, symName: __ZNKSt3__16vectorIjNS_9allocatorIjEEE17__annotate_deleteB8ue170006Ev, symObjAddr: 0x26D0, symBinAddr: 0x1000041C8, symSize: 0xB8 }
  - { offsetInCU: 0x3704A, offset: 0x3704A, size: 0x8, addend: 0x0, symName: __ZNSt3__116allocator_traitsINS_9allocatorIjEEE10deallocateB8ue170006ERS2_Pjm, symObjAddr: 0x2788, symBinAddr: 0x100004280, symSize: 0x34 }
  - { offsetInCU: 0x3708C, offset: 0x3708C, size: 0x8, addend: 0x0, symName: __ZNSt3__16vectorIjNS_9allocatorIjEEE7__allocB8ue170006Ev, symObjAddr: 0x27BC, symBinAddr: 0x1000042B4, symSize: 0x28 }
  - { offsetInCU: 0x370B2, offset: 0x370B2, size: 0x8, addend: 0x0, symName: __ZNKSt3__16vectorIjNS_9allocatorIjEEE8capacityB8ue170006Ev, symObjAddr: 0x27E4, symBinAddr: 0x1000042DC, symSize: 0x40 }
  - { offsetInCU: 0x370D8, offset: 0x370D8, size: 0x8, addend: 0x0, symName: __ZNSt3__16vectorIjNS_9allocatorIjEEE22__base_destruct_at_endB8ue170006EPj, symObjAddr: 0x2824, symBinAddr: 0x10000431C, symSize: 0x8C }
  - { offsetInCU: 0x3711C, offset: 0x3711C, size: 0x8, addend: 0x0, symName: __ZNSt3__116allocator_traitsINS_9allocatorIjEEE7destroyB8ue170006IjvEEvRS2_PT_, symObjAddr: 0x28B0, symBinAddr: 0x1000043A8, symSize: 0x2C }
  - { offsetInCU: 0x37159, offset: 0x37159, size: 0x8, addend: 0x0, symName: __ZNSt3__19allocatorIjE7destroyB8ue170006EPj, symObjAddr: 0x28F0, symBinAddr: 0x1000043E8, symSize: 0x14 }
  - { offsetInCU: 0x3718D, offset: 0x3718D, size: 0x8, addend: 0x0, symName: __ZNKSt3__16vectorIjNS_9allocatorIjEEE31__annotate_contiguous_containerB8ue170006EPKvS5_S5_S5_, symObjAddr: 0x2904, symBinAddr: 0x1000043FC, symSize: 0x20 }
  - { offsetInCU: 0x371E3, offset: 0x371E3, size: 0x8, addend: 0x0, symName: __ZNKSt3__16vectorIjNS_9allocatorIjEEE4dataB8ue170006Ev, symObjAddr: 0x2924, symBinAddr: 0x10000441C, symSize: 0x28 }
  - { offsetInCU: 0x37209, offset: 0x37209, size: 0x8, addend: 0x0, symName: __ZNKSt3__16vectorIjNS_9allocatorIjEEE4sizeB8ue170006Ev, symObjAddr: 0x294C, symBinAddr: 0x100004444, symSize: 0x28 }
  - { offsetInCU: 0x3722F, offset: 0x3722F, size: 0x8, addend: 0x0, symName: __ZNSt3__19allocatorIjE10deallocateB8ue170006EPjm, symObjAddr: 0x2974, symBinAddr: 0x10000446C, symSize: 0x40 }
  - { offsetInCU: 0x37271, offset: 0x37271, size: 0x8, addend: 0x0, symName: __ZNSt3__117__compressed_pairIPjNS_9allocatorIjEEE6secondB8ue170006Ev, symObjAddr: 0x29B4, symBinAddr: 0x1000044AC, symSize: 0x24 }
  - { offsetInCU: 0x37297, offset: 0x37297, size: 0x8, addend: 0x0, symName: __ZNSt3__122__compressed_pair_elemINS_9allocatorIjEELi1ELb1EE5__getB8ue170006Ev, symObjAddr: 0x29D8, symBinAddr: 0x1000044D0, symSize: 0x14 }
  - { offsetInCU: 0x372BD, offset: 0x372BD, size: 0x8, addend: 0x0, symName: __ZNKSt3__16vectorIjNS_9allocatorIjEEE9__end_capB8ue170006Ev, symObjAddr: 0x29EC, symBinAddr: 0x1000044E4, symSize: 0x28 }
  - { offsetInCU: 0x372E3, offset: 0x372E3, size: 0x8, addend: 0x0, symName: __ZNKSt3__117__compressed_pairIPjNS_9allocatorIjEEE5firstB8ue170006Ev, symObjAddr: 0x2A14, symBinAddr: 0x10000450C, symSize: 0x24 }
  - { offsetInCU: 0x37309, offset: 0x37309, size: 0x8, addend: 0x0, symName: __ZNKSt3__122__compressed_pair_elemIPjLi0ELb0EE5__getB8ue170006Ev, symObjAddr: 0x2A38, symBinAddr: 0x100004530, symSize: 0x14 }
  - { offsetInCU: 0x3732F, offset: 0x3732F, size: 0x8, addend: 0x0, symName: __ZNSt3__16vectorIN3tmx7Tileset7TerrainENS_9allocatorIS3_EEED2B8ue170006Ev, symObjAddr: 0x2A4C, symBinAddr: 0x100004544, symSize: 0x44 }
  - { offsetInCU: 0x37359, offset: 0x37359, size: 0x8, addend: 0x0, symName: __ZNSt3__16vectorIN3tmx7Tileset7TerrainENS_9allocatorIS3_EEE16__destroy_vectorC1B8ue170006ERS6_, symObjAddr: 0x2A90, symBinAddr: 0x100004588, symSize: 0x34 }
  - { offsetInCU: 0x37392, offset: 0x37392, size: 0x8, addend: 0x0, symName: __ZNSt3__16vectorIN3tmx7Tileset7TerrainENS_9allocatorIS3_EEE16__destroy_vectorclB8ue170006Ev, symObjAddr: 0x2AC4, symBinAddr: 0x1000045BC, symSize: 0x90 }
  - { offsetInCU: 0x373B8, offset: 0x373B8, size: 0x8, addend: 0x0, symName: __ZNSt3__16vectorIN3tmx7Tileset7TerrainENS_9allocatorIS3_EEE16__destroy_vectorC2B8ue170006ERS6_, symObjAddr: 0x2B54, symBinAddr: 0x10000464C, symSize: 0x20 }
  - { offsetInCU: 0x373F1, offset: 0x373F1, size: 0x8, addend: 0x0, symName: __ZNSt3__16vectorIN3tmx7Tileset7TerrainENS_9allocatorIS3_EEE7__clearB8ue170006Ev, symObjAddr: 0x2B74, symBinAddr: 0x10000466C, symSize: 0x28 }
  - { offsetInCU: 0x37417, offset: 0x37417, size: 0x8, addend: 0x0, symName: __ZNKSt3__16vectorIN3tmx7Tileset7TerrainENS_9allocatorIS3_EEE17__annotate_deleteB8ue170006Ev, symObjAddr: 0x2B9C, symBinAddr: 0x100004694, symSize: 0xD4 }
  - { offsetInCU: 0x3743D, offset: 0x3743D, size: 0x8, addend: 0x0, symName: __ZNSt3__116allocator_traitsINS_9allocatorIN3tmx7Tileset7TerrainEEEE10deallocateB8ue170006ERS5_PS4_m, symObjAddr: 0x2C70, symBinAddr: 0x100004768, symSize: 0x34 }
  - { offsetInCU: 0x3747F, offset: 0x3747F, size: 0x8, addend: 0x0, symName: __ZNSt3__16vectorIN3tmx7Tileset7TerrainENS_9allocatorIS3_EEE7__allocB8ue170006Ev, symObjAddr: 0x2CA4, symBinAddr: 0x10000479C, symSize: 0x28 }
  - { offsetInCU: 0x374A5, offset: 0x374A5, size: 0x8, addend: 0x0, symName: __ZNKSt3__16vectorIN3tmx7Tileset7TerrainENS_9allocatorIS3_EEE8capacityB8ue170006Ev, symObjAddr: 0x2CCC, symBinAddr: 0x1000047C4, symSize: 0x40 }
  - { offsetInCU: 0x374CB, offset: 0x374CB, size: 0x8, addend: 0x0, symName: __ZNSt3__16vectorIN3tmx7Tileset7TerrainENS_9allocatorIS3_EEE22__base_destruct_at_endB8ue170006EPS3_, symObjAddr: 0x2D0C, symBinAddr: 0x100004804, symSize: 0x8C }
  - { offsetInCU: 0x3750F, offset: 0x3750F, size: 0x8, addend: 0x0, symName: __ZNSt3__116allocator_traitsINS_9allocatorIN3tmx7Tileset7TerrainEEEE7destroyB8ue170006IS4_vEEvRS5_PT_, symObjAddr: 0x2D98, symBinAddr: 0x100004890, symSize: 0x2C }
  - { offsetInCU: 0x3754C, offset: 0x3754C, size: 0x8, addend: 0x0, symName: __ZNSt3__19allocatorIN3tmx7Tileset7TerrainEE7destroyB8ue170006EPS3_, symObjAddr: 0x2DD8, symBinAddr: 0x1000048D0, symSize: 0x28 }
  - { offsetInCU: 0x37585, offset: 0x37585, size: 0x8, addend: 0x0, symName: __ZN3tmx7Tileset7TerrainD1Ev, symObjAddr: 0x2E00, symBinAddr: 0x1000048F8, symSize: 0x2C }
  - { offsetInCU: 0x375B1, offset: 0x375B1, size: 0x8, addend: 0x0, symName: __ZN3tmx7Tileset7TerrainD2Ev, symObjAddr: 0x2E2C, symBinAddr: 0x100004924, symSize: 0x38 }
  - { offsetInCU: 0x375DD, offset: 0x375DD, size: 0x8, addend: 0x0, symName: __ZNKSt3__16vectorIN3tmx7Tileset7TerrainENS_9allocatorIS3_EEE31__annotate_contiguous_containerB8ue170006EPKvS8_S8_S8_, symObjAddr: 0x2E64, symBinAddr: 0x10000495C, symSize: 0x20 }
  - { offsetInCU: 0x37633, offset: 0x37633, size: 0x8, addend: 0x0, symName: __ZNKSt3__16vectorIN3tmx7Tileset7TerrainENS_9allocatorIS3_EEE4dataB8ue170006Ev, symObjAddr: 0x2E84, symBinAddr: 0x10000497C, symSize: 0x28 }
  - { offsetInCU: 0x37659, offset: 0x37659, size: 0x8, addend: 0x0, symName: __ZNKSt3__16vectorIN3tmx7Tileset7TerrainENS_9allocatorIS3_EEE4sizeB8ue170006Ev, symObjAddr: 0x2EAC, symBinAddr: 0x1000049A4, symSize: 0x28 }
  - { offsetInCU: 0x3767F, offset: 0x3767F, size: 0x8, addend: 0x0, symName: __ZNSt3__19allocatorIN3tmx7Tileset7TerrainEE10deallocateB8ue170006EPS3_m, symObjAddr: 0x2ED4, symBinAddr: 0x1000049CC, symSize: 0x44 }
  - { offsetInCU: 0x376C1, offset: 0x376C1, size: 0x8, addend: 0x0, symName: __ZNSt3__117__compressed_pairIPN3tmx7Tileset7TerrainENS_9allocatorIS3_EEE6secondB8ue170006Ev, symObjAddr: 0x2F18, symBinAddr: 0x100004A10, symSize: 0x24 }
  - { offsetInCU: 0x376E7, offset: 0x376E7, size: 0x8, addend: 0x0, symName: __ZNSt3__122__compressed_pair_elemINS_9allocatorIN3tmx7Tileset7TerrainEEELi1ELb1EE5__getB8ue170006Ev, symObjAddr: 0x2F3C, symBinAddr: 0x100004A34, symSize: 0x14 }
  - { offsetInCU: 0x3770D, offset: 0x3770D, size: 0x8, addend: 0x0, symName: __ZNKSt3__16vectorIN3tmx7Tileset7TerrainENS_9allocatorIS3_EEE9__end_capB8ue170006Ev, symObjAddr: 0x2F50, symBinAddr: 0x100004A48, symSize: 0x28 }
  - { offsetInCU: 0x37733, offset: 0x37733, size: 0x8, addend: 0x0, symName: __ZNKSt3__117__compressed_pairIPN3tmx7Tileset7TerrainENS_9allocatorIS3_EEE5firstB8ue170006Ev, symObjAddr: 0x2F78, symBinAddr: 0x100004A70, symSize: 0x24 }
  - { offsetInCU: 0x37759, offset: 0x37759, size: 0x8, addend: 0x0, symName: __ZNKSt3__122__compressed_pair_elemIPN3tmx7Tileset7TerrainELi0ELb0EE5__getB8ue170006Ev, symObjAddr: 0x2F9C, symBinAddr: 0x100004A94, symSize: 0x14 }
  - { offsetInCU: 0x3777F, offset: 0x3777F, size: 0x8, addend: 0x0, symName: __ZNSt3__117__hash_value_typeINS_12basic_stringIcNS_11char_traitsIcEENS_9allocatorIcEEEEN3tmx7TilesetEE11__get_valueB8ue170006Ev, symObjAddr: 0x2FB0, symBinAddr: 0x100004AA8, symSize: 0x24 }
  - { offsetInCU: 0x377A5, offset: 0x377A5, size: 0x8, addend: 0x0, symName: __ZNSt3__19allocatorINS_11__hash_nodeINS_17__hash_value_typeINS_12basic_stringIcNS_11char_traitsIcEENS0_IcEEEEN3tmx7TilesetEEEPvEEE10deallocateB8ue170006EPSC_m, symObjAddr: 0x300C, symBinAddr: 0x100004B04, symSize: 0x44 }
  - { offsetInCU: 0x377E7, offset: 0x377E7, size: 0x8, addend: 0x0, symName: __ZNSt3__122__compressed_pair_elemINS_16__hash_node_baseIPNS_11__hash_nodeINS_17__hash_value_typeINS_12basic_stringIcNS_11char_traitsIcEENS_9allocatorIcEEEEN3tmx7TilesetEEEPvEEEELi0ELb0EE5__getB8ue170006Ev, symObjAddr: 0x3050, symBinAddr: 0x100004B48, symSize: 0x14 }
  - { offsetInCU: 0x3780D, offset: 0x3780D, size: 0x8, addend: 0x0, symName: __ZNSt3__110unique_ptrIA_PNS_16__hash_node_baseIPNS_11__hash_nodeINS_17__hash_value_typeINS_12basic_stringIcNS_11char_traitsIcEENS_9allocatorIcEEEEN3tmx7TilesetEEEPvEEEENS_25__bucket_list_deallocatorINS7_ISH_EEEEED2B8ue170006Ev, symObjAddr: 0x3064, symBinAddr: 0x100004B5C, symSize: 0x30 }
  - { offsetInCU: 0x37837, offset: 0x37837, size: 0x8, addend: 0x0, symName: __ZNSt3__110unique_ptrIA_PNS_16__hash_node_baseIPNS_11__hash_nodeINS_17__hash_value_typeINS_12basic_stringIcNS_11char_traitsIcEENS_9allocatorIcEEEEN3tmx7TilesetEEEPvEEEENS_25__bucket_list_deallocatorINS7_ISH_EEEEE5resetB8ue170006EDn, symObjAddr: 0x3094, symBinAddr: 0x100004B8C, symSize: 0x6C }
  - { offsetInCU: 0x37878, offset: 0x37878, size: 0x8, addend: 0x0, symName: __ZNSt3__117__compressed_pairIPPNS_16__hash_node_baseIPNS_11__hash_nodeINS_17__hash_value_typeINS_12basic_stringIcNS_11char_traitsIcEENS_9allocatorIcEEEEN3tmx7TilesetEEEPvEEEENS_25__bucket_list_deallocatorINS7_ISH_EEEEE5firstB8ue170006Ev, symObjAddr: 0x3100, symBinAddr: 0x100004BF8, symSize: 0x24 }
  - { offsetInCU: 0x3789E, offset: 0x3789E, size: 0x8, addend: 0x0, symName: __ZNSt3__117__compressed_pairIPPNS_16__hash_node_baseIPNS_11__hash_nodeINS_17__hash_value_typeINS_12basic_stringIcNS_11char_traitsIcEENS_9allocatorIcEEEEN3tmx7TilesetEEEPvEEEENS_25__bucket_list_deallocatorINS7_ISH_EEEEE6secondB8ue170006Ev, symObjAddr: 0x3124, symBinAddr: 0x100004C1C, symSize: 0x28 }
  - { offsetInCU: 0x378C4, offset: 0x378C4, size: 0x8, addend: 0x0, symName: __ZNSt3__125__bucket_list_deallocatorINS_9allocatorIPNS_16__hash_node_baseIPNS_11__hash_nodeINS_17__hash_value_typeINS_12basic_stringIcNS_11char_traitsIcEENS1_IcEEEEN3tmx7TilesetEEEPvEEEEEEEclB8ue170006EPSH_, symObjAddr: 0x314C, symBinAddr: 0x100004C44, symSize: 0x58 }
  - { offsetInCU: 0x378F9, offset: 0x378F9, size: 0x8, addend: 0x0, symName: __ZNSt3__122__compressed_pair_elemIPPNS_16__hash_node_baseIPNS_11__hash_nodeINS_17__hash_value_typeINS_12basic_stringIcNS_11char_traitsIcEENS_9allocatorIcEEEEN3tmx7TilesetEEEPvEEEELi0ELb0EE5__getB8ue170006Ev, symObjAddr: 0x31A4, symBinAddr: 0x100004C9C, symSize: 0x14 }
  - { offsetInCU: 0x3791F, offset: 0x3791F, size: 0x8, addend: 0x0, symName: __ZNSt3__122__compressed_pair_elemINS_25__bucket_list_deallocatorINS_9allocatorIPNS_16__hash_node_baseIPNS_11__hash_nodeINS_17__hash_value_typeINS_12basic_stringIcNS_11char_traitsIcEENS2_IcEEEEN3tmx7TilesetEEEPvEEEEEEEELi1ELb0EE5__getB8ue170006Ev, symObjAddr: 0x31B8, symBinAddr: 0x100004CB0, symSize: 0x14 }
  - { offsetInCU: 0x37945, offset: 0x37945, size: 0x8, addend: 0x0, symName: __ZNSt3__116allocator_traitsINS_9allocatorIPNS_16__hash_node_baseIPNS_11__hash_nodeINS_17__hash_value_typeINS_12basic_stringIcNS_11char_traitsIcEENS1_IcEEEEN3tmx7TilesetEEEPvEEEEEEE10deallocateB8ue170006ERSI_PSH_m, symObjAddr: 0x31CC, symBinAddr: 0x100004CC4, symSize: 0x34 }
  - { offsetInCU: 0x37987, offset: 0x37987, size: 0x8, addend: 0x0, symName: __ZNSt3__125__bucket_list_deallocatorINS_9allocatorIPNS_16__hash_node_baseIPNS_11__hash_nodeINS_17__hash_value_typeINS_12basic_stringIcNS_11char_traitsIcEENS1_IcEEEEN3tmx7TilesetEEEPvEEEEEEE7__allocB8ue170006Ev, symObjAddr: 0x3200, symBinAddr: 0x100004CF8, symSize: 0x24 }
  - { offsetInCU: 0x379AD, offset: 0x379AD, size: 0x8, addend: 0x0, symName: __ZNSt3__125__bucket_list_deallocatorINS_9allocatorIPNS_16__hash_node_baseIPNS_11__hash_nodeINS_17__hash_value_typeINS_12basic_stringIcNS_11char_traitsIcEENS1_IcEEEEN3tmx7TilesetEEEPvEEEEEEE4sizeB8ue170006Ev, symObjAddr: 0x3224, symBinAddr: 0x100004D1C, symSize: 0x24 }
  - { offsetInCU: 0x379D3, offset: 0x379D3, size: 0x8, addend: 0x0, symName: __ZNSt3__19allocatorIPNS_16__hash_node_baseIPNS_11__hash_nodeINS_17__hash_value_typeINS_12basic_stringIcNS_11char_traitsIcEENS0_IcEEEEN3tmx7TilesetEEEPvEEEEE10deallocateB8ue170006EPSG_m, symObjAddr: 0x3248, symBinAddr: 0x100004D40, symSize: 0x40 }
  - { offsetInCU: 0x37A15, offset: 0x37A15, size: 0x8, addend: 0x0, symName: __ZNSt3__117__compressed_pairImNS_9allocatorIPNS_16__hash_node_baseIPNS_11__hash_nodeINS_17__hash_value_typeINS_12basic_stringIcNS_11char_traitsIcEENS1_IcEEEEN3tmx7TilesetEEEPvEEEEEEE6secondB8ue170006Ev, symObjAddr: 0x3288, symBinAddr: 0x100004D80, symSize: 0x24 }
  - { offsetInCU: 0x37A3B, offset: 0x37A3B, size: 0x8, addend: 0x0, symName: __ZNSt3__122__compressed_pair_elemINS_9allocatorIPNS_16__hash_node_baseIPNS_11__hash_nodeINS_17__hash_value_typeINS_12basic_stringIcNS_11char_traitsIcEENS1_IcEEEEN3tmx7TilesetEEEPvEEEEEELi1ELb1EE5__getB8ue170006Ev, symObjAddr: 0x32AC, symBinAddr: 0x100004DA4, symSize: 0x14 }
  - { offsetInCU: 0x37A61, offset: 0x37A61, size: 0x8, addend: 0x0, symName: __ZNSt3__117__compressed_pairImNS_9allocatorIPNS_16__hash_node_baseIPNS_11__hash_nodeINS_17__hash_value_typeINS_12basic_stringIcNS_11char_traitsIcEENS1_IcEEEEN3tmx7TilesetEEEPvEEEEEEE5firstB8ue170006Ev, symObjAddr: 0x32C0, symBinAddr: 0x100004DB8, symSize: 0x24 }
  - { offsetInCU: 0x37A87, offset: 0x37A87, size: 0x8, addend: 0x0, symName: __ZNSt3__122__compressed_pair_elemImLi0ELb0EE5__getB8ue170006Ev, symObjAddr: 0x32E4, symBinAddr: 0x100004DDC, symSize: 0x14 }
  - { offsetInCU: 0x37AAD, offset: 0x37AAD, size: 0x8, addend: 0x0, symName: __ZNSt3__113unordered_mapINS_12basic_stringIcNS_11char_traitsIcEENS_9allocatorIcEEEEN3tmx6ObjectENS_4hashIS6_EENS_8equal_toIS6_EENS4_INS_4pairIKS6_S8_EEEEED2B8ue170006Ev, symObjAddr: 0x32F8, symBinAddr: 0x100004DF0, symSize: 0x2C }
  - { offsetInCU: 0x37AD7, offset: 0x37AD7, size: 0x8, addend: 0x0, symName: __ZNSt3__112__hash_tableINS_17__hash_value_typeINS_12basic_stringIcNS_11char_traitsIcEENS_9allocatorIcEEEEN3tmx6ObjectEEENS_22__unordered_map_hasherIS7_SA_NS_4hashIS7_EENS_8equal_toIS7_EELb1EEENS_21__unordered_map_equalIS7_SA_SF_SD_Lb1EEENS5_ISA_EEED1Ev, symObjAddr: 0x3324, symBinAddr: 0x100004E1C, symSize: 0x2C }
  - { offsetInCU: 0x37B03, offset: 0x37B03, size: 0x8, addend: 0x0, symName: __ZNSt3__112__hash_tableINS_17__hash_value_typeINS_12basic_stringIcNS_11char_traitsIcEENS_9allocatorIcEEEEN3tmx6ObjectEEENS_22__unordered_map_hasherIS7_SA_NS_4hashIS7_EENS_8equal_toIS7_EELb1EEENS_21__unordered_map_equalIS7_SA_SF_SD_Lb1EEENS5_ISA_EEED2Ev, symObjAddr: 0x3350, symBinAddr: 0x100004E48, symSize: 0x48 }
  - { offsetInCU: 0x37B2F, offset: 0x37B2F, size: 0x8, addend: 0x0, symName: __ZNSt3__112__hash_tableINS_17__hash_value_typeINS_12basic_stringIcNS_11char_traitsIcEENS_9allocatorIcEEEEN3tmx6ObjectEEENS_22__unordered_map_hasherIS7_SA_NS_4hashIS7_EENS_8equal_toIS7_EELb1EEENS_21__unordered_map_equalIS7_SA_SF_SD_Lb1EEENS5_ISA_EEE17__deallocate_nodeEPNS_16__hash_node_baseIPNS_11__hash_nodeISA_PvEEEE, symObjAddr: 0x3398, symBinAddr: 0x100004E90, symSize: 0xA8 }
  - { offsetInCU: 0x37B9A, offset: 0x37B9A, size: 0x8, addend: 0x0, symName: __ZNSt3__117__compressed_pairINS_16__hash_node_baseIPNS_11__hash_nodeINS_17__hash_value_typeINS_12basic_stringIcNS_11char_traitsIcEENS_9allocatorIcEEEEN3tmx6ObjectEEEPvEEEENS7_ISE_EEE5firstB8ue170006Ev, symObjAddr: 0x3440, symBinAddr: 0x100004F38, symSize: 0x24 }
  - { offsetInCU: 0x37BC0, offset: 0x37BC0, size: 0x8, addend: 0x0, symName: __ZNSt3__110unique_ptrIA_PNS_16__hash_node_baseIPNS_11__hash_nodeINS_17__hash_value_typeINS_12basic_stringIcNS_11char_traitsIcEENS_9allocatorIcEEEEN3tmx6ObjectEEEPvEEEENS_25__bucket_list_deallocatorINS7_ISH_EEEEED1B8ue170006Ev, symObjAddr: 0x3464, symBinAddr: 0x100004F5C, symSize: 0x2C }
  - { offsetInCU: 0x37BEA, offset: 0x37BEA, size: 0x8, addend: 0x0, symName: __ZNSt3__112__hash_tableINS_17__hash_value_typeINS_12basic_stringIcNS_11char_traitsIcEENS_9allocatorIcEEEEN3tmx6ObjectEEENS_22__unordered_map_hasherIS7_SA_NS_4hashIS7_EENS_8equal_toIS7_EELb1EEENS_21__unordered_map_equalIS7_SA_SF_SD_Lb1EEENS5_ISA_EEE12__node_allocB8ue170006Ev, symObjAddr: 0x3490, symBinAddr: 0x100004F88, symSize: 0x28 }
  - { offsetInCU: 0x37C10, offset: 0x37C10, size: 0x8, addend: 0x0, symName: __ZNSt3__116__hash_node_baseIPNS_11__hash_nodeINS_17__hash_value_typeINS_12basic_stringIcNS_11char_traitsIcEENS_9allocatorIcEEEEN3tmx6ObjectEEEPvEEE8__upcastB8ue170006Ev, symObjAddr: 0x34B8, symBinAddr: 0x100004FB0, symSize: 0x24 }
  - { offsetInCU: 0x37C3B, offset: 0x37C3B, size: 0x8, addend: 0x0, symName: __ZNSt3__116allocator_traitsINS_9allocatorINS_11__hash_nodeINS_17__hash_value_typeINS_12basic_stringIcNS_11char_traitsIcEENS1_IcEEEEN3tmx6ObjectEEEPvEEEEE7destroyB8ue170006INS_4pairIKS8_SA_EEvvEEvRSE_PT_, symObjAddr: 0x34DC, symBinAddr: 0x100004FD4, symSize: 0x28 }
  - { offsetInCU: 0x37C76, offset: 0x37C76, size: 0x8, addend: 0x0, symName: __ZNSt3__122__hash_key_value_typesINS_17__hash_value_typeINS_12basic_stringIcNS_11char_traitsIcEENS_9allocatorIcEEEEN3tmx6ObjectEEEE9__get_ptrB8ue170006ERSA_, symObjAddr: 0x3504, symBinAddr: 0x100004FFC, symSize: 0x24 }
  - { offsetInCU: 0x37C99, offset: 0x37C99, size: 0x8, addend: 0x0, symName: __ZNSt3__116allocator_traitsINS_9allocatorINS_11__hash_nodeINS_17__hash_value_typeINS_12basic_stringIcNS_11char_traitsIcEENS1_IcEEEEN3tmx6ObjectEEEPvEEEEE10deallocateB8ue170006ERSE_PSD_m, symObjAddr: 0x3528, symBinAddr: 0x100005020, symSize: 0x34 }
  - { offsetInCU: 0x37CDB, offset: 0x37CDB, size: 0x8, addend: 0x0, symName: __ZNSt3__117__compressed_pairINS_16__hash_node_baseIPNS_11__hash_nodeINS_17__hash_value_typeINS_12basic_stringIcNS_11char_traitsIcEENS_9allocatorIcEEEEN3tmx6ObjectEEEPvEEEENS7_ISE_EEE6secondB8ue170006Ev, symObjAddr: 0x355C, symBinAddr: 0x100005054, symSize: 0x24 }
  - { offsetInCU: 0x37D01, offset: 0x37D01, size: 0x8, addend: 0x0, symName: __ZNSt3__122__compressed_pair_elemINS_9allocatorINS_11__hash_nodeINS_17__hash_value_typeINS_12basic_stringIcNS_11char_traitsIcEENS1_IcEEEEN3tmx6ObjectEEEPvEEEELi1ELb1EE5__getB8ue170006Ev, symObjAddr: 0x3580, symBinAddr: 0x100005078, symSize: 0x14 }
  - { offsetInCU: 0x37D27, offset: 0x37D27, size: 0x8, addend: 0x0, symName: __ZNSt3__114pointer_traitsIPNS_16__hash_node_baseIPNS_11__hash_nodeINS_17__hash_value_typeINS_12basic_stringIcNS_11char_traitsIcEENS_9allocatorIcEEEEN3tmx6ObjectEEEPvEEEEE10pointer_toB8ue170006ERSG_, symObjAddr: 0x3594, symBinAddr: 0x10000508C, symSize: 0x14 }
  - { offsetInCU: 0x37D4A, offset: 0x37D4A, size: 0x8, addend: 0x0, symName: __ZNSt3__14pairIKNS_12basic_stringIcNS_11char_traitsIcEENS_9allocatorIcEEEEN3tmx6ObjectEED1Ev, symObjAddr: 0x35A8, symBinAddr: 0x1000050A0, symSize: 0x2C }
  - { offsetInCU: 0x37D76, offset: 0x37D76, size: 0x8, addend: 0x0, symName: __ZNSt3__14pairIKNS_12basic_stringIcNS_11char_traitsIcEENS_9allocatorIcEEEEN3tmx6ObjectEED2Ev, symObjAddr: 0x35D4, symBinAddr: 0x1000050CC, symSize: 0x38 }
  - { offsetInCU: 0x37DA2, offset: 0x37DA2, size: 0x8, addend: 0x0, symName: __ZNSt3__117__hash_value_typeINS_12basic_stringIcNS_11char_traitsIcEENS_9allocatorIcEEEEN3tmx6ObjectEE11__get_valueB8ue170006Ev, symObjAddr: 0x360C, symBinAddr: 0x100005104, symSize: 0x24 }
  - { offsetInCU: 0x37DC8, offset: 0x37DC8, size: 0x8, addend: 0x0, symName: __ZNSt3__19allocatorINS_11__hash_nodeINS_17__hash_value_typeINS_12basic_stringIcNS_11char_traitsIcEENS0_IcEEEEN3tmx6ObjectEEEPvEEE10deallocateB8ue170006EPSC_m, symObjAddr: 0x3668, symBinAddr: 0x100005160, symSize: 0x44 }
  - { offsetInCU: 0x37E0A, offset: 0x37E0A, size: 0x8, addend: 0x0, symName: __ZNSt3__122__compressed_pair_elemINS_16__hash_node_baseIPNS_11__hash_nodeINS_17__hash_value_typeINS_12basic_stringIcNS_11char_traitsIcEENS_9allocatorIcEEEEN3tmx6ObjectEEEPvEEEELi0ELb0EE5__getB8ue170006Ev, symObjAddr: 0x36AC, symBinAddr: 0x1000051A4, symSize: 0x14 }
  - { offsetInCU: 0x37E30, offset: 0x37E30, size: 0x8, addend: 0x0, symName: __ZNSt3__110unique_ptrIA_PNS_16__hash_node_baseIPNS_11__hash_nodeINS_17__hash_value_typeINS_12basic_stringIcNS_11char_traitsIcEENS_9allocatorIcEEEEN3tmx6ObjectEEEPvEEEENS_25__bucket_list_deallocatorINS7_ISH_EEEEED2B8ue170006Ev, symObjAddr: 0x36C0, symBinAddr: 0x1000051B8, symSize: 0x30 }
  - { offsetInCU: 0x37E5A, offset: 0x37E5A, size: 0x8, addend: 0x0, symName: __ZNSt3__110unique_ptrIA_PNS_16__hash_node_baseIPNS_11__hash_nodeINS_17__hash_value_typeINS_12basic_stringIcNS_11char_traitsIcEENS_9allocatorIcEEEEN3tmx6ObjectEEEPvEEEENS_25__bucket_list_deallocatorINS7_ISH_EEEEE5resetB8ue170006EDn, symObjAddr: 0x36F0, symBinAddr: 0x1000051E8, symSize: 0x6C }
  - { offsetInCU: 0x37E9B, offset: 0x37E9B, size: 0x8, addend: 0x0, symName: __ZNSt3__117__compressed_pairIPPNS_16__hash_node_baseIPNS_11__hash_nodeINS_17__hash_value_typeINS_12basic_stringIcNS_11char_traitsIcEENS_9allocatorIcEEEEN3tmx6ObjectEEEPvEEEENS_25__bucket_list_deallocatorINS7_ISH_EEEEE5firstB8ue170006Ev, symObjAddr: 0x375C, symBinAddr: 0x100005254, symSize: 0x24 }
  - { offsetInCU: 0x37EC1, offset: 0x37EC1, size: 0x8, addend: 0x0, symName: __ZNSt3__117__compressed_pairIPPNS_16__hash_node_baseIPNS_11__hash_nodeINS_17__hash_value_typeINS_12basic_stringIcNS_11char_traitsIcEENS_9allocatorIcEEEEN3tmx6ObjectEEEPvEEEENS_25__bucket_list_deallocatorINS7_ISH_EEEEE6secondB8ue170006Ev, symObjAddr: 0x3780, symBinAddr: 0x100005278, symSize: 0x28 }
  - { offsetInCU: 0x37EE7, offset: 0x37EE7, size: 0x8, addend: 0x0, symName: __ZNSt3__125__bucket_list_deallocatorINS_9allocatorIPNS_16__hash_node_baseIPNS_11__hash_nodeINS_17__hash_value_typeINS_12basic_stringIcNS_11char_traitsIcEENS1_IcEEEEN3tmx6ObjectEEEPvEEEEEEEclB8ue170006EPSH_, symObjAddr: 0x37A8, symBinAddr: 0x1000052A0, symSize: 0x58 }
  - { offsetInCU: 0x37F1C, offset: 0x37F1C, size: 0x8, addend: 0x0, symName: __ZNSt3__122__compressed_pair_elemIPPNS_16__hash_node_baseIPNS_11__hash_nodeINS_17__hash_value_typeINS_12basic_stringIcNS_11char_traitsIcEENS_9allocatorIcEEEEN3tmx6ObjectEEEPvEEEELi0ELb0EE5__getB8ue170006Ev, symObjAddr: 0x3800, symBinAddr: 0x1000052F8, symSize: 0x14 }
  - { offsetInCU: 0x37F42, offset: 0x37F42, size: 0x8, addend: 0x0, symName: __ZNSt3__122__compressed_pair_elemINS_25__bucket_list_deallocatorINS_9allocatorIPNS_16__hash_node_baseIPNS_11__hash_nodeINS_17__hash_value_typeINS_12basic_stringIcNS_11char_traitsIcEENS2_IcEEEEN3tmx6ObjectEEEPvEEEEEEEELi1ELb0EE5__getB8ue170006Ev, symObjAddr: 0x3814, symBinAddr: 0x10000530C, symSize: 0x14 }
  - { offsetInCU: 0x37F68, offset: 0x37F68, size: 0x8, addend: 0x0, symName: __ZNSt3__116allocator_traitsINS_9allocatorIPNS_16__hash_node_baseIPNS_11__hash_nodeINS_17__hash_value_typeINS_12basic_stringIcNS_11char_traitsIcEENS1_IcEEEEN3tmx6ObjectEEEPvEEEEEEE10deallocateB8ue170006ERSI_PSH_m, symObjAddr: 0x3828, symBinAddr: 0x100005320, symSize: 0x34 }
  - { offsetInCU: 0x37FAA, offset: 0x37FAA, size: 0x8, addend: 0x0, symName: __ZNSt3__125__bucket_list_deallocatorINS_9allocatorIPNS_16__hash_node_baseIPNS_11__hash_nodeINS_17__hash_value_typeINS_12basic_stringIcNS_11char_traitsIcEENS1_IcEEEEN3tmx6ObjectEEEPvEEEEEEE7__allocB8ue170006Ev, symObjAddr: 0x385C, symBinAddr: 0x100005354, symSize: 0x24 }
  - { offsetInCU: 0x37FD0, offset: 0x37FD0, size: 0x8, addend: 0x0, symName: __ZNSt3__125__bucket_list_deallocatorINS_9allocatorIPNS_16__hash_node_baseIPNS_11__hash_nodeINS_17__hash_value_typeINS_12basic_stringIcNS_11char_traitsIcEENS1_IcEEEEN3tmx6ObjectEEEPvEEEEEEE4sizeB8ue170006Ev, symObjAddr: 0x3880, symBinAddr: 0x100005378, symSize: 0x24 }
  - { offsetInCU: 0x37FF6, offset: 0x37FF6, size: 0x8, addend: 0x0, symName: __ZNSt3__19allocatorIPNS_16__hash_node_baseIPNS_11__hash_nodeINS_17__hash_value_typeINS_12basic_stringIcNS_11char_traitsIcEENS0_IcEEEEN3tmx6ObjectEEEPvEEEEE10deallocateB8ue170006EPSG_m, symObjAddr: 0x38A4, symBinAddr: 0x10000539C, symSize: 0x40 }
  - { offsetInCU: 0x38038, offset: 0x38038, size: 0x8, addend: 0x0, symName: __ZNSt3__117__compressed_pairImNS_9allocatorIPNS_16__hash_node_baseIPNS_11__hash_nodeINS_17__hash_value_typeINS_12basic_stringIcNS_11char_traitsIcEENS1_IcEEEEN3tmx6ObjectEEEPvEEEEEEE6secondB8ue170006Ev, symObjAddr: 0x38E4, symBinAddr: 0x1000053DC, symSize: 0x24 }
  - { offsetInCU: 0x3805E, offset: 0x3805E, size: 0x8, addend: 0x0, symName: __ZNSt3__122__compressed_pair_elemINS_9allocatorIPNS_16__hash_node_baseIPNS_11__hash_nodeINS_17__hash_value_typeINS_12basic_stringIcNS_11char_traitsIcEENS1_IcEEEEN3tmx6ObjectEEEPvEEEEEELi1ELb1EE5__getB8ue170006Ev, symObjAddr: 0x3908, symBinAddr: 0x100005400, symSize: 0x14 }
  - { offsetInCU: 0x38084, offset: 0x38084, size: 0x8, addend: 0x0, symName: __ZNSt3__117__compressed_pairImNS_9allocatorIPNS_16__hash_node_baseIPNS_11__hash_nodeINS_17__hash_value_typeINS_12basic_stringIcNS_11char_traitsIcEENS1_IcEEEEN3tmx6ObjectEEEPvEEEEEEE5firstB8ue170006Ev, symObjAddr: 0x391C, symBinAddr: 0x100005414, symSize: 0x24 }
  - { offsetInCU: 0x380AA, offset: 0x380AA, size: 0x8, addend: 0x0, symName: __ZNSt3__13mapIjN3tmx7Tileset4TileENS_4lessIjEENS_9allocatorINS_4pairIKjS3_EEEEED2B8ue170006Ev, symObjAddr: 0x3940, symBinAddr: 0x100005438, symSize: 0x2C }
  - { offsetInCU: 0x380D4, offset: 0x380D4, size: 0x8, addend: 0x0, symName: __ZNSt3__16__treeINS_12__value_typeIjN3tmx7Tileset4TileEEENS_19__map_value_compareIjS5_NS_4lessIjEELb1EEENS_9allocatorIS5_EEED1Ev, symObjAddr: 0x396C, symBinAddr: 0x100005464, symSize: 0x2C }
  - { offsetInCU: 0x38100, offset: 0x38100, size: 0x8, addend: 0x0, symName: __ZNSt3__16__treeINS_12__value_typeIjN3tmx7Tileset4TileEEENS_19__map_value_compareIjS5_NS_4lessIjEELb1EEENS_9allocatorIS5_EEED2Ev, symObjAddr: 0x3998, symBinAddr: 0x100005490, symSize: 0x38 }
  - { offsetInCU: 0x3812C, offset: 0x3812C, size: 0x8, addend: 0x0, symName: __ZNSt3__16__treeINS_12__value_typeIjN3tmx7Tileset4TileEEENS_19__map_value_compareIjS5_NS_4lessIjEELb1EEENS_9allocatorIS5_EEE7destroyEPNS_11__tree_nodeIS5_PvEE, symObjAddr: 0x39D0, symBinAddr: 0x1000054C8, symSize: 0xAC }
  - { offsetInCU: 0x38179, offset: 0x38179, size: 0x8, addend: 0x0, symName: __ZNKSt3__16__treeINS_12__value_typeIjN3tmx7Tileset4TileEEENS_19__map_value_compareIjS5_NS_4lessIjEELb1EEENS_9allocatorIS5_EEE6__rootB8ue170006Ev, symObjAddr: 0x3A7C, symBinAddr: 0x100005574, symSize: 0x28 }
  - { offsetInCU: 0x3819F, offset: 0x3819F, size: 0x8, addend: 0x0, symName: __ZNSt3__16__treeINS_12__value_typeIjN3tmx7Tileset4TileEEENS_19__map_value_compareIjS5_NS_4lessIjEELb1EEENS_9allocatorIS5_EEE12__node_allocB8ue170006Ev, symObjAddr: 0x3AA4, symBinAddr: 0x10000559C, symSize: 0x28 }
  - { offsetInCU: 0x381CA, offset: 0x381CA, size: 0x8, addend: 0x0, symName: __ZNSt3__116allocator_traitsINS_9allocatorINS_11__tree_nodeINS_12__value_typeIjN3tmx7Tileset4TileEEEPvEEEEE7destroyB8ue170006INS_4pairIKjS6_EEvvEEvRSA_PT_, symObjAddr: 0x3ACC, symBinAddr: 0x1000055C4, symSize: 0x28 }
  - { offsetInCU: 0x38205, offset: 0x38205, size: 0x8, addend: 0x0, symName: __ZNSt3__122__tree_key_value_typesINS_12__value_typeIjN3tmx7Tileset4TileEEEE9__get_ptrB8ue170006ERS5_, symObjAddr: 0x3AF4, symBinAddr: 0x1000055EC, symSize: 0x24 }
  - { offsetInCU: 0x38229, offset: 0x38229, size: 0x8, addend: 0x0, symName: __ZNSt3__116allocator_traitsINS_9allocatorINS_11__tree_nodeINS_12__value_typeIjN3tmx7Tileset4TileEEEPvEEEEE10deallocateB8ue170006ERSA_PS9_m, symObjAddr: 0x3B18, symBinAddr: 0x100005610, symSize: 0x34 }
  - { offsetInCU: 0x3826B, offset: 0x3826B, size: 0x8, addend: 0x0, symName: __ZNSt3__117__compressed_pairINS_15__tree_end_nodeIPNS_16__tree_node_baseIPvEEEENS_9allocatorINS_11__tree_nodeINS_12__value_typeIjN3tmx7Tileset4TileEEES3_EEEEE6secondB8ue170006Ev, symObjAddr: 0x3B4C, symBinAddr: 0x100005644, symSize: 0x24 }
  - { offsetInCU: 0x38291, offset: 0x38291, size: 0x8, addend: 0x0, symName: __ZNSt3__122__compressed_pair_elemINS_9allocatorINS_11__tree_nodeINS_12__value_typeIjN3tmx7Tileset4TileEEEPvEEEELi1ELb1EE5__getB8ue170006Ev, symObjAddr: 0x3B70, symBinAddr: 0x100005668, symSize: 0x14 }
  - { offsetInCU: 0x382B7, offset: 0x382B7, size: 0x8, addend: 0x0, symName: __ZNSt3__14pairIKjN3tmx7Tileset4TileEED1Ev, symObjAddr: 0x3B84, symBinAddr: 0x10000567C, symSize: 0x2C }
  - { offsetInCU: 0x382E3, offset: 0x382E3, size: 0x8, addend: 0x0, symName: __ZNSt3__14pairIKjN3tmx7Tileset4TileEED2Ev, symObjAddr: 0x3BB0, symBinAddr: 0x1000056A8, symSize: 0x30 }
  - { offsetInCU: 0x3830F, offset: 0x3830F, size: 0x8, addend: 0x0, symName: __ZNSt3__112__value_typeIjN3tmx7Tileset4TileEE11__get_valueB8ue170006Ev, symObjAddr: 0x3BE0, symBinAddr: 0x1000056D8, symSize: 0x24 }
  - { offsetInCU: 0x38335, offset: 0x38335, size: 0x8, addend: 0x0, symName: __ZNSt3__19allocatorINS_11__tree_nodeINS_12__value_typeIjN3tmx7Tileset4TileEEEPvEEE10deallocateB8ue170006EPS8_m, symObjAddr: 0x3C3C, symBinAddr: 0x100005734, symSize: 0x44 }
  - { offsetInCU: 0x38377, offset: 0x38377, size: 0x8, addend: 0x0, symName: __ZNKSt3__16__treeINS_12__value_typeIjN3tmx7Tileset4TileEEENS_19__map_value_compareIjS5_NS_4lessIjEELb1EEENS_9allocatorIS5_EEE10__end_nodeB8ue170006Ev, symObjAddr: 0x3C80, symBinAddr: 0x100005778, symSize: 0x2C }
  - { offsetInCU: 0x3839D, offset: 0x3839D, size: 0x8, addend: 0x0, symName: __ZNSt3__114pointer_traitsIPNS_15__tree_end_nodeIPNS_16__tree_node_baseIPvEEEEE10pointer_toB8ue170006ERS6_, symObjAddr: 0x3CAC, symBinAddr: 0x1000057A4, symSize: 0x14 }
  - { offsetInCU: 0x383C0, offset: 0x383C0, size: 0x8, addend: 0x0, symName: __ZNKSt3__117__compressed_pairINS_15__tree_end_nodeIPNS_16__tree_node_baseIPvEEEENS_9allocatorINS_11__tree_nodeINS_12__value_typeIjN3tmx7Tileset4TileEEES3_EEEEE5firstB8ue170006Ev, symObjAddr: 0x3CC0, symBinAddr: 0x1000057B8, symSize: 0x24 }
  - { offsetInCU: 0x383E6, offset: 0x383E6, size: 0x8, addend: 0x0, symName: __ZNKSt3__122__compressed_pair_elemINS_15__tree_end_nodeIPNS_16__tree_node_baseIPvEEEELi0ELb0EE5__getB8ue170006Ev, symObjAddr: 0x3CE4, symBinAddr: 0x1000057DC, symSize: 0x14 }
  - { offsetInCU: 0x3840C, offset: 0x3840C, size: 0x8, addend: 0x0, symName: __ZNSt3__16vectorIN3tmx8PropertyENS_9allocatorIS2_EEED2B8ue170006Ev, symObjAddr: 0x3CF8, symBinAddr: 0x1000057F0, symSize: 0x44 }
  - { offsetInCU: 0x38436, offset: 0x38436, size: 0x8, addend: 0x0, symName: __ZNSt3__16vectorIN3tmx8PropertyENS_9allocatorIS2_EEE16__destroy_vectorC1B8ue170006ERS5_, symObjAddr: 0x3D3C, symBinAddr: 0x100005834, symSize: 0x34 }
  - { offsetInCU: 0x3846F, offset: 0x3846F, size: 0x8, addend: 0x0, symName: __ZNSt3__16vectorIN3tmx8PropertyENS_9allocatorIS2_EEE16__destroy_vectorclB8ue170006Ev, symObjAddr: 0x3D70, symBinAddr: 0x100005868, symSize: 0x90 }
  - { offsetInCU: 0x38495, offset: 0x38495, size: 0x8, addend: 0x0, symName: __ZNSt3__16vectorIN3tmx8PropertyENS_9allocatorIS2_EEE16__destroy_vectorC2B8ue170006ERS5_, symObjAddr: 0x3E00, symBinAddr: 0x1000058F8, symSize: 0x20 }
  - { offsetInCU: 0x384CE, offset: 0x384CE, size: 0x8, addend: 0x0, symName: __ZNSt3__16vectorIN3tmx8PropertyENS_9allocatorIS2_EEE7__clearB8ue170006Ev, symObjAddr: 0x3E20, symBinAddr: 0x100005918, symSize: 0x28 }
  - { offsetInCU: 0x384F4, offset: 0x384F4, size: 0x8, addend: 0x0, symName: __ZNKSt3__16vectorIN3tmx8PropertyENS_9allocatorIS2_EEE17__annotate_deleteB8ue170006Ev, symObjAddr: 0x3E48, symBinAddr: 0x100005940, symSize: 0xD4 }
  - { offsetInCU: 0x3851A, offset: 0x3851A, size: 0x8, addend: 0x0, symName: __ZNSt3__116allocator_traitsINS_9allocatorIN3tmx8PropertyEEEE10deallocateB8ue170006ERS4_PS3_m, symObjAddr: 0x3F1C, symBinAddr: 0x100005A14, symSize: 0x34 }
  - { offsetInCU: 0x3855C, offset: 0x3855C, size: 0x8, addend: 0x0, symName: __ZNSt3__16vectorIN3tmx8PropertyENS_9allocatorIS2_EEE7__allocB8ue170006Ev, symObjAddr: 0x3F50, symBinAddr: 0x100005A48, symSize: 0x28 }
  - { offsetInCU: 0x38582, offset: 0x38582, size: 0x8, addend: 0x0, symName: __ZNKSt3__16vectorIN3tmx8PropertyENS_9allocatorIS2_EEE8capacityB8ue170006Ev, symObjAddr: 0x3F78, symBinAddr: 0x100005A70, symSize: 0x40 }
  - { offsetInCU: 0x385A8, offset: 0x385A8, size: 0x8, addend: 0x0, symName: __ZNSt3__16vectorIN3tmx8PropertyENS_9allocatorIS2_EEE22__base_destruct_at_endB8ue170006EPS2_, symObjAddr: 0x3FB8, symBinAddr: 0x100005AB0, symSize: 0x8C }
  - { offsetInCU: 0x385EC, offset: 0x385EC, size: 0x8, addend: 0x0, symName: __ZNSt3__116allocator_traitsINS_9allocatorIN3tmx8PropertyEEEE7destroyB8ue170006IS3_vEEvRS4_PT_, symObjAddr: 0x4044, symBinAddr: 0x100005B3C, symSize: 0x2C }
  - { offsetInCU: 0x38629, offset: 0x38629, size: 0x8, addend: 0x0, symName: __ZNSt3__19allocatorIN3tmx8PropertyEE7destroyB8ue170006EPS2_, symObjAddr: 0x4084, symBinAddr: 0x100005B7C, symSize: 0x28 }
  - { offsetInCU: 0x3865D, offset: 0x3865D, size: 0x8, addend: 0x0, symName: __ZN3tmx8PropertyD1Ev, symObjAddr: 0x40AC, symBinAddr: 0x100005BA4, symSize: 0x2C }
  - { offsetInCU: 0x38689, offset: 0x38689, size: 0x8, addend: 0x0, symName: __ZN3tmx8PropertyD2Ev, symObjAddr: 0x40D8, symBinAddr: 0x100005BD0, symSize: 0x54 }
  - { offsetInCU: 0x386B5, offset: 0x386B5, size: 0x8, addend: 0x0, symName: __ZNKSt3__16vectorIN3tmx8PropertyENS_9allocatorIS2_EEE31__annotate_contiguous_containerB8ue170006EPKvS7_S7_S7_, symObjAddr: 0x412C, symBinAddr: 0x100005C24, symSize: 0x20 }
  - { offsetInCU: 0x3870B, offset: 0x3870B, size: 0x8, addend: 0x0, symName: __ZNKSt3__16vectorIN3tmx8PropertyENS_9allocatorIS2_EEE4dataB8ue170006Ev, symObjAddr: 0x414C, symBinAddr: 0x100005C44, symSize: 0x28 }
  - { offsetInCU: 0x38731, offset: 0x38731, size: 0x8, addend: 0x0, symName: __ZNKSt3__16vectorIN3tmx8PropertyENS_9allocatorIS2_EEE4sizeB8ue170006Ev, symObjAddr: 0x4174, symBinAddr: 0x100005C6C, symSize: 0x28 }
  - { offsetInCU: 0x38757, offset: 0x38757, size: 0x8, addend: 0x0, symName: __ZNSt3__19allocatorIN3tmx8PropertyEE10deallocateB8ue170006EPS2_m, symObjAddr: 0x419C, symBinAddr: 0x100005C94, symSize: 0x44 }
  - { offsetInCU: 0x38799, offset: 0x38799, size: 0x8, addend: 0x0, symName: __ZNSt3__117__compressed_pairIPN3tmx8PropertyENS_9allocatorIS2_EEE6secondB8ue170006Ev, symObjAddr: 0x41E0, symBinAddr: 0x100005CD8, symSize: 0x24 }
  - { offsetInCU: 0x387BF, offset: 0x387BF, size: 0x8, addend: 0x0, symName: __ZNSt3__122__compressed_pair_elemINS_9allocatorIN3tmx8PropertyEEELi1ELb1EE5__getB8ue170006Ev, symObjAddr: 0x4204, symBinAddr: 0x100005CFC, symSize: 0x14 }
  - { offsetInCU: 0x387E5, offset: 0x387E5, size: 0x8, addend: 0x0, symName: __ZNKSt3__16vectorIN3tmx8PropertyENS_9allocatorIS2_EEE9__end_capB8ue170006Ev, symObjAddr: 0x4218, symBinAddr: 0x100005D10, symSize: 0x28 }
  - { offsetInCU: 0x3880B, offset: 0x3880B, size: 0x8, addend: 0x0, symName: __ZNKSt3__117__compressed_pairIPN3tmx8PropertyENS_9allocatorIS2_EEE5firstB8ue170006Ev, symObjAddr: 0x4240, symBinAddr: 0x100005D38, symSize: 0x24 }
  - { offsetInCU: 0x38831, offset: 0x38831, size: 0x8, addend: 0x0, symName: __ZNKSt3__122__compressed_pair_elemIPN3tmx8PropertyELi0ELb0EE5__getB8ue170006Ev, symObjAddr: 0x4264, symBinAddr: 0x100005D5C, symSize: 0x14 }
  - { offsetInCU: 0x38857, offset: 0x38857, size: 0x8, addend: 0x0, symName: __ZNSt3__16vectorINS_10unique_ptrIN3tmx5LayerENS_14default_deleteIS3_EEEENS_9allocatorIS6_EEED2B8ue170006Ev, symObjAddr: 0x4278, symBinAddr: 0x100005D70, symSize: 0x44 }
  - { offsetInCU: 0x38881, offset: 0x38881, size: 0x8, addend: 0x0, symName: __ZNSt3__16vectorINS_10unique_ptrIN3tmx5LayerENS_14default_deleteIS3_EEEENS_9allocatorIS6_EEE16__destroy_vectorC1B8ue170006ERS9_, symObjAddr: 0x42BC, symBinAddr: 0x100005DB4, symSize: 0x34 }
  - { offsetInCU: 0x388BA, offset: 0x388BA, size: 0x8, addend: 0x0, symName: __ZNSt3__16vectorINS_10unique_ptrIN3tmx5LayerENS_14default_deleteIS3_EEEENS_9allocatorIS6_EEE16__destroy_vectorclB8ue170006Ev, symObjAddr: 0x42F0, symBinAddr: 0x100005DE8, symSize: 0x90 }
  - { offsetInCU: 0x388E0, offset: 0x388E0, size: 0x8, addend: 0x0, symName: __ZNSt3__16vectorINS_10unique_ptrIN3tmx5LayerENS_14default_deleteIS3_EEEENS_9allocatorIS6_EEE16__destroy_vectorC2B8ue170006ERS9_, symObjAddr: 0x4380, symBinAddr: 0x100005E78, symSize: 0x20 }
  - { offsetInCU: 0x38919, offset: 0x38919, size: 0x8, addend: 0x0, symName: __ZNSt3__16vectorINS_10unique_ptrIN3tmx5LayerENS_14default_deleteIS3_EEEENS_9allocatorIS6_EEE7__clearB8ue170006Ev, symObjAddr: 0x43A0, symBinAddr: 0x100005E98, symSize: 0x28 }
  - { offsetInCU: 0x3893F, offset: 0x3893F, size: 0x8, addend: 0x0, symName: __ZNKSt3__16vectorINS_10unique_ptrIN3tmx5LayerENS_14default_deleteIS3_EEEENS_9allocatorIS6_EEE17__annotate_deleteB8ue170006Ev, symObjAddr: 0x43C8, symBinAddr: 0x100005EC0, symSize: 0xB8 }
  - { offsetInCU: 0x38965, offset: 0x38965, size: 0x8, addend: 0x0, symName: __ZNSt3__116allocator_traitsINS_9allocatorINS_10unique_ptrIN3tmx5LayerENS_14default_deleteIS4_EEEEEEE10deallocateB8ue170006ERS8_PS7_m, symObjAddr: 0x4480, symBinAddr: 0x100005F78, symSize: 0x34 }
  - { offsetInCU: 0x389A7, offset: 0x389A7, size: 0x8, addend: 0x0, symName: __ZNSt3__16vectorINS_10unique_ptrIN3tmx5LayerENS_14default_deleteIS3_EEEENS_9allocatorIS6_EEE7__allocB8ue170006Ev, symObjAddr: 0x44B4, symBinAddr: 0x100005FAC, symSize: 0x28 }
  - { offsetInCU: 0x389CD, offset: 0x389CD, size: 0x8, addend: 0x0, symName: __ZNKSt3__16vectorINS_10unique_ptrIN3tmx5LayerENS_14default_deleteIS3_EEEENS_9allocatorIS6_EEE8capacityB8ue170006Ev, symObjAddr: 0x44DC, symBinAddr: 0x100005FD4, symSize: 0x40 }
  - { offsetInCU: 0x389F3, offset: 0x389F3, size: 0x8, addend: 0x0, symName: __ZNSt3__16vectorINS_10unique_ptrIN3tmx5LayerENS_14default_deleteIS3_EEEENS_9allocatorIS6_EEE22__base_destruct_at_endB8ue170006EPS6_, symObjAddr: 0x451C, symBinAddr: 0x100006014, symSize: 0x8C }
  - { offsetInCU: 0x38A37, offset: 0x38A37, size: 0x8, addend: 0x0, symName: __ZNSt3__116allocator_traitsINS_9allocatorINS_10unique_ptrIN3tmx5LayerENS_14default_deleteIS4_EEEEEEE7destroyB8ue170006IS7_vEEvRS8_PT_, symObjAddr: 0x45A8, symBinAddr: 0x1000060A0, symSize: 0x2C }
  - { offsetInCU: 0x38A74, offset: 0x38A74, size: 0x8, addend: 0x0, symName: __ZNSt3__19allocatorINS_10unique_ptrIN3tmx5LayerENS_14default_deleteIS3_EEEEE7destroyB8ue170006EPS6_, symObjAddr: 0x45E8, symBinAddr: 0x1000060E0, symSize: 0x28 }
  - { offsetInCU: 0x38AA8, offset: 0x38AA8, size: 0x8, addend: 0x0, symName: __ZNSt3__110unique_ptrIN3tmx5LayerENS_14default_deleteIS2_EEED1B8ue170006Ev, symObjAddr: 0x4610, symBinAddr: 0x100006108, symSize: 0x2C }
  - { offsetInCU: 0x38AD2, offset: 0x38AD2, size: 0x8, addend: 0x0, symName: __ZNSt3__110unique_ptrIN3tmx5LayerENS_14default_deleteIS2_EEED2B8ue170006Ev, symObjAddr: 0x463C, symBinAddr: 0x100006134, symSize: 0x30 }
  - { offsetInCU: 0x38AFC, offset: 0x38AFC, size: 0x8, addend: 0x0, symName: __ZNSt3__110unique_ptrIN3tmx5LayerENS_14default_deleteIS2_EEE5resetB8ue170006EPS2_, symObjAddr: 0x466C, symBinAddr: 0x100006164, symSize: 0x78 }
  - { offsetInCU: 0x38B40, offset: 0x38B40, size: 0x8, addend: 0x0, symName: __ZNSt3__117__compressed_pairIPN3tmx5LayerENS_14default_deleteIS2_EEE5firstB8ue170006Ev, symObjAddr: 0x46E4, symBinAddr: 0x1000061DC, symSize: 0x24 }
  - { offsetInCU: 0x38B66, offset: 0x38B66, size: 0x8, addend: 0x0, symName: __ZNSt3__117__compressed_pairIPN3tmx5LayerENS_14default_deleteIS2_EEE6secondB8ue170006Ev, symObjAddr: 0x4708, symBinAddr: 0x100006200, symSize: 0x24 }
  - { offsetInCU: 0x38B8C, offset: 0x38B8C, size: 0x8, addend: 0x0, symName: __ZNKSt3__114default_deleteIN3tmx5LayerEEclB8ue170006EPS2_, symObjAddr: 0x472C, symBinAddr: 0x100006224, symSize: 0x4C }
  - { offsetInCU: 0x38BC0, offset: 0x38BC0, size: 0x8, addend: 0x0, symName: __ZNSt3__122__compressed_pair_elemIPN3tmx5LayerELi0ELb0EE5__getB8ue170006Ev, symObjAddr: 0x4778, symBinAddr: 0x100006270, symSize: 0x14 }
  - { offsetInCU: 0x38BE6, offset: 0x38BE6, size: 0x8, addend: 0x0, symName: __ZNSt3__122__compressed_pair_elemINS_14default_deleteIN3tmx5LayerEEELi1ELb1EE5__getB8ue170006Ev, symObjAddr: 0x478C, symBinAddr: 0x100006284, symSize: 0x14 }
  - { offsetInCU: 0x38C0C, offset: 0x38C0C, size: 0x8, addend: 0x0, symName: __ZNKSt3__16vectorINS_10unique_ptrIN3tmx5LayerENS_14default_deleteIS3_EEEENS_9allocatorIS6_EEE31__annotate_contiguous_containerB8ue170006EPKvSB_SB_SB_, symObjAddr: 0x47A0, symBinAddr: 0x100006298, symSize: 0x20 }
  - { offsetInCU: 0x38C62, offset: 0x38C62, size: 0x8, addend: 0x0, symName: __ZNKSt3__16vectorINS_10unique_ptrIN3tmx5LayerENS_14default_deleteIS3_EEEENS_9allocatorIS6_EEE4dataB8ue170006Ev, symObjAddr: 0x47C0, symBinAddr: 0x1000062B8, symSize: 0x28 }
  - { offsetInCU: 0x38C88, offset: 0x38C88, size: 0x8, addend: 0x0, symName: __ZNKSt3__16vectorINS_10unique_ptrIN3tmx5LayerENS_14default_deleteIS3_EEEENS_9allocatorIS6_EEE4sizeB8ue170006Ev, symObjAddr: 0x47E8, symBinAddr: 0x1000062E0, symSize: 0x28 }
  - { offsetInCU: 0x38CAE, offset: 0x38CAE, size: 0x8, addend: 0x0, symName: __ZNSt3__19allocatorINS_10unique_ptrIN3tmx5LayerENS_14default_deleteIS3_EEEEE10deallocateB8ue170006EPS6_m, symObjAddr: 0x4810, symBinAddr: 0x100006308, symSize: 0x40 }
  - { offsetInCU: 0x38CF0, offset: 0x38CF0, size: 0x8, addend: 0x0, symName: __ZNSt3__117__compressed_pairIPNS_10unique_ptrIN3tmx5LayerENS_14default_deleteIS3_EEEENS_9allocatorIS6_EEE6secondB8ue170006Ev, symObjAddr: 0x4850, symBinAddr: 0x100006348, symSize: 0x24 }
  - { offsetInCU: 0x38D16, offset: 0x38D16, size: 0x8, addend: 0x0, symName: __ZNSt3__122__compressed_pair_elemINS_9allocatorINS_10unique_ptrIN3tmx5LayerENS_14default_deleteIS4_EEEEEELi1ELb1EE5__getB8ue170006Ev, symObjAddr: 0x4874, symBinAddr: 0x10000636C, symSize: 0x14 }
  - { offsetInCU: 0x38D3C, offset: 0x38D3C, size: 0x8, addend: 0x0, symName: __ZNKSt3__16vectorINS_10unique_ptrIN3tmx5LayerENS_14default_deleteIS3_EEEENS_9allocatorIS6_EEE9__end_capB8ue170006Ev, symObjAddr: 0x4888, symBinAddr: 0x100006380, symSize: 0x28 }
  - { offsetInCU: 0x38D62, offset: 0x38D62, size: 0x8, addend: 0x0, symName: __ZNKSt3__117__compressed_pairIPNS_10unique_ptrIN3tmx5LayerENS_14default_deleteIS3_EEEENS_9allocatorIS6_EEE5firstB8ue170006Ev, symObjAddr: 0x48B0, symBinAddr: 0x1000063A8, symSize: 0x24 }
  - { offsetInCU: 0x38D88, offset: 0x38D88, size: 0x8, addend: 0x0, symName: __ZNKSt3__122__compressed_pair_elemIPNS_10unique_ptrIN3tmx5LayerENS_14default_deleteIS3_EEEELi0ELb0EE5__getB8ue170006Ev, symObjAddr: 0x48D4, symBinAddr: 0x1000063CC, symSize: 0x14 }
  - { offsetInCU: 0x38DAE, offset: 0x38DAE, size: 0x8, addend: 0x0, symName: __ZNSt3__16vectorIN3tmx7TilesetENS_9allocatorIS2_EEED2B8ue170006Ev, symObjAddr: 0x48E8, symBinAddr: 0x1000063E0, symSize: 0x44 }
  - { offsetInCU: 0x38DD8, offset: 0x38DD8, size: 0x8, addend: 0x0, symName: __ZNSt3__16vectorIN3tmx7TilesetENS_9allocatorIS2_EEE16__destroy_vectorC1B8ue170006ERS5_, symObjAddr: 0x492C, symBinAddr: 0x100006424, symSize: 0x34 }
  - { offsetInCU: 0x38E11, offset: 0x38E11, size: 0x8, addend: 0x0, symName: __ZNSt3__16vectorIN3tmx7TilesetENS_9allocatorIS2_EEE16__destroy_vectorclB8ue170006Ev, symObjAddr: 0x4960, symBinAddr: 0x100006458, symSize: 0x90 }
  - { offsetInCU: 0x38E37, offset: 0x38E37, size: 0x8, addend: 0x0, symName: __ZNSt3__16vectorIN3tmx7TilesetENS_9allocatorIS2_EEE16__destroy_vectorC2B8ue170006ERS5_, symObjAddr: 0x49F0, symBinAddr: 0x1000064E8, symSize: 0x20 }
  - { offsetInCU: 0x38E70, offset: 0x38E70, size: 0x8, addend: 0x0, symName: __ZNSt3__16vectorIN3tmx7TilesetENS_9allocatorIS2_EEE7__clearB8ue170006Ev, symObjAddr: 0x4A10, symBinAddr: 0x100006508, symSize: 0x28 }
  - { offsetInCU: 0x38E96, offset: 0x38E96, size: 0x8, addend: 0x0, symName: __ZNKSt3__16vectorIN3tmx7TilesetENS_9allocatorIS2_EEE17__annotate_deleteB8ue170006Ev, symObjAddr: 0x4A38, symBinAddr: 0x100006530, symSize: 0xD4 }
  - { offsetInCU: 0x38EBC, offset: 0x38EBC, size: 0x8, addend: 0x0, symName: __ZNSt3__116allocator_traitsINS_9allocatorIN3tmx7TilesetEEEE10deallocateB8ue170006ERS4_PS3_m, symObjAddr: 0x4B0C, symBinAddr: 0x100006604, symSize: 0x34 }
  - { offsetInCU: 0x38EFE, offset: 0x38EFE, size: 0x8, addend: 0x0, symName: __ZNSt3__16vectorIN3tmx7TilesetENS_9allocatorIS2_EEE7__allocB8ue170006Ev, symObjAddr: 0x4B40, symBinAddr: 0x100006638, symSize: 0x28 }
  - { offsetInCU: 0x38F24, offset: 0x38F24, size: 0x8, addend: 0x0, symName: __ZNKSt3__16vectorIN3tmx7TilesetENS_9allocatorIS2_EEE8capacityB8ue170006Ev, symObjAddr: 0x4B68, symBinAddr: 0x100006660, symSize: 0x40 }
  - { offsetInCU: 0x38F4A, offset: 0x38F4A, size: 0x8, addend: 0x0, symName: __ZNSt3__16vectorIN3tmx7TilesetENS_9allocatorIS2_EEE22__base_destruct_at_endB8ue170006EPS2_, symObjAddr: 0x4BA8, symBinAddr: 0x1000066A0, symSize: 0x8C }
  - { offsetInCU: 0x38F8E, offset: 0x38F8E, size: 0x8, addend: 0x0, symName: __ZNSt3__116allocator_traitsINS_9allocatorIN3tmx7TilesetEEEE7destroyB8ue170006IS3_vEEvRS4_PT_, symObjAddr: 0x4C34, symBinAddr: 0x10000672C, symSize: 0x2C }
  - { offsetInCU: 0x38FCB, offset: 0x38FCB, size: 0x8, addend: 0x0, symName: __ZNSt3__19allocatorIN3tmx7TilesetEE7destroyB8ue170006EPS2_, symObjAddr: 0x4C74, symBinAddr: 0x10000676C, symSize: 0x28 }
  - { offsetInCU: 0x38FFF, offset: 0x38FFF, size: 0x8, addend: 0x0, symName: __ZNKSt3__16vectorIN3tmx7TilesetENS_9allocatorIS2_EEE31__annotate_contiguous_containerB8ue170006EPKvS7_S7_S7_, symObjAddr: 0x4C9C, symBinAddr: 0x100006794, symSize: 0x20 }
  - { offsetInCU: 0x39055, offset: 0x39055, size: 0x8, addend: 0x0, symName: __ZNKSt3__16vectorIN3tmx7TilesetENS_9allocatorIS2_EEE4dataB8ue170006Ev, symObjAddr: 0x4CBC, symBinAddr: 0x1000067B4, symSize: 0x28 }
  - { offsetInCU: 0x3907B, offset: 0x3907B, size: 0x8, addend: 0x0, symName: __ZNKSt3__16vectorIN3tmx7TilesetENS_9allocatorIS2_EEE4sizeB8ue170006Ev, symObjAddr: 0x4CE4, symBinAddr: 0x1000067DC, symSize: 0x28 }
  - { offsetInCU: 0x390A1, offset: 0x390A1, size: 0x8, addend: 0x0, symName: __ZNSt3__19allocatorIN3tmx7TilesetEE10deallocateB8ue170006EPS2_m, symObjAddr: 0x4D0C, symBinAddr: 0x100006804, symSize: 0x44 }
  - { offsetInCU: 0x390E3, offset: 0x390E3, size: 0x8, addend: 0x0, symName: __ZNSt3__117__compressed_pairIPN3tmx7TilesetENS_9allocatorIS2_EEE6secondB8ue170006Ev, symObjAddr: 0x4D50, symBinAddr: 0x100006848, symSize: 0x24 }
  - { offsetInCU: 0x39109, offset: 0x39109, size: 0x8, addend: 0x0, symName: __ZNSt3__122__compressed_pair_elemINS_9allocatorIN3tmx7TilesetEEELi1ELb1EE5__getB8ue170006Ev, symObjAddr: 0x4D74, symBinAddr: 0x10000686C, symSize: 0x14 }
  - { offsetInCU: 0x3912F, offset: 0x3912F, size: 0x8, addend: 0x0, symName: __ZNKSt3__16vectorIN3tmx7TilesetENS_9allocatorIS2_EEE9__end_capB8ue170006Ev, symObjAddr: 0x4D88, symBinAddr: 0x100006880, symSize: 0x28 }
  - { offsetInCU: 0x39155, offset: 0x39155, size: 0x8, addend: 0x0, symName: __ZNKSt3__117__compressed_pairIPN3tmx7TilesetENS_9allocatorIS2_EEE5firstB8ue170006Ev, symObjAddr: 0x4DB0, symBinAddr: 0x1000068A8, symSize: 0x24 }
  - { offsetInCU: 0x3917B, offset: 0x3917B, size: 0x8, addend: 0x0, symName: __ZNKSt3__122__compressed_pair_elemIPN3tmx7TilesetELi0ELb0EE5__getB8ue170006Ev, symObjAddr: 0x4DD4, symBinAddr: 0x1000068CC, symSize: 0x14 }
  - { offsetInCU: 0x391A1, offset: 0x391A1, size: 0x8, addend: 0x0, symName: __ZNSt3__110unique_ptrIN2sf6SpriteENS_14default_deleteIS2_EEED2B8ue170006Ev, symObjAddr: 0x4DE8, symBinAddr: 0x1000068E0, symSize: 0x30 }
  - { offsetInCU: 0x391CB, offset: 0x391CB, size: 0x8, addend: 0x0, symName: __ZNSt3__110unique_ptrIN2sf6SpriteENS_14default_deleteIS2_EEE5resetB8ue170006EPS2_, symObjAddr: 0x4E18, symBinAddr: 0x100006910, symSize: 0x78 }
  - { offsetInCU: 0x3920F, offset: 0x3920F, size: 0x8, addend: 0x0, symName: __ZNSt3__117__compressed_pairIPN2sf6SpriteENS_14default_deleteIS2_EEE5firstB8ue170006Ev, symObjAddr: 0x4E90, symBinAddr: 0x100006988, symSize: 0x24 }
  - { offsetInCU: 0x39235, offset: 0x39235, size: 0x8, addend: 0x0, symName: __ZNSt3__117__compressed_pairIPN2sf6SpriteENS_14default_deleteIS2_EEE6secondB8ue170006Ev, symObjAddr: 0x4EB4, symBinAddr: 0x1000069AC, symSize: 0x24 }
  - { offsetInCU: 0x3925B, offset: 0x3925B, size: 0x8, addend: 0x0, symName: __ZNKSt3__114default_deleteIN2sf6SpriteEEclB8ue170006EPS2_, symObjAddr: 0x4ED8, symBinAddr: 0x1000069D0, symSize: 0x4C }
  - { offsetInCU: 0x3928F, offset: 0x3928F, size: 0x8, addend: 0x0, symName: __ZNSt3__122__compressed_pair_elemIPN2sf6SpriteELi0ELb0EE5__getB8ue170006Ev, symObjAddr: 0x4F24, symBinAddr: 0x100006A1C, symSize: 0x14 }
  - { offsetInCU: 0x392B5, offset: 0x392B5, size: 0x8, addend: 0x0, symName: __ZNSt3__122__compressed_pair_elemINS_14default_deleteIN2sf6SpriteEEELi1ELb1EE5__getB8ue170006Ev, symObjAddr: 0x4F38, symBinAddr: 0x100006A30, symSize: 0x14 }
  - { offsetInCU: 0x392DB, offset: 0x392DB, size: 0x8, addend: 0x0, symName: __ZNSt3__110unique_ptrI6AssetsNS_14default_deleteIS1_EEED2B8ue170006Ev, symObjAddr: 0x4F4C, symBinAddr: 0x100006A44, symSize: 0x30 }
  - { offsetInCU: 0x39305, offset: 0x39305, size: 0x8, addend: 0x0, symName: __ZNSt3__110unique_ptrI6AssetsNS_14default_deleteIS1_EEE5resetB8ue170006EPS1_, symObjAddr: 0x4F7C, symBinAddr: 0x100006A74, symSize: 0x78 }
  - { offsetInCU: 0x39349, offset: 0x39349, size: 0x8, addend: 0x0, symName: __ZNSt3__117__compressed_pairIP6AssetsNS_14default_deleteIS1_EEE5firstB8ue170006Ev, symObjAddr: 0x4FF4, symBinAddr: 0x100006AEC, symSize: 0x24 }
  - { offsetInCU: 0x3936F, offset: 0x3936F, size: 0x8, addend: 0x0, symName: __ZNSt3__117__compressed_pairIP6AssetsNS_14default_deleteIS1_EEE6secondB8ue170006Ev, symObjAddr: 0x5018, symBinAddr: 0x100006B10, symSize: 0x24 }
  - { offsetInCU: 0x39395, offset: 0x39395, size: 0x8, addend: 0x0, symName: __ZNKSt3__114default_deleteI6AssetsEclB8ue170006EPS1_, symObjAddr: 0x503C, symBinAddr: 0x100006B34, symSize: 0x4C }
  - { offsetInCU: 0x393C9, offset: 0x393C9, size: 0x8, addend: 0x0, symName: __ZNSt3__122__compressed_pair_elemIP6AssetsLi0ELb0EE5__getB8ue170006Ev, symObjAddr: 0x5088, symBinAddr: 0x100006B80, symSize: 0x14 }
  - { offsetInCU: 0x393EF, offset: 0x393EF, size: 0x8, addend: 0x0, symName: __ZNSt3__122__compressed_pair_elemINS_14default_deleteI6AssetsEELi1ELb1EE5__getB8ue170006Ev, symObjAddr: 0x509C, symBinAddr: 0x100006B94, symSize: 0x14 }
  - { offsetInCU: 0x39415, offset: 0x39415, size: 0x8, addend: 0x0, symName: __ZN6AssetsD1Ev, symObjAddr: 0x50B0, symBinAddr: 0x100006BA8, symSize: 0x2C }
  - { offsetInCU: 0x39441, offset: 0x39441, size: 0x8, addend: 0x0, symName: __ZN6AssetsD2Ev, symObjAddr: 0x50DC, symBinAddr: 0x100006BD4, symSize: 0x2C }
  - { offsetInCU: 0x3946D, offset: 0x3946D, size: 0x8, addend: 0x0, symName: __ZNSt3__13mapINS_12basic_stringIcNS_11char_traitsIcEENS_9allocatorIcEEEEN2sf7TextureENS_4lessIS6_EENS4_INS_4pairIKS6_S8_EEEEED1B8ue170006Ev, symObjAddr: 0x5108, symBinAddr: 0x100006C00, symSize: 0x2C }
  - { offsetInCU: 0x39497, offset: 0x39497, size: 0x8, addend: 0x0, symName: __ZNSt3__13mapINS_12basic_stringIcNS_11char_traitsIcEENS_9allocatorIcEEEEN2sf7TextureENS_4lessIS6_EENS4_INS_4pairIKS6_S8_EEEEED2B8ue170006Ev, symObjAddr: 0x5134, symBinAddr: 0x100006C2C, symSize: 0x2C }
  - { offsetInCU: 0x394C1, offset: 0x394C1, size: 0x8, addend: 0x0, symName: __ZNSt3__16__treeINS_12__value_typeINS_12basic_stringIcNS_11char_traitsIcEENS_9allocatorIcEEEEN2sf7TextureEEENS_19__map_value_compareIS7_SA_NS_4lessIS7_EELb1EEENS5_ISA_EEED1Ev, symObjAddr: 0x5160, symBinAddr: 0x100006C58, symSize: 0x2C }
  - { offsetInCU: 0x394ED, offset: 0x394ED, size: 0x8, addend: 0x0, symName: __ZNSt3__16__treeINS_12__value_typeINS_12basic_stringIcNS_11char_traitsIcEENS_9allocatorIcEEEEN2sf7TextureEEENS_19__map_value_compareIS7_SA_NS_4lessIS7_EELb1EEENS5_ISA_EEED2Ev, symObjAddr: 0x518C, symBinAddr: 0x100006C84, symSize: 0x38 }
  - { offsetInCU: 0x39519, offset: 0x39519, size: 0x8, addend: 0x0, symName: __ZNSt3__16__treeINS_12__value_typeINS_12basic_stringIcNS_11char_traitsIcEENS_9allocatorIcEEEEN2sf7TextureEEENS_19__map_value_compareIS7_SA_NS_4lessIS7_EELb1EEENS5_ISA_EEE7destroyEPNS_11__tree_nodeISA_PvEE, symObjAddr: 0x51C4, symBinAddr: 0x100006CBC, symSize: 0xAC }
  - { offsetInCU: 0x39566, offset: 0x39566, size: 0x8, addend: 0x0, symName: __ZNKSt3__16__treeINS_12__value_typeINS_12basic_stringIcNS_11char_traitsIcEENS_9allocatorIcEEEEN2sf7TextureEEENS_19__map_value_compareIS7_SA_NS_4lessIS7_EELb1EEENS5_ISA_EEE6__rootB8ue170006Ev, symObjAddr: 0x5270, symBinAddr: 0x100006D68, symSize: 0x28 }
  - { offsetInCU: 0x3958C, offset: 0x3958C, size: 0x8, addend: 0x0, symName: __ZNSt3__16__treeINS_12__value_typeINS_12basic_stringIcNS_11char_traitsIcEENS_9allocatorIcEEEEN2sf7TextureEEENS_19__map_value_compareIS7_SA_NS_4lessIS7_EELb1EEENS5_ISA_EEE12__node_allocB8ue170006Ev, symObjAddr: 0x5298, symBinAddr: 0x100006D90, symSize: 0x28 }
  - { offsetInCU: 0x395B7, offset: 0x395B7, size: 0x8, addend: 0x0, symName: __ZNSt3__116allocator_traitsINS_9allocatorINS_11__tree_nodeINS_12__value_typeINS_12basic_stringIcNS_11char_traitsIcEENS1_IcEEEEN2sf7TextureEEEPvEEEEE7destroyB8ue170006INS_4pairIKS8_SA_EEvvEEvRSE_PT_, symObjAddr: 0x52C0, symBinAddr: 0x100006DB8, symSize: 0x28 }
  - { offsetInCU: 0x395F2, offset: 0x395F2, size: 0x8, addend: 0x0, symName: __ZNSt3__122__tree_key_value_typesINS_12__value_typeINS_12basic_stringIcNS_11char_traitsIcEENS_9allocatorIcEEEEN2sf7TextureEEEE9__get_ptrB8ue170006ERSA_, symObjAddr: 0x52E8, symBinAddr: 0x100006DE0, symSize: 0x24 }
  - { offsetInCU: 0x39616, offset: 0x39616, size: 0x8, addend: 0x0, symName: __ZNSt3__116allocator_traitsINS_9allocatorINS_11__tree_nodeINS_12__value_typeINS_12basic_stringIcNS_11char_traitsIcEENS1_IcEEEEN2sf7TextureEEEPvEEEEE10deallocateB8ue170006ERSE_PSD_m, symObjAddr: 0x530C, symBinAddr: 0x100006E04, symSize: 0x34 }
  - { offsetInCU: 0x39658, offset: 0x39658, size: 0x8, addend: 0x0, symName: __ZNSt3__117__compressed_pairINS_15__tree_end_nodeIPNS_16__tree_node_baseIPvEEEENS_9allocatorINS_11__tree_nodeINS_12__value_typeINS_12basic_stringIcNS_11char_traitsIcEENS7_IcEEEEN2sf7TextureEEES3_EEEEE6secondB8ue170006Ev, symObjAddr: 0x5340, symBinAddr: 0x100006E38, symSize: 0x24 }
  - { offsetInCU: 0x3967E, offset: 0x3967E, size: 0x8, addend: 0x0, symName: __ZNSt3__122__compressed_pair_elemINS_9allocatorINS_11__tree_nodeINS_12__value_typeINS_12basic_stringIcNS_11char_traitsIcEENS1_IcEEEEN2sf7TextureEEEPvEEEELi1ELb1EE5__getB8ue170006Ev, symObjAddr: 0x5364, symBinAddr: 0x100006E5C, symSize: 0x14 }
  - { offsetInCU: 0x396A4, offset: 0x396A4, size: 0x8, addend: 0x0, symName: __ZNSt3__14pairIKNS_12basic_stringIcNS_11char_traitsIcEENS_9allocatorIcEEEEN2sf7TextureEED1Ev, symObjAddr: 0x5378, symBinAddr: 0x100006E70, symSize: 0x2C }
  - { offsetInCU: 0x396D0, offset: 0x396D0, size: 0x8, addend: 0x0, symName: __ZNSt3__14pairIKNS_12basic_stringIcNS_11char_traitsIcEENS_9allocatorIcEEEEN2sf7TextureEED2Ev, symObjAddr: 0x53A4, symBinAddr: 0x100006E9C, symSize: 0x38 }
  - { offsetInCU: 0x396FC, offset: 0x396FC, size: 0x8, addend: 0x0, symName: __ZNSt3__112__value_typeINS_12basic_stringIcNS_11char_traitsIcEENS_9allocatorIcEEEEN2sf7TextureEE11__get_valueB8ue170006Ev, symObjAddr: 0x53DC, symBinAddr: 0x100006ED4, symSize: 0x24 }
  - { offsetInCU: 0x39722, offset: 0x39722, size: 0x8, addend: 0x0, symName: __ZNSt3__19allocatorINS_11__tree_nodeINS_12__value_typeINS_12basic_stringIcNS_11char_traitsIcEENS0_IcEEEEN2sf7TextureEEEPvEEE10deallocateB8ue170006EPSC_m, symObjAddr: 0x5438, symBinAddr: 0x100006F30, symSize: 0x44 }
  - { offsetInCU: 0x39764, offset: 0x39764, size: 0x8, addend: 0x0, symName: __ZNKSt3__16__treeINS_12__value_typeINS_12basic_stringIcNS_11char_traitsIcEENS_9allocatorIcEEEEN2sf7TextureEEENS_19__map_value_compareIS7_SA_NS_4lessIS7_EELb1EEENS5_ISA_EEE10__end_nodeB8ue170006Ev, symObjAddr: 0x547C, symBinAddr: 0x100006F74, symSize: 0x2C }
  - { offsetInCU: 0x3978A, offset: 0x3978A, size: 0x8, addend: 0x0, symName: __ZNKSt3__117__compressed_pairINS_15__tree_end_nodeIPNS_16__tree_node_baseIPvEEEENS_9allocatorINS_11__tree_nodeINS_12__value_typeINS_12basic_stringIcNS_11char_traitsIcEENS7_IcEEEEN2sf7TextureEEES3_EEEEE5firstB8ue170006Ev, symObjAddr: 0x54A8, symBinAddr: 0x100006FA0, symSize: 0x24 }
  - { offsetInCU: 0x397B0, offset: 0x397B0, size: 0x8, addend: 0x0, symName: __ZNSt3__110unique_ptrI5LevelNS_14default_deleteIS1_EEED2B8ue170006Ev, symObjAddr: 0x54CC, symBinAddr: 0x100006FC4, symSize: 0x30 }
  - { offsetInCU: 0x397DA, offset: 0x397DA, size: 0x8, addend: 0x0, symName: __ZNSt3__110unique_ptrI5LevelNS_14default_deleteIS1_EEE5resetB8ue170006EPS1_, symObjAddr: 0x54FC, symBinAddr: 0x100006FF4, symSize: 0x78 }
  - { offsetInCU: 0x3981E, offset: 0x3981E, size: 0x8, addend: 0x0, symName: __ZNSt3__117__compressed_pairIP5LevelNS_14default_deleteIS1_EEE5firstB8ue170006Ev, symObjAddr: 0x5574, symBinAddr: 0x10000706C, symSize: 0x24 }
  - { offsetInCU: 0x39844, offset: 0x39844, size: 0x8, addend: 0x0, symName: __ZNSt3__117__compressed_pairIP5LevelNS_14default_deleteIS1_EEE6secondB8ue170006Ev, symObjAddr: 0x5598, symBinAddr: 0x100007090, symSize: 0x24 }
  - { offsetInCU: 0x3986A, offset: 0x3986A, size: 0x8, addend: 0x0, symName: __ZNKSt3__114default_deleteI5LevelEclB8ue170006EPS1_, symObjAddr: 0x55BC, symBinAddr: 0x1000070B4, symSize: 0x4C }
  - { offsetInCU: 0x3989E, offset: 0x3989E, size: 0x8, addend: 0x0, symName: __ZNSt3__122__compressed_pair_elemIP5LevelLi0ELb0EE5__getB8ue170006Ev, symObjAddr: 0x5608, symBinAddr: 0x100007100, symSize: 0x14 }
  - { offsetInCU: 0x398C4, offset: 0x398C4, size: 0x8, addend: 0x0, symName: __ZNSt3__122__compressed_pair_elemINS_14default_deleteI5LevelEELi1ELb1EE5__getB8ue170006Ev, symObjAddr: 0x561C, symBinAddr: 0x100007114, symSize: 0x14 }
  - { offsetInCU: 0x398EA, offset: 0x398EA, size: 0x8, addend: 0x0, symName: __ZN5LevelD1Ev, symObjAddr: 0x5630, symBinAddr: 0x100007128, symSize: 0x2C }
  - { offsetInCU: 0x39916, offset: 0x39916, size: 0x8, addend: 0x0, symName: __ZN5LevelD2Ev, symObjAddr: 0x565C, symBinAddr: 0x100007154, symSize: 0x2C }
  - { offsetInCU: 0x39942, offset: 0x39942, size: 0x8, addend: 0x0, symName: __ZNSt3__16vectorI8PlatformNS_9allocatorIS1_EEED2B8ue170006Ev, symObjAddr: 0x5688, symBinAddr: 0x100007180, symSize: 0x44 }
  - { offsetInCU: 0x3996C, offset: 0x3996C, size: 0x8, addend: 0x0, symName: __ZNSt3__16vectorI8PlatformNS_9allocatorIS1_EEE16__destroy_vectorC1B8ue170006ERS4_, symObjAddr: 0x56CC, symBinAddr: 0x1000071C4, symSize: 0x34 }
  - { offsetInCU: 0x399A5, offset: 0x399A5, size: 0x8, addend: 0x0, symName: __ZNSt3__16vectorI8PlatformNS_9allocatorIS1_EEE16__destroy_vectorclB8ue170006Ev, symObjAddr: 0x5700, symBinAddr: 0x1000071F8, symSize: 0x90 }
  - { offsetInCU: 0x399CB, offset: 0x399CB, size: 0x8, addend: 0x0, symName: __ZNSt3__16vectorI8PlatformNS_9allocatorIS1_EEE16__destroy_vectorC2B8ue170006ERS4_, symObjAddr: 0x5790, symBinAddr: 0x100007288, symSize: 0x20 }
  - { offsetInCU: 0x39A04, offset: 0x39A04, size: 0x8, addend: 0x0, symName: __ZNSt3__16vectorI8PlatformNS_9allocatorIS1_EEE7__clearB8ue170006Ev, symObjAddr: 0x57B0, symBinAddr: 0x1000072A8, symSize: 0x28 }
  - { offsetInCU: 0x39A2A, offset: 0x39A2A, size: 0x8, addend: 0x0, symName: __ZNKSt3__16vectorI8PlatformNS_9allocatorIS1_EEE17__annotate_deleteB8ue170006Ev, symObjAddr: 0x57D8, symBinAddr: 0x1000072D0, symSize: 0xD4 }
  - { offsetInCU: 0x39A50, offset: 0x39A50, size: 0x8, addend: 0x0, symName: __ZNSt3__116allocator_traitsINS_9allocatorI8PlatformEEE10deallocateB8ue170006ERS3_PS2_m, symObjAddr: 0x58AC, symBinAddr: 0x1000073A4, symSize: 0x34 }
  - { offsetInCU: 0x39A92, offset: 0x39A92, size: 0x8, addend: 0x0, symName: __ZNSt3__16vectorI8PlatformNS_9allocatorIS1_EEE7__allocB8ue170006Ev, symObjAddr: 0x58E0, symBinAddr: 0x1000073D8, symSize: 0x28 }
  - { offsetInCU: 0x39AB8, offset: 0x39AB8, size: 0x8, addend: 0x0, symName: __ZNKSt3__16vectorI8PlatformNS_9allocatorIS1_EEE8capacityB8ue170006Ev, symObjAddr: 0x5908, symBinAddr: 0x100007400, symSize: 0x40 }
  - { offsetInCU: 0x39ADE, offset: 0x39ADE, size: 0x8, addend: 0x0, symName: __ZNSt3__16vectorI8PlatformNS_9allocatorIS1_EEE22__base_destruct_at_endB8ue170006EPS1_, symObjAddr: 0x5948, symBinAddr: 0x100007440, symSize: 0x8C }
  - { offsetInCU: 0x39B22, offset: 0x39B22, size: 0x8, addend: 0x0, symName: __ZNSt3__116allocator_traitsINS_9allocatorI8PlatformEEE7destroyB8ue170006IS2_vEEvRS3_PT_, symObjAddr: 0x59D4, symBinAddr: 0x1000074CC, symSize: 0x2C }
  - { offsetInCU: 0x39B5F, offset: 0x39B5F, size: 0x8, addend: 0x0, symName: __ZNSt3__19allocatorI8PlatformE7destroyB8ue170006EPS1_, symObjAddr: 0x5A14, symBinAddr: 0x10000750C, symSize: 0x28 }
  - { offsetInCU: 0x39B93, offset: 0x39B93, size: 0x8, addend: 0x0, symName: __ZN8PlatformD1Ev, symObjAddr: 0x5A3C, symBinAddr: 0x100007534, symSize: 0x2C }
  - { offsetInCU: 0x39BBF, offset: 0x39BBF, size: 0x8, addend: 0x0, symName: __ZN8PlatformD2Ev, symObjAddr: 0x5A68, symBinAddr: 0x100007560, symSize: 0x2C }
  - { offsetInCU: 0x39BEB, offset: 0x39BEB, size: 0x8, addend: 0x0, symName: __ZN2sf14RectangleShapeD1Ev, symObjAddr: 0x5A94, symBinAddr: 0x10000758C, symSize: 0x2C }
  - { offsetInCU: 0x39C17, offset: 0x39C17, size: 0x8, addend: 0x0, symName: __ZN2sf14RectangleShapeD2Ev, symObjAddr: 0x5AC0, symBinAddr: 0x1000075B8, symSize: 0x2C }
  - { offsetInCU: 0x39C43, offset: 0x39C43, size: 0x8, addend: 0x0, symName: __ZThn8_N2sf14RectangleShapeD1Ev, symObjAddr: 0x5AEC, symBinAddr: 0x1000075E4, symSize: 0x1C }
  - { offsetInCU: 0x39C59, offset: 0x39C59, size: 0x8, addend: 0x0, symName: __ZN2sf5ShapeD2Ev, symObjAddr: 0x5B08, symBinAddr: 0x100007600, symSize: 0x68 }
  - { offsetInCU: 0x39C85, offset: 0x39C85, size: 0x8, addend: 0x0, symName: __ZN2sf11VertexArrayD1Ev, symObjAddr: 0x5B70, symBinAddr: 0x100007668, symSize: 0x2C }
  - { offsetInCU: 0x39CB1, offset: 0x39CB1, size: 0x8, addend: 0x0, symName: __ZN2sf13TransformableD2Ev, symObjAddr: 0x5B9C, symBinAddr: 0x100007694, symSize: 0x14 }
  - { offsetInCU: 0x39CDB, offset: 0x39CDB, size: 0x8, addend: 0x0, symName: __ZN2sf8DrawableD2Ev, symObjAddr: 0x5BB0, symBinAddr: 0x1000076A8, symSize: 0x14 }
  - { offsetInCU: 0x39D05, offset: 0x39D05, size: 0x8, addend: 0x0, symName: __ZN2sf11VertexArrayD2Ev, symObjAddr: 0x5BC4, symBinAddr: 0x1000076BC, symSize: 0x48 }
  - { offsetInCU: 0x39D31, offset: 0x39D31, size: 0x8, addend: 0x0, symName: __ZNSt3__16vectorIN2sf6VertexENS_9allocatorIS2_EEED1B8ue170006Ev, symObjAddr: 0x5C0C, symBinAddr: 0x100007704, symSize: 0x2C }
  - { offsetInCU: 0x39D5B, offset: 0x39D5B, size: 0x8, addend: 0x0, symName: __ZNSt3__16vectorIN2sf6VertexENS_9allocatorIS2_EEED2B8ue170006Ev, symObjAddr: 0x5C38, symBinAddr: 0x100007730, symSize: 0x44 }
  - { offsetInCU: 0x39D85, offset: 0x39D85, size: 0x8, addend: 0x0, symName: __ZNSt3__16vectorIN2sf6VertexENS_9allocatorIS2_EEE16__destroy_vectorC1B8ue170006ERS5_, symObjAddr: 0x5C7C, symBinAddr: 0x100007774, symSize: 0x34 }
  - { offsetInCU: 0x39DBE, offset: 0x39DBE, size: 0x8, addend: 0x0, symName: __ZNSt3__16vectorIN2sf6VertexENS_9allocatorIS2_EEE16__destroy_vectorclB8ue170006Ev, symObjAddr: 0x5CB0, symBinAddr: 0x1000077A8, symSize: 0x90 }
  - { offsetInCU: 0x39DE4, offset: 0x39DE4, size: 0x8, addend: 0x0, symName: __ZNSt3__16vectorIN2sf6VertexENS_9allocatorIS2_EEE16__destroy_vectorC2B8ue170006ERS5_, symObjAddr: 0x5D40, symBinAddr: 0x100007838, symSize: 0x20 }
  - { offsetInCU: 0x39E1D, offset: 0x39E1D, size: 0x8, addend: 0x0, symName: __ZNSt3__16vectorIN2sf6VertexENS_9allocatorIS2_EEE7__clearB8ue170006Ev, symObjAddr: 0x5D60, symBinAddr: 0x100007858, symSize: 0x28 }
  - { offsetInCU: 0x39E43, offset: 0x39E43, size: 0x8, addend: 0x0, symName: __ZNKSt3__16vectorIN2sf6VertexENS_9allocatorIS2_EEE17__annotate_deleteB8ue170006Ev, symObjAddr: 0x5D88, symBinAddr: 0x100007880, symSize: 0xD4 }
  - { offsetInCU: 0x39E69, offset: 0x39E69, size: 0x8, addend: 0x0, symName: __ZNSt3__116allocator_traitsINS_9allocatorIN2sf6VertexEEEE10deallocateB8ue170006ERS4_PS3_m, symObjAddr: 0x5E5C, symBinAddr: 0x100007954, symSize: 0x34 }
  - { offsetInCU: 0x39EAB, offset: 0x39EAB, size: 0x8, addend: 0x0, symName: __ZNSt3__16vectorIN2sf6VertexENS_9allocatorIS2_EEE7__allocB8ue170006Ev, symObjAddr: 0x5E90, symBinAddr: 0x100007988, symSize: 0x28 }
  - { offsetInCU: 0x39ED1, offset: 0x39ED1, size: 0x8, addend: 0x0, symName: __ZNKSt3__16vectorIN2sf6VertexENS_9allocatorIS2_EEE8capacityB8ue170006Ev, symObjAddr: 0x5EB8, symBinAddr: 0x1000079B0, symSize: 0x40 }
  - { offsetInCU: 0x39EF7, offset: 0x39EF7, size: 0x8, addend: 0x0, symName: __ZNSt3__16vectorIN2sf6VertexENS_9allocatorIS2_EEE22__base_destruct_at_endB8ue170006EPS2_, symObjAddr: 0x5EF8, symBinAddr: 0x1000079F0, symSize: 0x8C }
  - { offsetInCU: 0x39F3B, offset: 0x39F3B, size: 0x8, addend: 0x0, symName: __ZNSt3__116allocator_traitsINS_9allocatorIN2sf6VertexEEEE7destroyB8ue170006IS3_vEEvRS4_PT_, symObjAddr: 0x5F84, symBinAddr: 0x100007A7C, symSize: 0x2C }
  - { offsetInCU: 0x39F78, offset: 0x39F78, size: 0x8, addend: 0x0, symName: __ZNSt3__19allocatorIN2sf6VertexEE7destroyB8ue170006EPS2_, symObjAddr: 0x5FC4, symBinAddr: 0x100007ABC, symSize: 0x14 }
  - { offsetInCU: 0x39FAC, offset: 0x39FAC, size: 0x8, addend: 0x0, symName: __ZNKSt3__16vectorIN2sf6VertexENS_9allocatorIS2_EEE31__annotate_contiguous_containerB8ue170006EPKvS7_S7_S7_, symObjAddr: 0x5FD8, symBinAddr: 0x100007AD0, symSize: 0x20 }
  - { offsetInCU: 0x3A002, offset: 0x3A002, size: 0x8, addend: 0x0, symName: __ZNKSt3__16vectorIN2sf6VertexENS_9allocatorIS2_EEE4dataB8ue170006Ev, symObjAddr: 0x5FF8, symBinAddr: 0x100007AF0, symSize: 0x28 }
  - { offsetInCU: 0x3A028, offset: 0x3A028, size: 0x8, addend: 0x0, symName: __ZNKSt3__16vectorIN2sf6VertexENS_9allocatorIS2_EEE4sizeB8ue170006Ev, symObjAddr: 0x6020, symBinAddr: 0x100007B18, symSize: 0x28 }
  - { offsetInCU: 0x3A04E, offset: 0x3A04E, size: 0x8, addend: 0x0, symName: __ZNSt3__19allocatorIN2sf6VertexEE10deallocateB8ue170006EPS2_m, symObjAddr: 0x6048, symBinAddr: 0x100007B40, symSize: 0x44 }
  - { offsetInCU: 0x3A090, offset: 0x3A090, size: 0x8, addend: 0x0, symName: __ZNSt3__117__compressed_pairIPN2sf6VertexENS_9allocatorIS2_EEE6secondB8ue170006Ev, symObjAddr: 0x608C, symBinAddr: 0x100007B84, symSize: 0x24 }
  - { offsetInCU: 0x3A0B6, offset: 0x3A0B6, size: 0x8, addend: 0x0, symName: __ZNSt3__122__compressed_pair_elemINS_9allocatorIN2sf6VertexEEELi1ELb1EE5__getB8ue170006Ev, symObjAddr: 0x60B0, symBinAddr: 0x100007BA8, symSize: 0x14 }
  - { offsetInCU: 0x3A0DC, offset: 0x3A0DC, size: 0x8, addend: 0x0, symName: __ZNKSt3__16vectorIN2sf6VertexENS_9allocatorIS2_EEE9__end_capB8ue170006Ev, symObjAddr: 0x60C4, symBinAddr: 0x100007BBC, symSize: 0x28 }
  - { offsetInCU: 0x3A102, offset: 0x3A102, size: 0x8, addend: 0x0, symName: __ZNKSt3__117__compressed_pairIPN2sf6VertexENS_9allocatorIS2_EEE5firstB8ue170006Ev, symObjAddr: 0x60EC, symBinAddr: 0x100007BE4, symSize: 0x24 }
  - { offsetInCU: 0x3A128, offset: 0x3A128, size: 0x8, addend: 0x0, symName: __ZNKSt3__122__compressed_pair_elemIPN2sf6VertexELi0ELb0EE5__getB8ue170006Ev, symObjAddr: 0x6110, symBinAddr: 0x100007C08, symSize: 0x14 }
  - { offsetInCU: 0x3A14E, offset: 0x3A14E, size: 0x8, addend: 0x0, symName: __ZNKSt3__16vectorI8PlatformNS_9allocatorIS1_EEE31__annotate_contiguous_containerB8ue170006EPKvS6_S6_S6_, symObjAddr: 0x6124, symBinAddr: 0x100007C1C, symSize: 0x20 }
  - { offsetInCU: 0x3A1A4, offset: 0x3A1A4, size: 0x8, addend: 0x0, symName: __ZNKSt3__16vectorI8PlatformNS_9allocatorIS1_EEE4dataB8ue170006Ev, symObjAddr: 0x6144, symBinAddr: 0x100007C3C, symSize: 0x28 }
  - { offsetInCU: 0x3A1CA, offset: 0x3A1CA, size: 0x8, addend: 0x0, symName: __ZNKSt3__16vectorI8PlatformNS_9allocatorIS1_EEE4sizeB8ue170006Ev, symObjAddr: 0x616C, symBinAddr: 0x100007C64, symSize: 0x28 }
  - { offsetInCU: 0x3A1F0, offset: 0x3A1F0, size: 0x8, addend: 0x0, symName: __ZNSt3__19allocatorI8PlatformE10deallocateB8ue170006EPS1_m, symObjAddr: 0x6194, symBinAddr: 0x100007C8C, symSize: 0x44 }
  - { offsetInCU: 0x3A232, offset: 0x3A232, size: 0x8, addend: 0x0, symName: __ZNSt3__117__compressed_pairIP8PlatformNS_9allocatorIS1_EEE6secondB8ue170006Ev, symObjAddr: 0x61D8, symBinAddr: 0x100007CD0, symSize: 0x24 }
  - { offsetInCU: 0x3A258, offset: 0x3A258, size: 0x8, addend: 0x0, symName: __ZNSt3__122__compressed_pair_elemINS_9allocatorI8PlatformEELi1ELb1EE5__getB8ue170006Ev, symObjAddr: 0x61FC, symBinAddr: 0x100007CF4, symSize: 0x14 }
  - { offsetInCU: 0x3A27E, offset: 0x3A27E, size: 0x8, addend: 0x0, symName: __ZNKSt3__16vectorI8PlatformNS_9allocatorIS1_EEE9__end_capB8ue170006Ev, symObjAddr: 0x6210, symBinAddr: 0x100007D08, symSize: 0x28 }
  - { offsetInCU: 0x3A2A4, offset: 0x3A2A4, size: 0x8, addend: 0x0, symName: __ZNKSt3__117__compressed_pairIP8PlatformNS_9allocatorIS1_EEE5firstB8ue170006Ev, symObjAddr: 0x6238, symBinAddr: 0x100007D30, symSize: 0x24 }
  - { offsetInCU: 0x3A2CA, offset: 0x3A2CA, size: 0x8, addend: 0x0, symName: __ZNKSt3__122__compressed_pair_elemIP8PlatformLi0ELb0EE5__getB8ue170006Ev, symObjAddr: 0x625C, symBinAddr: 0x100007D54, symSize: 0x14 }
  - { offsetInCU: 0x3A2F0, offset: 0x3A2F0, size: 0x8, addend: 0x0, symName: __ZNSt3__110unique_ptrI6PlayerNS_14default_deleteIS1_EEED2B8ue170006Ev, symObjAddr: 0x6270, symBinAddr: 0x100007D68, symSize: 0x30 }
  - { offsetInCU: 0x3A31A, offset: 0x3A31A, size: 0x8, addend: 0x0, symName: __ZNSt3__110unique_ptrI6PlayerNS_14default_deleteIS1_EEE5resetB8ue170006EPS1_, symObjAddr: 0x62A0, symBinAddr: 0x100007D98, symSize: 0x78 }
  - { offsetInCU: 0x3A35E, offset: 0x3A35E, size: 0x8, addend: 0x0, symName: __ZNSt3__117__compressed_pairIP6PlayerNS_14default_deleteIS1_EEE5firstB8ue170006Ev, symObjAddr: 0x6318, symBinAddr: 0x100007E10, symSize: 0x24 }
  - { offsetInCU: 0x3A384, offset: 0x3A384, size: 0x8, addend: 0x0, symName: __ZNSt3__117__compressed_pairIP6PlayerNS_14default_deleteIS1_EEE6secondB8ue170006Ev, symObjAddr: 0x633C, symBinAddr: 0x100007E34, symSize: 0x24 }
  - { offsetInCU: 0x3A3AA, offset: 0x3A3AA, size: 0x8, addend: 0x0, symName: __ZNKSt3__114default_deleteI6PlayerEclB8ue170006EPS1_, symObjAddr: 0x6360, symBinAddr: 0x100007E58, symSize: 0x4C }
  - { offsetInCU: 0x3A3DE, offset: 0x3A3DE, size: 0x8, addend: 0x0, symName: __ZNSt3__122__compressed_pair_elemIP6PlayerLi0ELb0EE5__getB8ue170006Ev, symObjAddr: 0x63AC, symBinAddr: 0x100007EA4, symSize: 0x14 }
  - { offsetInCU: 0x3A404, offset: 0x3A404, size: 0x8, addend: 0x0, symName: __ZNSt3__122__compressed_pair_elemINS_14default_deleteI6PlayerEELi1ELb1EE5__getB8ue170006Ev, symObjAddr: 0x63C0, symBinAddr: 0x100007EB8, symSize: 0x14 }
  - { offsetInCU: 0x3A42A, offset: 0x3A42A, size: 0x8, addend: 0x0, symName: __ZN6PlayerD1Ev, symObjAddr: 0x63D4, symBinAddr: 0x100007ECC, symSize: 0x2C }
  - { offsetInCU: 0x3A456, offset: 0x3A456, size: 0x8, addend: 0x0, symName: __ZN6PlayerD2Ev, symObjAddr: 0x6400, symBinAddr: 0x100007EF8, symSize: 0x44 }
  - { offsetInCU: 0x3A482, offset: 0x3A482, size: 0x8, addend: 0x0, symName: __ZN2sf12RenderWindowD2Ev, symObjAddr: 0x6444, symBinAddr: 0x100007F3C, symSize: 0x38 }
  - { offsetInCU: 0x3A4AE, offset: 0x3A4AE, size: 0x8, addend: 0x0, symName: __ZThn72_N2sf12RenderWindowD1Ev, symObjAddr: 0x647C, symBinAddr: 0x100007F74, symSize: 0x1C }
  - { offsetInCU: 0x3A4C4, offset: 0x3A4C4, size: 0x8, addend: 0x0, symName: __ZN2sf12RenderTargetD2Ev, symObjAddr: 0x6498, symBinAddr: 0x100007F90, symSize: 0x14 }
  - { offsetInCU: 0x2142, offset: 0x3C873, size: 0x8, addend: 0x0, symName: __ZNSt3__18in_placeE, symObjAddr: 0xF54B, symBinAddr: 0x10006818D, symSize: 0x0 }
  - { offsetInCU: 0x2174, offset: 0x3C8A5, size: 0x8, addend: 0x0, symName: __ZNSt3__17nulloptE, symObjAddr: 0xF54A, symBinAddr: 0x10006818C, symSize: 0x0 }
  - { offsetInCU: 0xB738, offset: 0x45E69, size: 0x8, addend: 0x0, symName: __ZNSt3__16chrono13duration_castB8ue170006INS0_8durationIfNS_5ratioILl1ELl1EEEEExNS3_ILl1ELl1000000EEEEENS_9enable_ifIXsr13__is_durationIT_EE5valueES8_E4typeERKNS2_IT0_T1_EE, symObjAddr: 0x7610, symBinAddr: 0x10000AD3C, symSize: 0x30 }
  - { offsetInCU: 0x20FD4, offset: 0x5B705, size: 0x8, addend: 0x0, symName: __ZNSt3__124__put_character_sequenceB8ue170006IcNS_11char_traitsIcEEEERNS_13basic_ostreamIT_T0_EES7_PKS4_m, symObjAddr: 0xC9C4, symBinAddr: 0x10000E5E0, symSize: 0x1EC }
  - { offsetInCU: 0x23F80, offset: 0x5E6B1, size: 0x8, addend: 0x0, symName: __ZNSt3__111make_uniqueB8ue170006I6PlayerJffEEENS_11__unique_ifIT_E15__unique_singleEDpOT0_, symObjAddr: 0xBC8, symBinAddr: 0x100008B6C, symSize: 0x7C }
  - { offsetInCU: 0x23FD6, offset: 0x5E707, size: 0x8, addend: 0x0, symName: __ZNSt3__1lsB8ue170006INS_11char_traitsIcEEEERNS_13basic_ostreamIcT_EES6_PKc, symObjAddr: 0xE10, symBinAddr: 0x100008D88, symSize: 0x48 }
  - { offsetInCU: 0x2401C, offset: 0x5E74D, size: 0x8, addend: 0x0, symName: __ZNSt3__14endlB8ue170006IcNS_11char_traitsIcEEEERNS_13basic_ostreamIT_T0_EES7_, symObjAddr: 0xE84, symBinAddr: 0x100008DFC, symSize: 0x58 }
  - { offsetInCU: 0x2405C, offset: 0x5E78D, size: 0x8, addend: 0x0, symName: __ZNSt3__111make_uniqueB8ue170006IN2sf6SpriteEJRNS1_7TextureEEEENS_11__unique_ifIT_E15__unique_singleEDpOT0_, symObjAddr: 0xEDC, symBinAddr: 0x100008E54, symSize: 0x6C }
  - { offsetInCU: 0x2409D, offset: 0x5E7CE, size: 0x8, addend: 0x0, symName: __ZNSt3__1neB8ue170006IPKNS_10unique_ptrIN3tmx5LayerENS_14default_deleteIS3_EEEEEEbRKNS_11__wrap_iterIT_EESD_, symObjAddr: 0x1158, symBinAddr: 0x1000090A4, symSize: 0x34 }
  - { offsetInCU: 0x240E1, offset: 0x5E812, size: 0x8, addend: 0x0, symName: __ZNSt3__1neB8ue170006IPN2sf6SpriteEEEbRKNS_11__wrap_iterIT_EES8_, symObjAddr: 0x20D8, symBinAddr: 0x100009F1C, symSize: 0x34 }
  - { offsetInCU: 0x24125, offset: 0x5E856, size: 0x8, addend: 0x0, symName: __ZNSt3__1neB8ue170006IP8PlatformEEbRKNS_11__wrap_iterIT_EES7_, symObjAddr: 0x21F0, symBinAddr: 0x10000A034, symSize: 0x34 }
  - { offsetInCU: 0x24169, offset: 0x5E89A, size: 0x8, addend: 0x0, symName: __ZNSt3__1eqB8ue170006IPKNS_10unique_ptrIN3tmx5LayerENS_14default_deleteIS3_EEEEEEbRKNS_11__wrap_iterIT_EESD_, symObjAddr: 0x2D38, symBinAddr: 0x10000AA1C, symSize: 0x48 }
  - { offsetInCU: 0x241CB, offset: 0x5E8FC, size: 0x8, addend: 0x0, symName: __ZNSt3__1eqB8ue170006IPN2sf6SpriteEEEbRKNS_11__wrap_iterIT_EES8_, symObjAddr: 0x7740, symBinAddr: 0x10000AE6C, symSize: 0x48 }
  - { offsetInCU: 0x2420F, offset: 0x5E940, size: 0x8, addend: 0x0, symName: __ZNSt3__1eqB8ue170006IP8PlatformEEbRKNS_11__wrap_iterIT_EES7_, symObjAddr: 0x77E4, symBinAddr: 0x10000AF10, symSize: 0x48 }
  - { offsetInCU: 0x24253, offset: 0x5E984, size: 0x8, addend: 0x0, symName: __ZNSt3__13maxB8ue170006ImEERKT_S3_S3_, symObjAddr: 0xA0E0, symBinAddr: 0x10000BCFC, symSize: 0x2C }
  - { offsetInCU: 0x24297, offset: 0x5E9C8, size: 0x8, addend: 0x0, symName: __ZNSt3__13minB8ue170006ImEERKT_S3_S3_, symObjAddr: 0xA10C, symBinAddr: 0x10000BD28, symSize: 0x2C }
  - { offsetInCU: 0x244C5, offset: 0x5EBF6, size: 0x8, addend: 0x0, symName: __ZNSt3__13minB8ue170006ImNS_6__lessIvvEEEERKT_S5_S5_T0_, symObjAddr: 0xA198, symBinAddr: 0x10000BDB4, symSize: 0x54 }
  - { offsetInCU: 0x24599, offset: 0x5ECCA, size: 0x8, addend: 0x0, symName: __ZNSt3__120__throw_length_errorB8ue170006EPKc, symObjAddr: 0xA280, symBinAddr: 0x10000BE9C, symSize: 0x64 }
  - { offsetInCU: 0x245C3, offset: 0x5ECF4, size: 0x8, addend: 0x0, symName: __ZNSt3__13maxB8ue170006ImNS_6__lessIvvEEEERKT_S5_S5_T0_, symObjAddr: 0xA364, symBinAddr: 0x10000BF80, symSize: 0x54 }
  - { offsetInCU: 0x2461E, offset: 0x5ED4F, size: 0x8, addend: 0x0, symName: __ZNSt3__119__allocate_at_leastB8ue170006INS_9allocatorI8PlatformEEEENS_19__allocation_resultINS_16allocator_traitsIT_E7pointerEEERS6_m, symObjAddr: 0xA4D4, symBinAddr: 0x10000C0F0, symSize: 0x40 }
  - { offsetInCU: 0x24663, offset: 0x5ED94, size: 0x8, addend: 0x0, symName: __ZNSt3__117__libcpp_allocateB8ue170006Emm, symObjAddr: 0xA65C, symBinAddr: 0x10000C278, symSize: 0x60 }
  - { offsetInCU: 0x246BD, offset: 0x5EDEE, size: 0x8, addend: 0x0, symName: __ZNSt3__121__libcpp_operator_newB8ue170006IJmSt11align_val_tEEEPvDpT_, symObjAddr: 0xA6BC, symBinAddr: 0x10000C2D8, symSize: 0x2C }
  - { offsetInCU: 0x2470A, offset: 0x5EE3B, size: 0x8, addend: 0x0, symName: __ZNSt3__121__libcpp_operator_newB8ue170006IJmEEEPvDpT_, symObjAddr: 0xA6E8, symBinAddr: 0x10000C304, symSize: 0x24 }
  - { offsetInCU: 0x24743, offset: 0x5EE74, size: 0x8, addend: 0x0, symName: __ZNSt3__142__uninitialized_allocator_move_if_noexceptB8ue170006INS_9allocatorI8PlatformEENS_16reverse_iteratorIPS2_EES6_S6_EET2_RT_T0_T1_S7_, symObjAddr: 0xA770, symBinAddr: 0x10000C38C, symSize: 0x12C }
  - { offsetInCU: 0x247E3, offset: 0x5EF14, size: 0x8, addend: 0x0, symName: __ZNSt3__14swapB8ue170006IP8PlatformEENS_9enable_ifIXaasr21is_move_constructibleIT_EE5valuesr18is_move_assignableIS4_EE5valueEvE4typeERS4_S7_, symObjAddr: 0xA8E8, symBinAddr: 0x10000C504, symSize: 0x3C }
  - { offsetInCU: 0x24834, offset: 0x5EF65, size: 0x8, addend: 0x0, symName: __ZNSt3__122__make_exception_guardB8ue170006INS_29_AllocatorDestroyRangeReverseINS_9allocatorI8PlatformEENS_16reverse_iteratorIPS3_EEEEEENS_28__exception_guard_exceptionsIT_EESA_, symObjAddr: 0xA9EC, symBinAddr: 0x10000C608, symSize: 0x4C }
  - { offsetInCU: 0x2486B, offset: 0x5EF9C, size: 0x8, addend: 0x0, symName: __ZNSt3__1neB8ue170006IP8PlatformS2_EEbRKNS_16reverse_iteratorIT_EERKNS3_IT0_EE, symObjAddr: 0xAA7C, symBinAddr: 0x10000C698, symSize: 0x48 }
  - { offsetInCU: 0x248B8, offset: 0x5EFE9, size: 0x8, addend: 0x0, symName: __ZNSt3__112__to_addressB8ue170006INS_16reverse_iteratorIP8PlatformEEvEEu7__decayIDTclsr19__to_address_helperIT_EE6__callclsr3stdE7declvalIRKS5_EEEEES7_, symObjAddr: 0xAAF8, symBinAddr: 0x10000C714, symSize: 0x24 }
  - { offsetInCU: 0x2491A, offset: 0x5F04B, size: 0x8, addend: 0x0, symName: __ZNSt3__119__allocator_destroyB8ue170006INS_9allocatorI8PlatformEENS_16reverse_iteratorINS4_IPS2_EEEES7_EEvRT_T0_T1_, symObjAddr: 0xB354, symBinAddr: 0x10000CF70, symSize: 0x70 }
  - { offsetInCU: 0x2497E, offset: 0x5F0AF, size: 0x8, addend: 0x0, symName: __ZNSt3__1neB8ue170006INS_16reverse_iteratorIP8PlatformEES4_EEbRKNS1_IT_EERKNS1_IT0_EE, symObjAddr: 0xB400, symBinAddr: 0x10000D01C, symSize: 0x60 }
  - { offsetInCU: 0x249CB, offset: 0x5F0FC, size: 0x8, addend: 0x0, symName: __ZNSt3__112__to_addressB8ue170006INS_16reverse_iteratorINS1_IP8PlatformEEEEvEEu7__decayIDTclsr19__to_address_helperIT_EE6__callclsr3stdE7declvalIRKS6_EEEEES8_, symObjAddr: 0xB460, symBinAddr: 0x10000D07C, symSize: 0x24 }
  - { offsetInCU: 0x24A2C, offset: 0x5F15D, size: 0x8, addend: 0x0, symName: __ZNSt3__18distanceB8ue170006IPKcEENS_15iterator_traitsIT_E15difference_typeES4_S4_, symObjAddr: 0xBD84, symBinAddr: 0x10000D9A0, symSize: 0x2C }
  - { offsetInCU: 0x24A71, offset: 0x5F1A2, size: 0x8, addend: 0x0, symName: __ZNSt3__110__distanceB8ue170006IPKcEENS_15iterator_traitsIT_E15difference_typeES4_S4_NS_26random_access_iterator_tagE, symObjAddr: 0xC0E8, symBinAddr: 0x10000DD04, symSize: 0x20 }
  - { offsetInCU: 0x24ABE, offset: 0x5F1EF, size: 0x8, addend: 0x0, symName: __ZNSt3__121__is_pointer_in_rangeB8ue170006IccLi0EEEbPKT_S3_PKT0_, symObjAddr: 0xC108, symBinAddr: 0x10000DD24, symSize: 0x68 }
  - { offsetInCU: 0x24B53, offset: 0x5F284, size: 0x8, addend: 0x0, symName: __ZNSt3__119__allocate_at_leastB8ue170006INS_9allocatorIcEEEENS_19__allocation_resultINS_16allocator_traitsIT_E7pointerEEERS5_m, symObjAddr: 0xC654, symBinAddr: 0x10000E270, symSize: 0x40 }
  - { offsetInCU: 0x24D84, offset: 0x5F4B5, size: 0x8, addend: 0x0, symName: __ZNSt3__112__to_addressB8ue170006IKcEEPT_S3_, symObjAddr: 0xC8F8, symBinAddr: 0x10000E514, symSize: 0x14 }
  - { offsetInCU: 0x24DEC, offset: 0x5F51D, size: 0x8, addend: 0x0, symName: __ZNSt3__116__pad_and_outputB8ue170006IcNS_11char_traitsIcEEEENS_19ostreambuf_iteratorIT_T0_EES6_PKS4_S8_S8_RNS_8ios_baseES4_, symObjAddr: 0xCC00, symBinAddr: 0x10000E81C, symSize: 0x240 }
  - { offsetInCU: 0x24EBC, offset: 0x5F5ED, size: 0x8, addend: 0x0, symName: __ZNSt3__112__to_addressB8ue170006IcEEPT_S2_, symObjAddr: 0xD070, symBinAddr: 0x10000EC8C, symSize: 0x14 }
  - { offsetInCU: 0x24EF0, offset: 0x5F621, size: 0x8, addend: 0x0, symName: __ZNSt3__19use_facetB8ue170006INS_5ctypeIcEEEERKT_RKNS_6localeE, symObjAddr: 0xD1C8, symBinAddr: 0x10000EDE4, symSize: 0x2C }
  - { offsetInCU: 0x253BE, offset: 0x5FAEF, size: 0x8, addend: 0x0, symName: __ZNSt3__118__constexpr_strlenB8ue170006EPKc, symObjAddr: 0xD260, symBinAddr: 0x10000EE7C, symSize: 0x24 }
  - { offsetInCU: 0x253EB, offset: 0x5FB1C, size: 0x8, addend: 0x0, symName: __ZNSt3__119__allocate_at_leastB8ue170006INS_9allocatorIN2sf6SpriteEEEEENS_19__allocation_resultINS_16allocator_traitsIT_E7pointerEEERS7_m, symObjAddr: 0xDE8C, symBinAddr: 0x10000FAA8, symSize: 0x40 }
  - { offsetInCU: 0x25430, offset: 0x5FB61, size: 0x8, addend: 0x0, symName: __ZNSt3__142__uninitialized_allocator_move_if_noexceptB8ue170006INS_9allocatorIN2sf6SpriteEEENS_16reverse_iteratorIPS3_EES7_S7_EET2_RT_T0_T1_S8_, symObjAddr: 0xE044, symBinAddr: 0x10000FC60, symSize: 0x12C }
  - { offsetInCU: 0x254D0, offset: 0x5FC01, size: 0x8, addend: 0x0, symName: __ZNSt3__14swapB8ue170006IPN2sf6SpriteEEENS_9enable_ifIXaasr21is_move_constructibleIT_EE5valuesr18is_move_assignableIS5_EE5valueEvE4typeERS5_S8_, symObjAddr: 0xE1BC, symBinAddr: 0x10000FDD8, symSize: 0x3C }
  - { offsetInCU: 0x25521, offset: 0x5FC52, size: 0x8, addend: 0x0, symName: __ZNSt3__122__make_exception_guardB8ue170006INS_29_AllocatorDestroyRangeReverseINS_9allocatorIN2sf6SpriteEEENS_16reverse_iteratorIPS4_EEEEEENS_28__exception_guard_exceptionsIT_EESB_, symObjAddr: 0xE2C0, symBinAddr: 0x10000FEDC, symSize: 0x4C }
  - { offsetInCU: 0x25558, offset: 0x5FC89, size: 0x8, addend: 0x0, symName: __ZNSt3__1neB8ue170006IPN2sf6SpriteES3_EEbRKNS_16reverse_iteratorIT_EERKNS4_IT0_EE, symObjAddr: 0xE350, symBinAddr: 0x10000FF6C, symSize: 0x48 }
  - { offsetInCU: 0x255A5, offset: 0x5FCD6, size: 0x8, addend: 0x0, symName: __ZNSt3__112__to_addressB8ue170006INS_16reverse_iteratorIPN2sf6SpriteEEEvEEu7__decayIDTclsr19__to_address_helperIT_EE6__callclsr3stdE7declvalIRKS6_EEEEES8_, symObjAddr: 0xE3CC, symBinAddr: 0x10000FFE8, symSize: 0x24 }
  - { offsetInCU: 0x25607, offset: 0x5FD38, size: 0x8, addend: 0x0, symName: __ZNSt3__119__allocator_destroyB8ue170006INS_9allocatorIN2sf6SpriteEEENS_16reverse_iteratorINS5_IPS3_EEEES8_EEvRT_T0_T1_, symObjAddr: 0xE768, symBinAddr: 0x100010384, symSize: 0x70 }
  - { offsetInCU: 0x2566B, offset: 0x5FD9C, size: 0x8, addend: 0x0, symName: __ZNSt3__1neB8ue170006INS_16reverse_iteratorIPN2sf6SpriteEEES5_EEbRKNS1_IT_EERKNS1_IT0_EE, symObjAddr: 0xE814, symBinAddr: 0x100010430, symSize: 0x60 }
  - { offsetInCU: 0x256B8, offset: 0x5FDE9, size: 0x8, addend: 0x0, symName: __ZNSt3__112__to_addressB8ue170006INS_16reverse_iteratorINS1_IPN2sf6SpriteEEEEEvEEu7__decayIDTclsr19__to_address_helperIT_EE6__callclsr3stdE7declvalIRKS7_EEEEES9_, symObjAddr: 0xE874, symBinAddr: 0x100010490, symSize: 0x24 }
  - { offsetInCU: 0x2571A, offset: 0x5FE4B, size: 0x8, addend: 0x0, symName: __ZNSt3__117holds_alternativeB8ue170006IN2sf5Event6ClosedEJS3_NS2_7ResizedENS2_9FocusLostENS2_11FocusGainedENS2_11TextEnteredENS2_10KeyPressedENS2_11KeyReleasedENS2_18MouseWheelScrolledENS2_18MouseButtonPressedENS2_19MouseButtonReleasedENS2_10MouseMovedENS2_13MouseMovedRawENS2_12MouseEnteredENS2_9MouseLeftENS2_21JoystickButtonPressedENS2_22JoystickButtonReleasedENS2_13JoystickMovedENS2_17JoystickConnectedENS2_20JoystickDisconnectedENS2_10TouchBeganENS2_10TouchMovedENS2_10TouchEndedENS2_13SensorChangedEEEEbRKNS_7variantIJDpT0_EEE, symObjAddr: 0xEC14, symBinAddr: 0x100010830, symSize: 0x28 }
  - { offsetInCU: 0x257CA, offset: 0x5FEFB, size: 0x8, addend: 0x0, symName: __ZNSt3__119__holds_alternativeB8ue170006ILm0EJN2sf5Event6ClosedENS2_7ResizedENS2_9FocusLostENS2_11FocusGainedENS2_11TextEnteredENS2_10KeyPressedENS2_11KeyReleasedENS2_18MouseWheelScrolledENS2_18MouseButtonPressedENS2_19MouseButtonReleasedENS2_10MouseMovedENS2_13MouseMovedRawENS2_12MouseEnteredENS2_9MouseLeftENS2_21JoystickButtonPressedENS2_22JoystickButtonReleasedENS2_13JoystickMovedENS2_17JoystickConnectedENS2_20JoystickDisconnectedENS2_10TouchBeganENS2_10TouchMovedENS2_10TouchEndedENS2_13SensorChangedEEEEbRKNS_7variantIJDpT0_EEE, symObjAddr: 0xEC3C, symBinAddr: 0x100010858, symSize: 0x30 }
  - { offsetInCU: 0x25BDE, offset: 0x6030F, size: 0x8, addend: 0x0, symName: __ZSt28__throw_bad_array_new_lengthB8ue170006v, symObjAddr: 0xA628, symBinAddr: 0x10000C244, symSize: 0x34 }
  - { offsetInCU: 0x28BDC, offset: 0x6330D, size: 0x8, addend: 0x0, symName: __ZNKSt3__16chrono15__duration_castINS0_8durationIxNS_5ratioILl1ELl1000000EEEEENS2_IfNS3_ILl1ELl1EEEEES4_Lb1ELb0EEclB8ue170006ERKS5_, symObjAddr: 0x7640, symBinAddr: 0x10000AD6C, symSize: 0x54 }
  - { offsetInCU: 0x29146, offset: 0x63877, size: 0x8, addend: 0x0, symName: __ZNSt3__16vectorI8PlatformNS_9allocatorIS1_EEE26__swap_out_circular_bufferERNS_14__split_bufferIS1_RS3_EE, symObjAddr: 0x9F28, symBinAddr: 0x10000BB44, symSize: 0x110 }
  - { offsetInCU: 0x292BC, offset: 0x639ED, size: 0x8, addend: 0x0, symName: __ZNSt3__16vectorIN2sf6SpriteENS_9allocatorIS2_EEE26__swap_out_circular_bufferERNS_14__split_bufferIS2_RS4_EE, symObjAddr: 0xDB14, symBinAddr: 0x10000F730, symSize: 0x110 }
  - { offsetInCU: 0x2B4A4, offset: 0x65BD5, size: 0x8, addend: 0x0, symName: __ZN4GameC2Ev, symObjAddr: 0x0, symBinAddr: 0x100007FA4, symSize: 0xA58 }
  - { offsetInCU: 0x2B66A, offset: 0x65D9B, size: 0x8, addend: 0x0, symName: __ZN2sf7Vector2IjEC1Ejj, symObjAddr: 0xA58, symBinAddr: 0x1000089FC, symSize: 0x3C }
  - { offsetInCU: 0x2B6B2, offset: 0x65DE3, size: 0x8, addend: 0x0, symName: __ZN2sf6StringD1Ev, symObjAddr: 0xA94, symBinAddr: 0x100008A38, symSize: 0x2C }
  - { offsetInCU: 0x2B6DE, offset: 0x65E0F, size: 0x8, addend: 0x0, symName: __ZNSt3__110unique_ptrI6PlayerNS_14default_deleteIS1_EEEC1B8ue170006ILb1EvEEv, symObjAddr: 0xAC0, symBinAddr: 0x100008A64, symSize: 0x2C }
  - { offsetInCU: 0x2B713, offset: 0x65E44, size: 0x8, addend: 0x0, symName: __ZNSt3__16vectorI8PlatformNS_9allocatorIS1_EEEC1B8ue170006Ev, symObjAddr: 0xAEC, symBinAddr: 0x100008A90, symSize: 0x2C }
  - { offsetInCU: 0x2B73D, offset: 0x65E6E, size: 0x8, addend: 0x0, symName: __ZNSt3__110unique_ptrI5LevelNS_14default_deleteIS1_EEEC1B8ue170006ILb1EvEEv, symObjAddr: 0xB18, symBinAddr: 0x100008ABC, symSize: 0x2C }
  - { offsetInCU: 0x2B772, offset: 0x65EA3, size: 0x8, addend: 0x0, symName: __ZNSt3__110unique_ptrI6AssetsNS_14default_deleteIS1_EEEC1B8ue170006ILb1EvEEv, symObjAddr: 0xB44, symBinAddr: 0x100008AE8, symSize: 0x2C }
  - { offsetInCU: 0x2B7A7, offset: 0x65ED8, size: 0x8, addend: 0x0, symName: __ZNSt3__110unique_ptrIN2sf6SpriteENS_14default_deleteIS2_EEEC1B8ue170006ILb1EvEEv, symObjAddr: 0xB70, symBinAddr: 0x100008B14, symSize: 0x2C }
  - { offsetInCU: 0x2B7DC, offset: 0x65F0D, size: 0x8, addend: 0x0, symName: __ZNSt3__16vectorIN2sf6SpriteENS_9allocatorIS2_EEEC1B8ue170006Ev, symObjAddr: 0xB9C, symBinAddr: 0x100008B40, symSize: 0x2C }
  - { offsetInCU: 0x2B806, offset: 0x65F37, size: 0x8, addend: 0x0, symName: __ZNSt3__110unique_ptrI6PlayerNS_14default_deleteIS1_EEEaSB8ue170006EOS4_, symObjAddr: 0xC44, symBinAddr: 0x100008BE8, symSize: 0x50 }
  - { offsetInCU: 0x2B83F, offset: 0x65F70, size: 0x8, addend: 0x0, symName: __ZNSt3__16vectorI8PlatformNS_9allocatorIS1_EEE12emplace_backIJN2sf7Vector2IfEES8_EEERS1_DpOT_, symObjAddr: 0xCC0, symBinAddr: 0x100008C38, symSize: 0x80 }
  - { offsetInCU: 0x2B895, offset: 0x65FC6, size: 0x8, addend: 0x0, symName: __ZN2sf7Vector2IfEC1Eff, symObjAddr: 0xD40, symBinAddr: 0x100008CB8, symSize: 0x3C }
  - { offsetInCU: 0x2B8F5, offset: 0x66026, size: 0x8, addend: 0x0, symName: __ZNSt3__14__fs10filesystem4pathC1B8ue170006IA109_cvEERKT_NS2_6formatE, symObjAddr: 0xD7C, symBinAddr: 0x100008CF4, symSize: 0x3C }
  - { offsetInCU: 0x2B944, offset: 0x66075, size: 0x8, addend: 0x0, symName: __ZN2sf4RectIiEC1Ev, symObjAddr: 0xDB8, symBinAddr: 0x100008D30, symSize: 0x2C }
  - { offsetInCU: 0x2B96E, offset: 0x6609F, size: 0x8, addend: 0x0, symName: __ZNSt3__14__fs10filesystem4pathD1B8ue170006Ev, symObjAddr: 0xDE4, symBinAddr: 0x100008D5C, symSize: 0x2C }
  - { offsetInCU: 0x2B998, offset: 0x660C9, size: 0x8, addend: 0x0, symName: __ZNSt3__113basic_ostreamIcNS_11char_traitsIcEEElsB8ue170006EPFRS3_S4_E, symObjAddr: 0xE58, symBinAddr: 0x100008DD0, symSize: 0x2C }
  - { offsetInCU: 0x2B9CC, offset: 0x660FD, size: 0x8, addend: 0x0, symName: __ZNSt3__110unique_ptrIN2sf6SpriteENS_14default_deleteIS2_EEEaSB8ue170006EOS5_, symObjAddr: 0xF48, symBinAddr: 0x100008EC0, symSize: 0x50 }
  - { offsetInCU: 0x2BA00, offset: 0x66131, size: 0x8, addend: 0x0, symName: __ZNKSt3__110unique_ptrIN2sf6SpriteENS_14default_deleteIS2_EEEptB8ue170006Ev, symObjAddr: 0xFC4, symBinAddr: 0x100008F10, symSize: 0x28 }
  - { offsetInCU: 0x2BA2B, offset: 0x6615C, size: 0x8, addend: 0x0, symName: __ZNSt3__112basic_stringIcNS_11char_traitsIcEENS_9allocatorIcEEEC1B8ue170006ILi0EEEPKc, symObjAddr: 0xFEC, symBinAddr: 0x100008F38, symSize: 0x34 }
  - { offsetInCU: 0x2BA6B, offset: 0x6619C, size: 0x8, addend: 0x0, symName: __ZNK3tmx3Map11getTilesetsEv, symObjAddr: 0x1020, symBinAddr: 0x100008F6C, symSize: 0x18 }
  - { offsetInCU: 0x2BA91, offset: 0x661C2, size: 0x8, addend: 0x0, symName: __ZNKSt3__16vectorIN3tmx7TilesetENS_9allocatorIS2_EEE5emptyB8ue170006Ev, symObjAddr: 0x1038, symBinAddr: 0x100008F84, symSize: 0x28 }
  - { offsetInCU: 0x2BAB7, offset: 0x661E8, size: 0x8, addend: 0x0, symName: __ZNKSt3__16vectorIN3tmx7TilesetENS_9allocatorIS2_EEEixB8ue170006Em, symObjAddr: 0x1060, symBinAddr: 0x100008FAC, symSize: 0x2C }
  - { offsetInCU: 0x2BAEE, offset: 0x6621F, size: 0x8, addend: 0x0, symName: __ZNK3tmx7Tileset12getImagePathEv, symObjAddr: 0x108C, symBinAddr: 0x100008FD8, symSize: 0x18 }
  - { offsetInCU: 0x2BB14, offset: 0x66245, size: 0x8, addend: 0x0, symName: __ZNSt3__14__fs10filesystem4pathC1B8ue170006INS_12basic_stringIcNS_11char_traitsIcEENS_9allocatorIcEEEEvEERKT_NS2_6formatE, symObjAddr: 0x10A4, symBinAddr: 0x100008FF0, symSize: 0x3C }
  - { offsetInCU: 0x2BB63, offset: 0x66294, size: 0x8, addend: 0x0, symName: __ZNK3tmx3Map9getLayersEv, symObjAddr: 0x10E0, symBinAddr: 0x10000902C, symSize: 0x18 }
  - { offsetInCU: 0x2BB89, offset: 0x662BA, size: 0x8, addend: 0x0, symName: __ZNKSt3__16vectorINS_10unique_ptrIN3tmx5LayerENS_14default_deleteIS3_EEEENS_9allocatorIS6_EEE5beginB8ue170006Ev, symObjAddr: 0x10F8, symBinAddr: 0x100009044, symSize: 0x30 }
  - { offsetInCU: 0x2BBB1, offset: 0x662E2, size: 0x8, addend: 0x0, symName: __ZNKSt3__16vectorINS_10unique_ptrIN3tmx5LayerENS_14default_deleteIS3_EEEENS_9allocatorIS6_EEE3endB8ue170006Ev, symObjAddr: 0x1128, symBinAddr: 0x100009074, symSize: 0x30 }
  - { offsetInCU: 0x2BBD9, offset: 0x6630A, size: 0x8, addend: 0x0, symName: __ZNKSt3__111__wrap_iterIPKNS_10unique_ptrIN3tmx5LayerENS_14default_deleteIS3_EEEEEdeB8ue170006Ev, symObjAddr: 0x118C, symBinAddr: 0x1000090D8, symSize: 0x18 }
  - { offsetInCU: 0x2BBFF, offset: 0x66330, size: 0x8, addend: 0x0, symName: __ZNKSt3__110unique_ptrIN3tmx5LayerENS_14default_deleteIS2_EEEptB8ue170006Ev, symObjAddr: 0x11A4, symBinAddr: 0x1000090F0, symSize: 0x28 }
  - { offsetInCU: 0x2BC2A, offset: 0x6635B, size: 0x8, addend: 0x0, symName: __ZN3tmx5Layer10getLayerAsINS_9TileLayerEEERT_v, symObjAddr: 0x11CC, symBinAddr: 0x100009118, symSize: 0x68 }
  - { offsetInCU: 0x2BC59, offset: 0x6638A, size: 0x8, addend: 0x0, symName: __ZNK3tmx3Map12getTileCountEv, symObjAddr: 0x1234, symBinAddr: 0x100009180, symSize: 0x18 }
  - { offsetInCU: 0x2BC7F, offset: 0x663B0, size: 0x8, addend: 0x0, symName: __ZNK3tmx3Map11getTileSizeEv, symObjAddr: 0x124C, symBinAddr: 0x100009198, symSize: 0x18 }
  - { offsetInCU: 0x2BCA5, offset: 0x663D6, size: 0x8, addend: 0x0, symName: __ZNK3tmx9TileLayer8getTilesEv, symObjAddr: 0x1264, symBinAddr: 0x1000091B0, symSize: 0x18 }
  - { offsetInCU: 0x2BCCB, offset: 0x663FC, size: 0x8, addend: 0x0, symName: __ZNKSt3__16vectorIN3tmx9TileLayer4TileENS_9allocatorIS3_EEEixB8ue170006Em, symObjAddr: 0x127C, symBinAddr: 0x1000091C8, symSize: 0x24 }
  - { offsetInCU: 0x2BD02, offset: 0x66433, size: 0x8, addend: 0x0, symName: __ZNK3tmx7Tileset11getFirstGIDEv, symObjAddr: 0x12A0, symBinAddr: 0x1000091EC, symSize: 0x18 }
  - { offsetInCU: 0x2BD28, offset: 0x66459, size: 0x8, addend: 0x0, symName: __ZN2sf7Vector2IiEC1Eii, symObjAddr: 0x12B8, symBinAddr: 0x100009204, symSize: 0x3C }
  - { offsetInCU: 0x2BD70, offset: 0x664A1, size: 0x8, addend: 0x0, symName: __ZN2sf4RectIiEC1ENS_7Vector2IiEES3_, symObjAddr: 0x12F4, symBinAddr: 0x100009240, symSize: 0x3C }
  - { offsetInCU: 0x2BDB8, offset: 0x664E9, size: 0x8, addend: 0x0, symName: __ZNSt3__16vectorIN2sf6SpriteENS_9allocatorIS2_EEE9push_backB8ue170006ERKS2_, symObjAddr: 0x1330, symBinAddr: 0x10000927C, symSize: 0x6C }
  - { offsetInCU: 0x2BDEF, offset: 0x66520, size: 0x8, addend: 0x0, symName: __ZN2sf6SpriteD1Ev, symObjAddr: 0x139C, symBinAddr: 0x1000092E8, symSize: 0x2C }
  - { offsetInCU: 0x2BE1B, offset: 0x6654C, size: 0x8, addend: 0x0, symName: __ZNSt3__111__wrap_iterIPKNS_10unique_ptrIN3tmx5LayerENS_14default_deleteIS3_EEEEEppB8ue170006Ev, symObjAddr: 0x13C8, symBinAddr: 0x100009314, symSize: 0x20 }
  - { offsetInCU: 0x2BE41, offset: 0x66572, size: 0x8, addend: 0x0, symName: __ZN4GameC1Ev, symObjAddr: 0x14F0, symBinAddr: 0x100009334, symSize: 0x2C }
  - { offsetInCU: 0x2BE6D, offset: 0x6659E, size: 0x8, addend: 0x0, symName: __ZN4Game3runEv, symObjAddr: 0x151C, symBinAddr: 0x100009360, symSize: 0x118 }
  - { offsetInCU: 0x2BED1, offset: 0x66602, size: 0x8, addend: 0x0, symName: __ZN2sf4RectIfEC1ENS_7Vector2IfEES3_, symObjAddr: 0x1634, symBinAddr: 0x100009478, symSize: 0x4C }
  - { offsetInCU: 0x2BF19, offset: 0x6664A, size: 0x8, addend: 0x0, symName: __ZN2sf5ClockC1Ev, symObjAddr: 0x1680, symBinAddr: 0x1000094C4, symSize: 0x2C }
  - { offsetInCU: 0x2BF45, offset: 0x66676, size: 0x8, addend: 0x0, symName: __ZNK2sf4Time9asSecondsEv, symObjAddr: 0x16AC, symBinAddr: 0x1000094F0, symSize: 0x38 }
  - { offsetInCU: 0x2BF6D, offset: 0x6669E, size: 0x8, addend: 0x0, symName: __ZN4Game13processEventsEv, symObjAddr: 0x16E4, symBinAddr: 0x100009528, symSize: 0x64 }
  - { offsetInCU: 0x2BFAB, offset: 0x666DC, size: 0x8, addend: 0x0, symName: __ZN4Game6updateEf, symObjAddr: 0x1748, symBinAddr: 0x10000958C, symSize: 0xAC }
  - { offsetInCU: 0x2BFE1, offset: 0x66712, size: 0x8, addend: 0x0, symName: __ZNKSt3__110unique_ptrI6PlayerNS_14default_deleteIS1_EEEptB8ue170006Ev, symObjAddr: 0x17F4, symBinAddr: 0x100009638, symSize: 0x28 }
  - { offsetInCU: 0x2C007, offset: 0x66738, size: 0x8, addend: 0x0, symName: __ZN4Game6renderEv, symObjAddr: 0x181C, symBinAddr: 0x100009660, symSize: 0x3A4 }
  - { offsetInCU: 0x2C127, offset: 0x66858, size: 0x8, addend: 0x0, symName: __ZNKSt3__18optionalIN2sf5EventEEcvbB8ue170006Ev, symObjAddr: 0x1BC0, symBinAddr: 0x100009A04, symSize: 0x28 }
  - { offsetInCU: 0x2C14D, offset: 0x6687E, size: 0x8, addend: 0x0, symName: __ZNSt3__18optionalIN2sf5EventEEptB8ue170006Ev, symObjAddr: 0x1BE8, symBinAddr: 0x100009A2C, symSize: 0x24 }
  - { offsetInCU: 0x2C178, offset: 0x668A9, size: 0x8, addend: 0x0, symName: __ZNK2sf5Event2isINS0_6ClosedEEEbv, symObjAddr: 0x1C0C, symBinAddr: 0x100009A50, symSize: 0x28 }
  - { offsetInCU: 0x2C1A7, offset: 0x668D8, size: 0x8, addend: 0x0, symName: __ZN4Game16handleCollisionsEf, symObjAddr: 0x1C34, symBinAddr: 0x100009A78, symSize: 0x324 }
  - { offsetInCU: 0x2C29E, offset: 0x669CF, size: 0x8, addend: 0x0, symName: __ZN4Game11resetPlayerEv, symObjAddr: 0x1F58, symBinAddr: 0x100009D9C, symSize: 0xC4 }
  - { offsetInCU: 0x2C2C6, offset: 0x669F7, size: 0x8, addend: 0x0, symName: __ZNKSt3__110unique_ptrIN2sf6SpriteENS_14default_deleteIS2_EEEcvbB8ue170006Ev, symObjAddr: 0x201C, symBinAddr: 0x100009E60, symSize: 0x34 }
  - { offsetInCU: 0x2C2EC, offset: 0x66A1D, size: 0x8, addend: 0x0, symName: __ZNKSt3__110unique_ptrIN2sf6SpriteENS_14default_deleteIS2_EEEdeB8ue170006Ev, symObjAddr: 0x2050, symBinAddr: 0x100009E94, symSize: 0x28 }
  - { offsetInCU: 0x2C312, offset: 0x66A43, size: 0x8, addend: 0x0, symName: __ZNSt3__16vectorIN2sf6SpriteENS_9allocatorIS2_EEE5beginB8ue170006Ev, symObjAddr: 0x2078, symBinAddr: 0x100009EBC, symSize: 0x30 }
  - { offsetInCU: 0x2C33A, offset: 0x66A6B, size: 0x8, addend: 0x0, symName: __ZNSt3__16vectorIN2sf6SpriteENS_9allocatorIS2_EEE3endB8ue170006Ev, symObjAddr: 0x20A8, symBinAddr: 0x100009EEC, symSize: 0x30 }
  - { offsetInCU: 0x2C362, offset: 0x66A93, size: 0x8, addend: 0x0, symName: __ZNKSt3__111__wrap_iterIPN2sf6SpriteEEdeB8ue170006Ev, symObjAddr: 0x210C, symBinAddr: 0x100009F50, symSize: 0x18 }
  - { offsetInCU: 0x2C388, offset: 0x66AB9, size: 0x8, addend: 0x0, symName: __ZNSt3__111__wrap_iterIPN2sf6SpriteEEppB8ue170006Ev, symObjAddr: 0x2124, symBinAddr: 0x100009F68, symSize: 0x20 }
  - { offsetInCU: 0x2C3AE, offset: 0x66ADF, size: 0x8, addend: 0x0, symName: __ZN2sf5ColorC1Ehhhh, symObjAddr: 0x2144, symBinAddr: 0x100009F88, symSize: 0x4C }
  - { offsetInCU: 0x2C412, offset: 0x66B43, size: 0x8, addend: 0x0, symName: __ZNSt3__16vectorI8PlatformNS_9allocatorIS1_EEE5beginB8ue170006Ev, symObjAddr: 0x2190, symBinAddr: 0x100009FD4, symSize: 0x30 }
  - { offsetInCU: 0x2C43A, offset: 0x66B6B, size: 0x8, addend: 0x0, symName: __ZNSt3__16vectorI8PlatformNS_9allocatorIS1_EEE3endB8ue170006Ev, symObjAddr: 0x21C0, symBinAddr: 0x10000A004, symSize: 0x30 }
  - { offsetInCU: 0x2C462, offset: 0x66B93, size: 0x8, addend: 0x0, symName: __ZNKSt3__111__wrap_iterIP8PlatformEdeB8ue170006Ev, symObjAddr: 0x2224, symBinAddr: 0x10000A068, symSize: 0x18 }
  - { offsetInCU: 0x2C488, offset: 0x66BB9, size: 0x8, addend: 0x0, symName: __ZNSt3__111__wrap_iterIP8PlatformEppB8ue170006Ev, symObjAddr: 0x223C, symBinAddr: 0x10000A080, symSize: 0x20 }
  - { offsetInCU: 0x2C4AE, offset: 0x66BDF, size: 0x8, addend: 0x0, symName: __ZNK2sf4RectIfE16findIntersectionERKS1_, symObjAddr: 0x2288, symBinAddr: 0x10000A0A0, symSize: 0x238 }
  - { offsetInCU: 0x2C5FF, offset: 0x66D30, size: 0x8, addend: 0x0, symName: __ZNKSt3__123__optional_storage_baseIN2sf4RectIfEELb0EE9has_valueB8ue170006Ev, symObjAddr: 0x24C0, symBinAddr: 0x10000A2D8, symSize: 0x1C }
  - { offsetInCU: 0x2C625, offset: 0x66D56, size: 0x8, addend: 0x0, symName: __ZN2sf7Vector2IjEC2Ejj, symObjAddr: 0x24DC, symBinAddr: 0x10000A2F4, symSize: 0x2C }
  - { offsetInCU: 0x2C66D, offset: 0x66D9E, size: 0x8, addend: 0x0, symName: __ZN2sf6StringD2Ev, symObjAddr: 0x2508, symBinAddr: 0x10000A320, symSize: 0x2C }
  - { offsetInCU: 0x2C699, offset: 0x66DCA, size: 0x8, addend: 0x0, symName: __ZNSt3__112basic_stringIDiNS_11char_traitsIDiEENS_9allocatorIDiEEED1Ev, symObjAddr: 0x2534, symBinAddr: 0x10000A34C, symSize: 0x2C }
  - { offsetInCU: 0x2C6C3, offset: 0x66DF4, size: 0x8, addend: 0x0, symName: __ZNSt3__112basic_stringIDiNS_11char_traitsIDiEENS_9allocatorIDiEEED2Ev, symObjAddr: 0x2560, symBinAddr: 0x10000A378, symSize: 0x74 }
  - { offsetInCU: 0x2C6ED, offset: 0x66E1E, size: 0x8, addend: 0x0, symName: __ZNKSt3__112basic_stringIDiNS_11char_traitsIDiEENS_9allocatorIDiEEE9__is_longB8ue170006Ev, symObjAddr: 0x25D4, symBinAddr: 0x10000A3EC, symSize: 0x38 }
  - { offsetInCU: 0x2C713, offset: 0x66E44, size: 0x8, addend: 0x0, symName: __ZNSt3__116allocator_traitsINS_9allocatorIDiEEE10deallocateB8ue170006ERS2_PDim, symObjAddr: 0x260C, symBinAddr: 0x10000A424, symSize: 0x34 }
  - { offsetInCU: 0x2C755, offset: 0x66E86, size: 0x8, addend: 0x0, symName: __ZNSt3__112basic_stringIDiNS_11char_traitsIDiEENS_9allocatorIDiEEE7__allocB8ue170006Ev, symObjAddr: 0x2640, symBinAddr: 0x10000A458, symSize: 0x24 }
  - { offsetInCU: 0x2C77B, offset: 0x66EAC, size: 0x8, addend: 0x0, symName: __ZNSt3__112basic_stringIDiNS_11char_traitsIDiEENS_9allocatorIDiEEE18__get_long_pointerB8ue170006Ev, symObjAddr: 0x2664, symBinAddr: 0x10000A47C, symSize: 0x28 }
  - { offsetInCU: 0x2C7A1, offset: 0x66ED2, size: 0x8, addend: 0x0, symName: __ZNKSt3__112basic_stringIDiNS_11char_traitsIDiEENS_9allocatorIDiEEE14__get_long_capB8ue170006Ev, symObjAddr: 0x268C, symBinAddr: 0x10000A4A4, symSize: 0x30 }
  - { offsetInCU: 0x2C7C7, offset: 0x66EF8, size: 0x8, addend: 0x0, symName: __ZNKSt3__117__compressed_pairINS_12basic_stringIDiNS_11char_traitsIDiEENS_9allocatorIDiEEE5__repES5_E5firstB8ue170006Ev, symObjAddr: 0x26BC, symBinAddr: 0x10000A4D4, symSize: 0x24 }
  - { offsetInCU: 0x2C7ED, offset: 0x66F1E, size: 0x8, addend: 0x0, symName: __ZNKSt3__122__compressed_pair_elemINS_12basic_stringIDiNS_11char_traitsIDiEENS_9allocatorIDiEEE5__repELi0ELb0EE5__getB8ue170006Ev, symObjAddr: 0x26E0, symBinAddr: 0x10000A4F8, symSize: 0x14 }
  - { offsetInCU: 0x2C813, offset: 0x66F44, size: 0x8, addend: 0x0, symName: __ZNSt3__19allocatorIDiE10deallocateB8ue170006EPDim, symObjAddr: 0x26F4, symBinAddr: 0x10000A50C, symSize: 0x40 }
  - { offsetInCU: 0x2C855, offset: 0x66F86, size: 0x8, addend: 0x0, symName: __ZNSt3__117__compressed_pairINS_12basic_stringIDiNS_11char_traitsIDiEENS_9allocatorIDiEEE5__repES5_E6secondB8ue170006Ev, symObjAddr: 0x2868, symBinAddr: 0x10000A54C, symSize: 0x24 }
  - { offsetInCU: 0x2C87B, offset: 0x66FAC, size: 0x8, addend: 0x0, symName: __ZNSt3__122__compressed_pair_elemINS_9allocatorIDiEELi1ELb1EE5__getB8ue170006Ev, symObjAddr: 0x288C, symBinAddr: 0x10000A570, symSize: 0x14 }
  - { offsetInCU: 0x2C8A1, offset: 0x66FD2, size: 0x8, addend: 0x0, symName: __ZNSt3__117__compressed_pairINS_12basic_stringIDiNS_11char_traitsIDiEENS_9allocatorIDiEEE5__repES5_E5firstB8ue170006Ev, symObjAddr: 0x28A0, symBinAddr: 0x10000A584, symSize: 0x24 }
  - { offsetInCU: 0x2C8C7, offset: 0x66FF8, size: 0x8, addend: 0x0, symName: __ZNSt3__122__compressed_pair_elemINS_12basic_stringIDiNS_11char_traitsIDiEENS_9allocatorIDiEEE5__repELi0ELb0EE5__getB8ue170006Ev, symObjAddr: 0x28C4, symBinAddr: 0x10000A5A8, symSize: 0x14 }
  - { offsetInCU: 0x2C8ED, offset: 0x6701E, size: 0x8, addend: 0x0, symName: __ZNSt3__110unique_ptrI6PlayerNS_14default_deleteIS1_EEEC2B8ue170006ILb1EvEEv, symObjAddr: 0x28D8, symBinAddr: 0x10000A5BC, symSize: 0x3C }
  - { offsetInCU: 0x2C927, offset: 0x67058, size: 0x8, addend: 0x0, symName: __ZNSt3__117__compressed_pairIP6PlayerNS_14default_deleteIS1_EEEC1B8ue170006INS_16__value_init_tagES7_EEOT_OT0_, symObjAddr: 0x2914, symBinAddr: 0x10000A5F8, symSize: 0x3C }
  - { offsetInCU: 0x2C97F, offset: 0x670B0, size: 0x8, addend: 0x0, symName: __ZNSt3__117__compressed_pairIP6PlayerNS_14default_deleteIS1_EEEC2B8ue170006INS_16__value_init_tagES7_EEOT_OT0_, symObjAddr: 0x2950, symBinAddr: 0x10000A634, symSize: 0x3C }
  - { offsetInCU: 0x2C9D7, offset: 0x67108, size: 0x8, addend: 0x0, symName: __ZNSt3__122__compressed_pair_elemIP6PlayerLi0ELb0EEC2B8ue170006ENS_16__value_init_tagE, symObjAddr: 0x298C, symBinAddr: 0x10000A670, symSize: 0x18 }
  - { offsetInCU: 0x2CA0C, offset: 0x6713D, size: 0x8, addend: 0x0, symName: __ZNSt3__122__compressed_pair_elemINS_14default_deleteI6PlayerEELi1ELb1EEC2B8ue170006ENS_16__value_init_tagE, symObjAddr: 0x29A4, symBinAddr: 0x10000A688, symSize: 0x14 }
  - { offsetInCU: 0x2CA41, offset: 0x67172, size: 0x8, addend: 0x0, symName: __ZNSt3__110unique_ptrI5LevelNS_14default_deleteIS1_EEEC2B8ue170006ILb1EvEEv, symObjAddr: 0x29B8, symBinAddr: 0x10000A69C, symSize: 0x3C }
  - { offsetInCU: 0x2CA76, offset: 0x671A7, size: 0x8, addend: 0x0, symName: __ZNSt3__117__compressed_pairIP5LevelNS_14default_deleteIS1_EEEC1B8ue170006INS_16__value_init_tagES7_EEOT_OT0_, symObjAddr: 0x29F4, symBinAddr: 0x10000A6D8, symSize: 0x3C }
  - { offsetInCU: 0x2CACE, offset: 0x671FF, size: 0x8, addend: 0x0, symName: __ZNSt3__117__compressed_pairIP5LevelNS_14default_deleteIS1_EEEC2B8ue170006INS_16__value_init_tagES7_EEOT_OT0_, symObjAddr: 0x2A30, symBinAddr: 0x10000A714, symSize: 0x3C }
  - { offsetInCU: 0x2CB26, offset: 0x67257, size: 0x8, addend: 0x0, symName: __ZNSt3__122__compressed_pair_elemIP5LevelLi0ELb0EEC2B8ue170006ENS_16__value_init_tagE, symObjAddr: 0x2A6C, symBinAddr: 0x10000A750, symSize: 0x18 }
  - { offsetInCU: 0x2CB5B, offset: 0x6728C, size: 0x8, addend: 0x0, symName: __ZNSt3__122__compressed_pair_elemINS_14default_deleteI5LevelEELi1ELb1EEC2B8ue170006ENS_16__value_init_tagE, symObjAddr: 0x2A84, symBinAddr: 0x10000A768, symSize: 0x14 }
  - { offsetInCU: 0x2CB90, offset: 0x672C1, size: 0x8, addend: 0x0, symName: __ZNSt3__110unique_ptrI6AssetsNS_14default_deleteIS1_EEEC2B8ue170006ILb1EvEEv, symObjAddr: 0x2A98, symBinAddr: 0x10000A77C, symSize: 0x3C }
  - { offsetInCU: 0x2CBC5, offset: 0x672F6, size: 0x8, addend: 0x0, symName: __ZNSt3__117__compressed_pairIP6AssetsNS_14default_deleteIS1_EEEC1B8ue170006INS_16__value_init_tagES7_EEOT_OT0_, symObjAddr: 0x2AD4, symBinAddr: 0x10000A7B8, symSize: 0x3C }
  - { offsetInCU: 0x2CC1D, offset: 0x6734E, size: 0x8, addend: 0x0, symName: __ZNSt3__117__compressed_pairIP6AssetsNS_14default_deleteIS1_EEEC2B8ue170006INS_16__value_init_tagES7_EEOT_OT0_, symObjAddr: 0x2B10, symBinAddr: 0x10000A7F4, symSize: 0x3C }
  - { offsetInCU: 0x2CC75, offset: 0x673A6, size: 0x8, addend: 0x0, symName: __ZNSt3__122__compressed_pair_elemIP6AssetsLi0ELb0EEC2B8ue170006ENS_16__value_init_tagE, symObjAddr: 0x2B4C, symBinAddr: 0x10000A830, symSize: 0x18 }
  - { offsetInCU: 0x2CCAA, offset: 0x673DB, size: 0x8, addend: 0x0, symName: __ZNSt3__122__compressed_pair_elemINS_14default_deleteI6AssetsEELi1ELb1EEC2B8ue170006ENS_16__value_init_tagE, symObjAddr: 0x2B64, symBinAddr: 0x10000A848, symSize: 0x14 }
  - { offsetInCU: 0x2CCDF, offset: 0x67410, size: 0x8, addend: 0x0, symName: __ZNSt3__110unique_ptrIN2sf6SpriteENS_14default_deleteIS2_EEEC2B8ue170006ILb1EvEEv, symObjAddr: 0x2B78, symBinAddr: 0x10000A85C, symSize: 0x3C }
  - { offsetInCU: 0x2CD14, offset: 0x67445, size: 0x8, addend: 0x0, symName: __ZNSt3__117__compressed_pairIPN2sf6SpriteENS_14default_deleteIS2_EEEC1B8ue170006INS_16__value_init_tagES8_EEOT_OT0_, symObjAddr: 0x2BB4, symBinAddr: 0x10000A898, symSize: 0x3C }
  - { offsetInCU: 0x2CD6C, offset: 0x6749D, size: 0x8, addend: 0x0, symName: __ZNSt3__117__compressed_pairIPN2sf6SpriteENS_14default_deleteIS2_EEEC2B8ue170006INS_16__value_init_tagES8_EEOT_OT0_, symObjAddr: 0x2BF0, symBinAddr: 0x10000A8D4, symSize: 0x3C }
  - { offsetInCU: 0x2CDC4, offset: 0x674F5, size: 0x8, addend: 0x0, symName: __ZNSt3__122__compressed_pair_elemIPN2sf6SpriteELi0ELb0EEC2B8ue170006ENS_16__value_init_tagE, symObjAddr: 0x2C2C, symBinAddr: 0x10000A910, symSize: 0x18 }
  - { offsetInCU: 0x2CDF9, offset: 0x6752A, size: 0x8, addend: 0x0, symName: __ZNSt3__122__compressed_pair_elemINS_14default_deleteIN2sf6SpriteEEELi1ELb1EEC2B8ue170006ENS_16__value_init_tagE, symObjAddr: 0x2C44, symBinAddr: 0x10000A928, symSize: 0x14 }
  - { offsetInCU: 0x2CE2E, offset: 0x6755F, size: 0x8, addend: 0x0, symName: __ZN2sf7Vector2IfEC2Eff, symObjAddr: 0x2C58, symBinAddr: 0x10000A93C, symSize: 0x2C }
  - { offsetInCU: 0x2CE76, offset: 0x675A7, size: 0x8, addend: 0x0, symName: __ZN2sf4RectIiEC2Ev, symObjAddr: 0x2C84, symBinAddr: 0x10000A968, symSize: 0x40 }
  - { offsetInCU: 0x2CEA0, offset: 0x675D1, size: 0x8, addend: 0x0, symName: __ZN2sf7Vector2IiEC1Ev, symObjAddr: 0x2CC4, symBinAddr: 0x10000A9A8, symSize: 0x2C }
  - { offsetInCU: 0x2CECA, offset: 0x675FB, size: 0x8, addend: 0x0, symName: __ZN2sf7Vector2IiEC2Ev, symObjAddr: 0x2CF0, symBinAddr: 0x10000A9D4, symSize: 0x1C }
  - { offsetInCU: 0x2CEF4, offset: 0x67625, size: 0x8, addend: 0x0, symName: __ZNSt3__14__fs10filesystem4pathD2B8ue170006Ev, symObjAddr: 0x2D0C, symBinAddr: 0x10000A9F0, symSize: 0x2C }
  - { offsetInCU: 0x2CF1E, offset: 0x6764F, size: 0x8, addend: 0x0, symName: __ZNKSt3__111__wrap_iterIPKNS_10unique_ptrIN3tmx5LayerENS_14default_deleteIS3_EEEEE4baseB8ue170006Ev, symObjAddr: 0x2D80, symBinAddr: 0x10000AA64, symSize: 0x18 }
  - { offsetInCU: 0x2CF44, offset: 0x67675, size: 0x8, addend: 0x0, symName: __ZN2sf7Vector2IiEC2Eii, symObjAddr: 0x2D98, symBinAddr: 0x10000AA7C, symSize: 0x2C }
  - { offsetInCU: 0x2CF8C, offset: 0x676BD, size: 0x8, addend: 0x0, symName: __ZN2sf4RectIiEC2ENS_7Vector2IiEES3_, symObjAddr: 0x2DC4, symBinAddr: 0x10000AAA8, symSize: 0x2C }
  - { offsetInCU: 0x2CFD4, offset: 0x67705, size: 0x8, addend: 0x0, symName: __ZN2sf6SpriteD2Ev, symObjAddr: 0x2DF0, symBinAddr: 0x10000AAD4, symSize: 0x38 }
  - { offsetInCU: 0x2D000, offset: 0x67731, size: 0x8, addend: 0x0, symName: __ZThn8_N2sf6SpriteD1Ev, symObjAddr: 0x2E28, symBinAddr: 0x10000AB0C, symSize: 0x1C }
  - { offsetInCU: 0x2D02A, offset: 0x6775B, size: 0x8, addend: 0x0, symName: __ZN2sf4RectIfEC2ENS_7Vector2IfEES3_, symObjAddr: 0x73FC, symBinAddr: 0x10000AB28, symSize: 0x34 }
  - { offsetInCU: 0x2D072, offset: 0x677A3, size: 0x8, addend: 0x0, symName: __ZN2sf5ClockC2Ev, symObjAddr: 0x7430, symBinAddr: 0x10000AB5C, symSize: 0x3C }
  - { offsetInCU: 0x2D09E, offset: 0x677CF, size: 0x8, addend: 0x0, symName: __ZNSt3__16chrono10time_pointINS0_12steady_clockENS0_8durationIxNS_5ratioILl1ELl1000000000EEEEEEC1B8ue170006Ev, symObjAddr: 0x746C, symBinAddr: 0x10000AB98, symSize: 0x2C }
  - { offsetInCU: 0x2D0C8, offset: 0x677F9, size: 0x8, addend: 0x0, symName: __ZNSt3__16chrono10time_pointINS0_12steady_clockENS0_8durationIxNS_5ratioILl1ELl1000000000EEEEEEC2B8ue170006Ev, symObjAddr: 0x7498, symBinAddr: 0x10000ABC4, symSize: 0x34 }
  - { offsetInCU: 0x2D0F2, offset: 0x67823, size: 0x8, addend: 0x0, symName: __ZNSt3__16chrono8durationIxNS_5ratioILl1ELl1000000000EEEE4zeroB8ue170006Ev, symObjAddr: 0x74CC, symBinAddr: 0x10000ABF8, symSize: 0x3C }
  - { offsetInCU: 0x2D106, offset: 0x67837, size: 0x8, addend: 0x0, symName: __ZNSt3__16chrono15duration_valuesIxE4zeroB8ue170006Ev, symObjAddr: 0x7508, symBinAddr: 0x10000AC34, symSize: 0x8 }
  - { offsetInCU: 0x2D129, offset: 0x6785A, size: 0x8, addend: 0x0, symName: __ZNSt3__16chrono8durationIxNS_5ratioILl1ELl1000000000EEEEC1B8ue170006IxEERKT_PNS_9enable_ifIXaasr14is_convertibleIS8_xEE5valueooL_ZNS_17integral_constantIbLb0EE5valueEEntsr23treat_as_floating_pointIS6_EE5valueEvE4typeE, symObjAddr: 0x7510, symBinAddr: 0x10000AC3C, symSize: 0x3C }
  - { offsetInCU: 0x2D176, offset: 0x678A7, size: 0x8, addend: 0x0, symName: __ZNSt3__16chrono8durationIxNS_5ratioILl1ELl1000000000EEEEC2B8ue170006IxEERKT_PNS_9enable_ifIXaasr14is_convertibleIS8_xEE5valueooL_ZNS_17integral_constantIbLb0EE5valueEEntsr23treat_as_floating_pointIS6_EE5valueEvE4typeE, symObjAddr: 0x754C, symBinAddr: 0x10000AC78, symSize: 0x28 }
  - { offsetInCU: 0x2D1C3, offset: 0x678F4, size: 0x8, addend: 0x0, symName: __ZNSt3__16chrono8durationIfNS_5ratioILl1ELl1EEEEC1B8ue170006IxNS2_ILl1ELl1000000EEEEERKNS1_IT_T0_EEPNS_9enable_ifIXaasr13__no_overflowIS8_S3_EE5valueooL_ZNS_17integral_constantIbLb1EE5valueEEaaeqsr13__no_overflowIS8_S3_E4typeE3denLi1Entsr23treat_as_floating_pointIS7_EE5valueEvE4typeE, symObjAddr: 0x7574, symBinAddr: 0x10000ACA0, symSize: 0x3C }
  - { offsetInCU: 0x2D21A, offset: 0x6794B, size: 0x8, addend: 0x0, symName: __ZNKSt3__16chrono8durationIfNS_5ratioILl1ELl1EEEE5countB8ue170006Ev, symObjAddr: 0x75B0, symBinAddr: 0x10000ACDC, symSize: 0x18 }
  - { offsetInCU: 0x2D240, offset: 0x67971, size: 0x8, addend: 0x0, symName: __ZNSt3__16chrono8durationIfNS_5ratioILl1ELl1EEEEC2B8ue170006IxNS2_ILl1ELl1000000EEEEERKNS1_IT_T0_EEPNS_9enable_ifIXaasr13__no_overflowIS8_S3_EE5valueooL_ZNS_17integral_constantIbLb1EE5valueEEaaeqsr13__no_overflowIS8_S3_E4typeE3denLi1Entsr23treat_as_floating_pointIS7_EE5valueEvE4typeE, symObjAddr: 0x75C8, symBinAddr: 0x10000ACF4, symSize: 0x48 }
  - { offsetInCU: 0x2D297, offset: 0x679C8, size: 0x8, addend: 0x0, symName: __ZNKSt3__16chrono8durationIxNS_5ratioILl1ELl1000000EEEE5countB8ue170006Ev, symObjAddr: 0x7694, symBinAddr: 0x10000ADC0, symSize: 0x18 }
  - { offsetInCU: 0x2D2BD, offset: 0x679EE, size: 0x8, addend: 0x0, symName: __ZNSt3__16chrono8durationIfNS_5ratioILl1ELl1EEEEC1B8ue170006IfEERKT_PNS_9enable_ifIXaasr14is_convertibleIS8_fEE5valueooL_ZNS_17integral_constantIbLb1EE5valueEEntsr23treat_as_floating_pointIS6_EE5valueEvE4typeE, symObjAddr: 0x76AC, symBinAddr: 0x10000ADD8, symSize: 0x3C }
  - { offsetInCU: 0x2D30A, offset: 0x67A3B, size: 0x8, addend: 0x0, symName: __ZNSt3__16chrono8durationIfNS_5ratioILl1ELl1EEEEC2B8ue170006IfEERKT_PNS_9enable_ifIXaasr14is_convertibleIS8_fEE5valueooL_ZNS_17integral_constantIbLb1EE5valueEEntsr23treat_as_floating_pointIS6_EE5valueEvE4typeE, symObjAddr: 0x76E8, symBinAddr: 0x10000AE14, symSize: 0x28 }
  - { offsetInCU: 0x2D357, offset: 0x67A88, size: 0x8, addend: 0x0, symName: __ZNKSt3__123__optional_storage_baseIN2sf5EventELb0EE9has_valueB8ue170006Ev, symObjAddr: 0x7710, symBinAddr: 0x10000AE3C, symSize: 0x1C }
  - { offsetInCU: 0x2D37D, offset: 0x67AAE, size: 0x8, addend: 0x0, symName: __ZNRSt3__123__optional_storage_baseIN2sf5EventELb0EE5__getB8ue170006Ev, symObjAddr: 0x772C, symBinAddr: 0x10000AE58, symSize: 0x14 }
  - { offsetInCU: 0x2D3A3, offset: 0x67AD4, size: 0x8, addend: 0x0, symName: __ZNKSt3__111__wrap_iterIPN2sf6SpriteEE4baseB8ue170006Ev, symObjAddr: 0x7788, symBinAddr: 0x10000AEB4, symSize: 0x18 }
  - { offsetInCU: 0x2D3C9, offset: 0x67AFA, size: 0x8, addend: 0x0, symName: __ZN2sf5ColorC2Ehhhh, symObjAddr: 0x77A0, symBinAddr: 0x10000AECC, symSize: 0x44 }
  - { offsetInCU: 0x2D42D, offset: 0x67B5E, size: 0x8, addend: 0x0, symName: __ZNKSt3__111__wrap_iterIP8PlatformE4baseB8ue170006Ev, symObjAddr: 0x782C, symBinAddr: 0x10000AF58, symSize: 0x18 }
  - { offsetInCU: 0x2D45D, offset: 0x67B8E, size: 0x8, addend: 0x0, symName: __ZZNK2sf4RectIfE16findIntersectionERKS1_ENKUlffE_clEff, symObjAddr: 0x7E80, symBinAddr: 0x10000AF70, symSize: 0x4C }
  - { offsetInCU: 0x2D4AD, offset: 0x67BDE, size: 0x8, addend: 0x0, symName: __ZZNK2sf4RectIfE16findIntersectionERKS1_ENKUlffE0_clEff, symObjAddr: 0x7ECC, symBinAddr: 0x10000AFBC, symSize: 0x4C }
  - { offsetInCU: 0x2D4F8, offset: 0x67C29, size: 0x8, addend: 0x0, symName: __ZNSt3__18optionalIN2sf4RectIfEEEC1B8ue170006IS3_Li0EEEOT_, symObjAddr: 0x7F18, symBinAddr: 0x10000B008, symSize: 0x34 }
  - { offsetInCU: 0x2D541, offset: 0x67C72, size: 0x8, addend: 0x0, symName: __ZNSt3__18optionalIN2sf4RectIfEEEC1B8ue170006ENS_9nullopt_tE, symObjAddr: 0x7F4C, symBinAddr: 0x10000B03C, symSize: 0x2C }
  - { offsetInCU: 0x2D577, offset: 0x67CA8, size: 0x8, addend: 0x0, symName: __ZNSt3__18optionalIN2sf4RectIfEEEC2B8ue170006IS3_Li0EEEOT_, symObjAddr: 0x7F78, symBinAddr: 0x10000B068, symSize: 0x34 }
  - { offsetInCU: 0x2D5C5, offset: 0x67CF6, size: 0x8, addend: 0x0, symName: __ZNSt3__127__optional_move_assign_baseIN2sf4RectIfEELb1EECI2NS_24__optional_destruct_baseIS3_Lb1EEEIJS3_EEENS_10in_place_tEDpOT_, symObjAddr: 0x7FAC, symBinAddr: 0x10000B09C, symSize: 0x34 }
  - { offsetInCU: 0x2D609, offset: 0x67D3A, size: 0x8, addend: 0x0, symName: __ZNSt3__127__optional_copy_assign_baseIN2sf4RectIfEELb1EECI2NS_24__optional_destruct_baseIS3_Lb1EEEIJS3_EEENS_10in_place_tEDpOT_, symObjAddr: 0x7FE0, symBinAddr: 0x10000B0D0, symSize: 0x34 }
  - { offsetInCU: 0x2D64D, offset: 0x67D7E, size: 0x8, addend: 0x0, symName: __ZNSt3__120__optional_move_baseIN2sf4RectIfEELb1EECI2NS_24__optional_destruct_baseIS3_Lb1EEEIJS3_EEENS_10in_place_tEDpOT_, symObjAddr: 0x8014, symBinAddr: 0x10000B104, symSize: 0x34 }
  - { offsetInCU: 0x2D691, offset: 0x67DC2, size: 0x8, addend: 0x0, symName: __ZNSt3__120__optional_copy_baseIN2sf4RectIfEELb1EECI2NS_24__optional_destruct_baseIS3_Lb1EEEIJS3_EEENS_10in_place_tEDpOT_, symObjAddr: 0x8048, symBinAddr: 0x10000B138, symSize: 0x34 }
  - { offsetInCU: 0x2D6D0, offset: 0x67E01, size: 0x8, addend: 0x0, symName: __ZNSt3__123__optional_storage_baseIN2sf4RectIfEELb0EECI2NS_24__optional_destruct_baseIS3_Lb1EEEIJS3_EEENS_10in_place_tEDpOT_, symObjAddr: 0x807C, symBinAddr: 0x10000B16C, symSize: 0x34 }
  - { offsetInCU: 0x2D70F, offset: 0x67E40, size: 0x8, addend: 0x0, symName: __ZNSt3__124__optional_destruct_baseIN2sf4RectIfEELb1EEC2B8ue170006IJS3_EEENS_10in_place_tEDpOT_, symObjAddr: 0x80B0, symBinAddr: 0x10000B1A0, symSize: 0x2C }
  - { offsetInCU: 0x2D75F, offset: 0x67E90, size: 0x8, addend: 0x0, symName: __ZNSt3__18optionalIN2sf4RectIfEEEC2B8ue170006ENS_9nullopt_tE, symObjAddr: 0x80DC, symBinAddr: 0x10000B1CC, symSize: 0x2C }
  - { offsetInCU: 0x2D795, offset: 0x67EC6, size: 0x8, addend: 0x0, symName: __ZNSt3__127__optional_move_assign_baseIN2sf4RectIfEELb1EEC2Ev, symObjAddr: 0x8108, symBinAddr: 0x10000B1F8, symSize: 0x2C }
  - { offsetInCU: 0x2D7C2, offset: 0x67EF3, size: 0x8, addend: 0x0, symName: __ZNSt3__127__optional_copy_assign_baseIN2sf4RectIfEELb1EEC2Ev, symObjAddr: 0x8134, symBinAddr: 0x10000B224, symSize: 0x2C }
  - { offsetInCU: 0x2D7EF, offset: 0x67F20, size: 0x8, addend: 0x0, symName: __ZNSt3__120__optional_move_baseIN2sf4RectIfEELb1EEC2Ev, symObjAddr: 0x8160, symBinAddr: 0x10000B250, symSize: 0x2C }
  - { offsetInCU: 0x2D81C, offset: 0x67F4D, size: 0x8, addend: 0x0, symName: __ZNSt3__120__optional_copy_baseIN2sf4RectIfEELb1EEC2Ev, symObjAddr: 0x818C, symBinAddr: 0x10000B27C, symSize: 0x2C }
  - { offsetInCU: 0x2D849, offset: 0x67F7A, size: 0x8, addend: 0x0, symName: __ZNSt3__123__optional_storage_baseIN2sf4RectIfEELb0EEC2Ev, symObjAddr: 0x81B8, symBinAddr: 0x10000B2A8, symSize: 0x2C }
  - { offsetInCU: 0x2D876, offset: 0x67FA7, size: 0x8, addend: 0x0, symName: __ZNSt3__124__optional_destruct_baseIN2sf4RectIfEELb1EEC2B8ue170006Ev, symObjAddr: 0x81E4, symBinAddr: 0x10000B2D4, symSize: 0x1C }
  - { offsetInCU: 0x2D8A0, offset: 0x67FD1, size: 0x8, addend: 0x0, symName: __ZNSt3__16vectorI8PlatformNS_9allocatorIS1_EEEC2B8ue170006Ev, symObjAddr: 0x8200, symBinAddr: 0x10000B2F0, symSize: 0x4C }
  - { offsetInCU: 0x2D8D4, offset: 0x68005, size: 0x8, addend: 0x0, symName: __ZNSt3__117__compressed_pairIP8PlatformNS_9allocatorIS1_EEEC1B8ue170006IDnNS_18__default_init_tagEEEOT_OT0_, symObjAddr: 0x824C, symBinAddr: 0x10000B33C, symSize: 0x3C }
  - { offsetInCU: 0x2D92C, offset: 0x6805D, size: 0x8, addend: 0x0, symName: __ZNSt3__117__compressed_pairIP8PlatformNS_9allocatorIS1_EEEC2B8ue170006IDnNS_18__default_init_tagEEEOT_OT0_, symObjAddr: 0x8288, symBinAddr: 0x10000B378, symSize: 0x40 }
  - { offsetInCU: 0x2D984, offset: 0x680B5, size: 0x8, addend: 0x0, symName: __ZNSt3__122__compressed_pair_elemIP8PlatformLi0ELb0EEC2B8ue170006IDnvEEOT_, symObjAddr: 0x82C8, symBinAddr: 0x10000B3B8, symSize: 0x1C }
  - { offsetInCU: 0x2D9C6, offset: 0x680F7, size: 0x8, addend: 0x0, symName: __ZNSt3__122__compressed_pair_elemINS_9allocatorI8PlatformEELi1ELb1EEC2B8ue170006ENS_18__default_init_tagE, symObjAddr: 0x82E4, symBinAddr: 0x10000B3D4, symSize: 0x2C }
  - { offsetInCU: 0x2D9FB, offset: 0x6812C, size: 0x8, addend: 0x0, symName: __ZNSt3__19allocatorI8PlatformEC2B8ue170006Ev, symObjAddr: 0x8310, symBinAddr: 0x10000B400, symSize: 0x2C }
  - { offsetInCU: 0x2DA25, offset: 0x68156, size: 0x8, addend: 0x0, symName: __ZNSt3__116__non_trivial_ifILb1ENS_9allocatorI8PlatformEEEC2B8ue170006Ev, symObjAddr: 0x833C, symBinAddr: 0x10000B42C, symSize: 0x14 }
  - { offsetInCU: 0x2DA4F, offset: 0x68180, size: 0x8, addend: 0x0, symName: __ZNSt3__16vectorIN2sf6SpriteENS_9allocatorIS2_EEEC2B8ue170006Ev, symObjAddr: 0x8350, symBinAddr: 0x10000B440, symSize: 0x4C }
  - { offsetInCU: 0x2DA79, offset: 0x681AA, size: 0x8, addend: 0x0, symName: __ZNSt3__117__compressed_pairIPN2sf6SpriteENS_9allocatorIS2_EEEC1B8ue170006IDnNS_18__default_init_tagEEEOT_OT0_, symObjAddr: 0x839C, symBinAddr: 0x10000B48C, symSize: 0x3C }
  - { offsetInCU: 0x2DAD1, offset: 0x68202, size: 0x8, addend: 0x0, symName: __ZNSt3__117__compressed_pairIPN2sf6SpriteENS_9allocatorIS2_EEEC2B8ue170006IDnNS_18__default_init_tagEEEOT_OT0_, symObjAddr: 0x83D8, symBinAddr: 0x10000B4C8, symSize: 0x40 }
  - { offsetInCU: 0x2DB29, offset: 0x6825A, size: 0x8, addend: 0x0, symName: __ZNSt3__122__compressed_pair_elemIPN2sf6SpriteELi0ELb0EEC2B8ue170006IDnvEEOT_, symObjAddr: 0x8418, symBinAddr: 0x10000B508, symSize: 0x1C }
  - { offsetInCU: 0x2DB6B, offset: 0x6829C, size: 0x8, addend: 0x0, symName: __ZNSt3__122__compressed_pair_elemINS_9allocatorIN2sf6SpriteEEELi1ELb1EEC2B8ue170006ENS_18__default_init_tagE, symObjAddr: 0x8434, symBinAddr: 0x10000B524, symSize: 0x2C }
  - { offsetInCU: 0x2DBA0, offset: 0x682D1, size: 0x8, addend: 0x0, symName: __ZNSt3__19allocatorIN2sf6SpriteEEC2B8ue170006Ev, symObjAddr: 0x8460, symBinAddr: 0x10000B550, symSize: 0x2C }
  - { offsetInCU: 0x2DBCA, offset: 0x682FB, size: 0x8, addend: 0x0, symName: __ZNSt3__116__non_trivial_ifILb1ENS_9allocatorIN2sf6SpriteEEEEC2B8ue170006Ev, symObjAddr: 0x848C, symBinAddr: 0x10000B57C, symSize: 0x14 }
  - { offsetInCU: 0x2DBF4, offset: 0x68325, size: 0x8, addend: 0x0, symName: __ZNSt3__110unique_ptrI6PlayerNS_14default_deleteIS1_EEEC1B8ue170006ILb1EvEEPS1_, symObjAddr: 0x9974, symBinAddr: 0x10000B590, symSize: 0x34 }
  - { offsetInCU: 0x2DC37, offset: 0x68368, size: 0x8, addend: 0x0, symName: __ZNSt3__110unique_ptrI6PlayerNS_14default_deleteIS1_EEEC2B8ue170006ILb1EvEEPS1_, symObjAddr: 0x99A8, symBinAddr: 0x10000B5C4, symSize: 0x44 }
  - { offsetInCU: 0x2DC7A, offset: 0x683AB, size: 0x8, addend: 0x0, symName: __ZNSt3__117__compressed_pairIP6PlayerNS_14default_deleteIS1_EEEC1B8ue170006IRS2_NS_16__value_init_tagEEEOT_OT0_, symObjAddr: 0x99EC, symBinAddr: 0x10000B608, symSize: 0x3C }
  - { offsetInCU: 0x2DCD2, offset: 0x68403, size: 0x8, addend: 0x0, symName: __ZNSt3__117__compressed_pairIP6PlayerNS_14default_deleteIS1_EEEC2B8ue170006IRS2_NS_16__value_init_tagEEEOT_OT0_, symObjAddr: 0x9A28, symBinAddr: 0x10000B644, symSize: 0x40 }
  - { offsetInCU: 0x2DD2A, offset: 0x6845B, size: 0x8, addend: 0x0, symName: __ZNSt3__122__compressed_pair_elemIP6PlayerLi0ELb0EEC2B8ue170006IRS2_vEEOT_, symObjAddr: 0x9A68, symBinAddr: 0x10000B684, symSize: 0x24 }
  - { offsetInCU: 0x2DD6C, offset: 0x6849D, size: 0x8, addend: 0x0, symName: __ZNSt3__110unique_ptrI6PlayerNS_14default_deleteIS1_EEE7releaseB8ue170006Ev, symObjAddr: 0x9A8C, symBinAddr: 0x10000B6A8, symSize: 0x44 }
  - { offsetInCU: 0x2DDA1, offset: 0x684D2, size: 0x8, addend: 0x0, symName: __ZNSt3__110unique_ptrI6PlayerNS_14default_deleteIS1_EEE11get_deleterB8ue170006Ev, symObjAddr: 0x9AD0, symBinAddr: 0x10000B6EC, symSize: 0x24 }
  - { offsetInCU: 0x2DDC7, offset: 0x684F8, size: 0x8, addend: 0x0, symName: __ZNSt3__16vectorI8PlatformNS_9allocatorIS1_EEE9__end_capB8ue170006Ev, symObjAddr: 0x9AF4, symBinAddr: 0x10000B710, symSize: 0x28 }
  - { offsetInCU: 0x2DDED, offset: 0x6851E, size: 0x8, addend: 0x0, symName: __ZNSt3__16vectorI8PlatformNS_9allocatorIS1_EEE22__construct_one_at_endB8ue170006IJN2sf7Vector2IfEES8_EEEvDpOT_, symObjAddr: 0x9B1C, symBinAddr: 0x10000B738, symSize: 0x98 }
  - { offsetInCU: 0x2DE50, offset: 0x68581, size: 0x8, addend: 0x0, symName: __ZNSt3__16vectorI8PlatformNS_9allocatorIS1_EEE24__emplace_back_slow_pathIJN2sf7Vector2IfEES8_EEEvDpOT_, symObjAddr: 0x9BB4, symBinAddr: 0x10000B7D0, symSize: 0xE0 }
  - { offsetInCU: 0x2DEC4, offset: 0x685F5, size: 0x8, addend: 0x0, symName: __ZNSt3__16vectorI8PlatformNS_9allocatorIS1_EEE4backB8ue170006Ev, symObjAddr: 0x9C94, symBinAddr: 0x10000B8B0, symSize: 0x1C }
  - { offsetInCU: 0x2DEEA, offset: 0x6861B, size: 0x8, addend: 0x0, symName: __ZNSt3__117__compressed_pairIP8PlatformNS_9allocatorIS1_EEE5firstB8ue170006Ev, symObjAddr: 0x9CB0, symBinAddr: 0x10000B8CC, symSize: 0x24 }
  - { offsetInCU: 0x2DF10, offset: 0x68641, size: 0x8, addend: 0x0, symName: __ZNSt3__122__compressed_pair_elemIP8PlatformLi0ELb0EE5__getB8ue170006Ev, symObjAddr: 0x9CD4, symBinAddr: 0x10000B8F0, symSize: 0x14 }
  - { offsetInCU: 0x2DF4F, offset: 0x68680, size: 0x8, addend: 0x0, symName: __ZNSt3__16vectorI8PlatformNS_9allocatorIS1_EEE21_ConstructTransactionC1B8ue170006ERS4_m, symObjAddr: 0x9CE8, symBinAddr: 0x10000B904, symSize: 0x3C }
  - { offsetInCU: 0x2DF97, offset: 0x686C8, size: 0x8, addend: 0x0, symName: __ZNSt3__116allocator_traitsINS_9allocatorI8PlatformEEE9constructB8ue170006IS2_JN2sf7Vector2IfEES8_EvEEvRS3_PT_DpOT0_, symObjAddr: 0x9D24, symBinAddr: 0x10000B940, symSize: 0x3C }
  - { offsetInCU: 0x2E002, offset: 0x68733, size: 0x8, addend: 0x0, symName: __ZNSt3__16vectorI8PlatformNS_9allocatorIS1_EEE21_ConstructTransactionD1B8ue170006Ev, symObjAddr: 0x9D60, symBinAddr: 0x10000B97C, symSize: 0x2C }
  - { offsetInCU: 0x2E02C, offset: 0x6875D, size: 0x8, addend: 0x0, symName: __ZNSt3__16vectorI8PlatformNS_9allocatorIS1_EEE21_ConstructTransactionC2B8ue170006ERS4_m, symObjAddr: 0x9D8C, symBinAddr: 0x10000B9A8, symSize: 0x4C }
  - { offsetInCU: 0x2E074, offset: 0x687A5, size: 0x8, addend: 0x0, symName: __ZNSt3__19allocatorI8PlatformE9constructB8ue170006IS1_JN2sf7Vector2IfEES6_EEEvPT_DpOT0_, symObjAddr: 0x9DD8, symBinAddr: 0x10000B9F4, symSize: 0x38 }
  - { offsetInCU: 0x2E0DD, offset: 0x6880E, size: 0x8, addend: 0x0, symName: __ZNSt3__16vectorI8PlatformNS_9allocatorIS1_EEE21_ConstructTransactionD2B8ue170006Ev, symObjAddr: 0x9E10, symBinAddr: 0x10000BA2C, symSize: 0x20 }
  - { offsetInCU: 0x2E107, offset: 0x68838, size: 0x8, addend: 0x0, symName: __ZNKSt3__16vectorI8PlatformNS_9allocatorIS1_EEE11__recommendB8ue170006Em, symObjAddr: 0x9E30, symBinAddr: 0x10000BA4C, symSize: 0xB4 }
  - { offsetInCU: 0x2E15C, offset: 0x6888D, size: 0x8, addend: 0x0, symName: __ZNSt3__114__split_bufferI8PlatformRNS_9allocatorIS1_EEEC1EmmS4_, symObjAddr: 0x9EE4, symBinAddr: 0x10000BB00, symSize: 0x44 }
  - { offsetInCU: 0x2E1B2, offset: 0x688E3, size: 0x8, addend: 0x0, symName: __ZNSt3__114__split_bufferI8PlatformRNS_9allocatorIS1_EEED1Ev, symObjAddr: 0xA038, symBinAddr: 0x10000BC54, symSize: 0x2C }
  - { offsetInCU: 0x2E1DE, offset: 0x6890F, size: 0x8, addend: 0x0, symName: __ZNKSt3__16vectorI8PlatformNS_9allocatorIS1_EEE8max_sizeEv, symObjAddr: 0xA064, symBinAddr: 0x10000BC80, symSize: 0x60 }
  - { offsetInCU: 0x2E206, offset: 0x68937, size: 0x8, addend: 0x0, symName: __ZNKSt3__16vectorI8PlatformNS_9allocatorIS1_EEE20__throw_length_errorB8ue170006Ev, symObjAddr: 0xA0C4, symBinAddr: 0x10000BCE0, symSize: 0x1C }
  - { offsetInCU: 0x2E236, offset: 0x68967, size: 0x8, addend: 0x0, symName: __ZNSt3__116allocator_traitsINS_9allocatorI8PlatformEEE8max_sizeB8ue170006IS3_vEEmRKS3_, symObjAddr: 0xA138, symBinAddr: 0x10000BD54, symSize: 0x24 }
  - { offsetInCU: 0x2E264, offset: 0x68995, size: 0x8, addend: 0x0, symName: __ZNKSt3__16vectorI8PlatformNS_9allocatorIS1_EEE7__allocB8ue170006Ev, symObjAddr: 0xA15C, symBinAddr: 0x10000BD78, symSize: 0x28 }
  - { offsetInCU: 0x2E28A, offset: 0x689BB, size: 0x8, addend: 0x0, symName: __ZNSt3__114numeric_limitsIlE3maxB8ue170006Ev, symObjAddr: 0xA184, symBinAddr: 0x10000BDA0, symSize: 0x14 }
  - { offsetInCU: 0x2E2A8, offset: 0x689D9, size: 0x8, addend: 0x0, symName: __ZNKSt3__16__lessIvvEclB8ue170006ImmEEbRKT_RKT0_, symObjAddr: 0xA1EC, symBinAddr: 0x10000BE08, symSize: 0x34 }
  - { offsetInCU: 0x2E2FC, offset: 0x68A2D, size: 0x8, addend: 0x0, symName: __ZNKSt3__19allocatorI8PlatformE8max_sizeB8ue170006Ev, symObjAddr: 0xA220, symBinAddr: 0x10000BE3C, symSize: 0x20 }
  - { offsetInCU: 0x2E322, offset: 0x68A53, size: 0x8, addend: 0x0, symName: __ZNKSt3__117__compressed_pairIP8PlatformNS_9allocatorIS1_EEE6secondB8ue170006Ev, symObjAddr: 0xA240, symBinAddr: 0x10000BE5C, symSize: 0x24 }
  - { offsetInCU: 0x2E348, offset: 0x68A79, size: 0x8, addend: 0x0, symName: __ZNKSt3__122__compressed_pair_elemINS_9allocatorI8PlatformEELi1ELb1EE5__getB8ue170006Ev, symObjAddr: 0xA264, symBinAddr: 0x10000BE80, symSize: 0x14 }
  - { offsetInCU: 0x2E36E, offset: 0x68A9F, size: 0x8, addend: 0x0, symName: __ZNSt3__123__libcpp_numeric_limitsIlLb1EE3maxB8ue170006Ev, symObjAddr: 0xA278, symBinAddr: 0x10000BE94, symSize: 0x8 }
  - { offsetInCU: 0x2E382, offset: 0x68AB3, size: 0x8, addend: 0x0, symName: __ZNSt12length_errorC1B8ue170006EPKc, symObjAddr: 0xA2E4, symBinAddr: 0x10000BF00, symSize: 0x34 }
  - { offsetInCU: 0x2E3BA, offset: 0x68AEB, size: 0x8, addend: 0x0, symName: __ZNSt12length_errorC2B8ue170006EPKc, symObjAddr: 0xA318, symBinAddr: 0x10000BF34, symSize: 0x4C }
  - { offsetInCU: 0x2E3F2, offset: 0x68B23, size: 0x8, addend: 0x0, symName: __ZNSt3__114__split_bufferI8PlatformRNS_9allocatorIS1_EEEC2EmmS4_, symObjAddr: 0xA3B8, symBinAddr: 0x10000BFD4, symSize: 0xE0 }
  - { offsetInCU: 0x2E465, offset: 0x68B96, size: 0x8, addend: 0x0, symName: __ZNSt3__117__compressed_pairIP8PlatformRNS_9allocatorIS1_EEEC1B8ue170006IDnS5_EEOT_OT0_, symObjAddr: 0xA498, symBinAddr: 0x10000C0B4, symSize: 0x3C }
  - { offsetInCU: 0x2E4BD, offset: 0x68BEE, size: 0x8, addend: 0x0, symName: __ZNSt3__114__split_bufferI8PlatformRNS_9allocatorIS1_EEE7__allocB8ue170006Ev, symObjAddr: 0xA514, symBinAddr: 0x10000C130, symSize: 0x28 }
  - { offsetInCU: 0x2E4E3, offset: 0x68C14, size: 0x8, addend: 0x0, symName: __ZNSt3__114__split_bufferI8PlatformRNS_9allocatorIS1_EEE9__end_capB8ue170006Ev, symObjAddr: 0xA53C, symBinAddr: 0x10000C158, symSize: 0x28 }
  - { offsetInCU: 0x2E509, offset: 0x68C3A, size: 0x8, addend: 0x0, symName: __ZNSt3__117__compressed_pairIP8PlatformRNS_9allocatorIS1_EEEC2B8ue170006IDnS5_EEOT_OT0_, symObjAddr: 0xA564, symBinAddr: 0x10000C180, symSize: 0x48 }
  - { offsetInCU: 0x2E561, offset: 0x68C92, size: 0x8, addend: 0x0, symName: __ZNSt3__122__compressed_pair_elemIRNS_9allocatorI8PlatformEELi1ELb0EEC2B8ue170006IS4_vEEOT_, symObjAddr: 0xA5AC, symBinAddr: 0x10000C1C8, symSize: 0x20 }
  - { offsetInCU: 0x2E5A3, offset: 0x68CD4, size: 0x8, addend: 0x0, symName: __ZNSt3__19allocatorI8PlatformE8allocateB8ue170006Em, symObjAddr: 0xA5CC, symBinAddr: 0x10000C1E8, symSize: 0x5C }
  - { offsetInCU: 0x2E5D7, offset: 0x68D08, size: 0x8, addend: 0x0, symName: __ZNSt3__117__compressed_pairIP8PlatformRNS_9allocatorIS1_EEE6secondB8ue170006Ev, symObjAddr: 0xA70C, symBinAddr: 0x10000C328, symSize: 0x28 }
  - { offsetInCU: 0x2E5FD, offset: 0x68D2E, size: 0x8, addend: 0x0, symName: __ZNSt3__122__compressed_pair_elemIRNS_9allocatorI8PlatformEELi1ELb0EE5__getB8ue170006Ev, symObjAddr: 0xA734, symBinAddr: 0x10000C350, symSize: 0x18 }
  - { offsetInCU: 0x2E623, offset: 0x68D54, size: 0x8, addend: 0x0, symName: __ZNSt3__117__compressed_pairIP8PlatformRNS_9allocatorIS1_EEE5firstB8ue170006Ev, symObjAddr: 0xA74C, symBinAddr: 0x10000C368, symSize: 0x24 }
  - { offsetInCU: 0x2E649, offset: 0x68D7A, size: 0x8, addend: 0x0, symName: __ZNSt3__116reverse_iteratorIP8PlatformEC1B8ue170006ES2_, symObjAddr: 0xA89C, symBinAddr: 0x10000C4B8, symSize: 0x34 }
  - { offsetInCU: 0x2E681, offset: 0x68DB2, size: 0x8, addend: 0x0, symName: __ZNKSt3__116reverse_iteratorIP8PlatformE4baseB8ue170006Ev, symObjAddr: 0xA8D0, symBinAddr: 0x10000C4EC, symSize: 0x18 }
  - { offsetInCU: 0x2E6A7, offset: 0x68DD8, size: 0x8, addend: 0x0, symName: __ZNKSt3__16vectorI8PlatformNS_9allocatorIS1_EEE14__annotate_newB8ue170006Em, symObjAddr: 0xA924, symBinAddr: 0x10000C540, symSize: 0xC8 }
  - { offsetInCU: 0x2E6DC, offset: 0x68E0D, size: 0x8, addend: 0x0, symName: __ZNSt3__129_AllocatorDestroyRangeReverseINS_9allocatorI8PlatformEENS_16reverse_iteratorIPS2_EEEC1B8ue170006ERS3_RS6_S9_, symObjAddr: 0xAA38, symBinAddr: 0x10000C654, symSize: 0x44 }
  - { offsetInCU: 0x2E738, offset: 0x68E69, size: 0x8, addend: 0x0, symName: __ZNSt3__116allocator_traitsINS_9allocatorI8PlatformEEE9constructB8ue170006IS2_JS2_EvEEvRS3_PT_DpOT0_, symObjAddr: 0xAAC4, symBinAddr: 0x10000C6E0, symSize: 0x34 }
  - { offsetInCU: 0x2E78F, offset: 0x68EC0, size: 0x8, addend: 0x0, symName: __ZNKSt3__116reverse_iteratorIP8PlatformEdeB8ue170006Ev, symObjAddr: 0xAB1C, symBinAddr: 0x10000C738, symSize: 0x28 }
  - { offsetInCU: 0x2E7C4, offset: 0x68EF5, size: 0x8, addend: 0x0, symName: __ZNSt3__116reverse_iteratorIP8PlatformEppB8ue170006Ev, symObjAddr: 0xAB44, symBinAddr: 0x10000C760, symSize: 0x20 }
  - { offsetInCU: 0x2E7EA, offset: 0x68F1B, size: 0x8, addend: 0x0, symName: __ZNSt3__128__exception_guard_exceptionsINS_29_AllocatorDestroyRangeReverseINS_9allocatorI8PlatformEENS_16reverse_iteratorIPS3_EEEEE10__completeB8ue170006Ev, symObjAddr: 0xAB64, symBinAddr: 0x10000C780, symSize: 0x1C }
  - { offsetInCU: 0x2E810, offset: 0x68F41, size: 0x8, addend: 0x0, symName: __ZNSt3__128__exception_guard_exceptionsINS_29_AllocatorDestroyRangeReverseINS_9allocatorI8PlatformEENS_16reverse_iteratorIPS3_EEEEED1B8ue170006Ev, symObjAddr: 0xAB80, symBinAddr: 0x10000C79C, symSize: 0x2C }
  - { offsetInCU: 0x2E83A, offset: 0x68F6B, size: 0x8, addend: 0x0, symName: __ZNSt3__128__exception_guard_exceptionsINS_29_AllocatorDestroyRangeReverseINS_9allocatorI8PlatformEENS_16reverse_iteratorIPS3_EEEEEC1B8ue170006ES8_, symObjAddr: 0xABAC, symBinAddr: 0x10000C7C8, symSize: 0x34 }
  - { offsetInCU: 0x2E873, offset: 0x68FA4, size: 0x8, addend: 0x0, symName: __ZNSt3__128__exception_guard_exceptionsINS_29_AllocatorDestroyRangeReverseINS_9allocatorI8PlatformEENS_16reverse_iteratorIPS3_EEEEEC2B8ue170006ES8_, symObjAddr: 0xABE0, symBinAddr: 0x10000C7FC, symSize: 0x30 }
  - { offsetInCU: 0x2E8AC, offset: 0x68FDD, size: 0x8, addend: 0x0, symName: __ZNSt3__129_AllocatorDestroyRangeReverseINS_9allocatorI8PlatformEENS_16reverse_iteratorIPS2_EEEC2B8ue170006ERS3_RS6_S9_, symObjAddr: 0xAC10, symBinAddr: 0x10000C82C, symSize: 0x38 }
  - { offsetInCU: 0x2E903, offset: 0x69034, size: 0x8, addend: 0x0, symName: __ZNSt3__19allocatorI8PlatformE9constructB8ue170006IS1_JS1_EEEvPT_DpOT0_, symObjAddr: 0xAC48, symBinAddr: 0x10000C864, symSize: 0x30 }
  - { offsetInCU: 0x2E959, offset: 0x6908A, size: 0x8, addend: 0x0, symName: __ZN8PlatformC1EOS_, symObjAddr: 0xAC78, symBinAddr: 0x10000C894, symSize: 0x34 }
  - { offsetInCU: 0x2E98E, offset: 0x690BF, size: 0x8, addend: 0x0, symName: __ZN8PlatformC2EOS_, symObjAddr: 0xACAC, symBinAddr: 0x10000C8C8, symSize: 0x34 }
  - { offsetInCU: 0x2E9C8, offset: 0x690F9, size: 0x8, addend: 0x0, symName: __ZN2sf14RectangleShapeC1EOS0_, symObjAddr: 0xACE0, symBinAddr: 0x10000C8FC, symSize: 0x34 }
  - { offsetInCU: 0x2E9FD, offset: 0x6912E, size: 0x8, addend: 0x0, symName: __ZN2sf14RectangleShapeC2EOS0_, symObjAddr: 0xAD14, symBinAddr: 0x10000C930, symSize: 0x68 }
  - { offsetInCU: 0x2EA37, offset: 0x69168, size: 0x8, addend: 0x0, symName: __ZN2sf5ShapeC2EOS0_, symObjAddr: 0xAD7C, symBinAddr: 0x10000C998, symSize: 0xD8 }
  - { offsetInCU: 0x2EA6C, offset: 0x6919D, size: 0x8, addend: 0x0, symName: __ZN2sf8DrawableC2ERKS0_, symObjAddr: 0xAE54, symBinAddr: 0x10000CA70, symSize: 0x28 }
  - { offsetInCU: 0x2EAA6, offset: 0x691D7, size: 0x8, addend: 0x0, symName: __ZN2sf13TransformableC2ERKS0_, symObjAddr: 0xAE7C, symBinAddr: 0x10000CA98, symSize: 0x50 }
  - { offsetInCU: 0x2EAE0, offset: 0x69211, size: 0x8, addend: 0x0, symName: __ZN2sf11VertexArrayC1EOS0_, symObjAddr: 0xAECC, symBinAddr: 0x10000CAE8, symSize: 0x34 }
  - { offsetInCU: 0x2EB15, offset: 0x69246, size: 0x8, addend: 0x0, symName: __ZN2sf8DrawableD1Ev, symObjAddr: 0xAF00, symBinAddr: 0x10000CB1C, symSize: 0x14 }
  - { offsetInCU: 0x2EB3F, offset: 0x69270, size: 0x8, addend: 0x0, symName: __ZN2sf8DrawableD0Ev, symObjAddr: 0xAF14, symBinAddr: 0x10000CB30, symSize: 0xC }
  - { offsetInCU: 0x2EB69, offset: 0x6929A, size: 0x8, addend: 0x0, symName: __ZN2sf13TransformableD1Ev, symObjAddr: 0xAF20, symBinAddr: 0x10000CB3C, symSize: 0x2C }
  - { offsetInCU: 0x2EB93, offset: 0x692C4, size: 0x8, addend: 0x0, symName: __ZN2sf13TransformableD0Ev, symObjAddr: 0xAF4C, symBinAddr: 0x10000CB68, symSize: 0x30 }
  - { offsetInCU: 0x2EBBD, offset: 0x692EE, size: 0x8, addend: 0x0, symName: __ZN2sf11VertexArrayC2EOS0_, symObjAddr: 0xAF7C, symBinAddr: 0x10000CB98, symSize: 0x6C }
  - { offsetInCU: 0x2EBF2, offset: 0x69323, size: 0x8, addend: 0x0, symName: __ZNSt3__16vectorIN2sf6VertexENS_9allocatorIS2_EEEC1B8ue170006EOS5_, symObjAddr: 0xAFE8, symBinAddr: 0x10000CC04, symSize: 0x34 }
  - { offsetInCU: 0x2EC2D, offset: 0x6935E, size: 0x8, addend: 0x0, symName: __ZNSt3__16vectorIN2sf6VertexENS_9allocatorIS2_EEEC2B8ue170006EOS5_, symObjAddr: 0xB01C, symBinAddr: 0x10000CC38, symSize: 0xC4 }
  - { offsetInCU: 0x2EC6D, offset: 0x6939E, size: 0x8, addend: 0x0, symName: __ZNSt3__117__compressed_pairIPN2sf6VertexENS_9allocatorIS2_EEEC1B8ue170006IDnS5_EEOT_OT0_, symObjAddr: 0xB0E0, symBinAddr: 0x10000CCFC, symSize: 0x3C }
  - { offsetInCU: 0x2ECC5, offset: 0x693F6, size: 0x8, addend: 0x0, symName: __ZNSt3__16vectorIN2sf6VertexENS_9allocatorIS2_EEE9__end_capB8ue170006Ev, symObjAddr: 0xB11C, symBinAddr: 0x10000CD38, symSize: 0x28 }
  - { offsetInCU: 0x2ECEB, offset: 0x6941C, size: 0x8, addend: 0x0, symName: __ZNSt3__117__compressed_pairIPN2sf6VertexENS_9allocatorIS2_EEEC2B8ue170006IDnS5_EEOT_OT0_, symObjAddr: 0xB144, symBinAddr: 0x10000CD60, symSize: 0x44 }
  - { offsetInCU: 0x2ED43, offset: 0x69474, size: 0x8, addend: 0x0, symName: __ZNSt3__122__compressed_pair_elemIPN2sf6VertexELi0ELb0EEC2B8ue170006IDnvEEOT_, symObjAddr: 0xB188, symBinAddr: 0x10000CDA4, symSize: 0x1C }
  - { offsetInCU: 0x2ED85, offset: 0x694B6, size: 0x8, addend: 0x0, symName: __ZNSt3__122__compressed_pair_elemINS_9allocatorIN2sf6VertexEEELi1ELb1EEC2B8ue170006IS4_vEEOT_, symObjAddr: 0xB1A4, symBinAddr: 0x10000CDC0, symSize: 0x18 }
  - { offsetInCU: 0x2EDC7, offset: 0x694F8, size: 0x8, addend: 0x0, symName: __ZNSt3__117__compressed_pairIPN2sf6VertexENS_9allocatorIS2_EEE5firstB8ue170006Ev, symObjAddr: 0xB1BC, symBinAddr: 0x10000CDD8, symSize: 0x24 }
  - { offsetInCU: 0x2EDED, offset: 0x6951E, size: 0x8, addend: 0x0, symName: __ZNSt3__122__compressed_pair_elemIPN2sf6VertexELi0ELb0EE5__getB8ue170006Ev, symObjAddr: 0xB1E0, symBinAddr: 0x10000CDFC, symSize: 0x14 }
  - { offsetInCU: 0x2EE18, offset: 0x69549, size: 0x8, addend: 0x0, symName: __ZNSt3__119__to_address_helperINS_16reverse_iteratorIP8PlatformEEvE6__callB8ue170006ERKS4_, symObjAddr: 0xB1F4, symBinAddr: 0x10000CE10, symSize: 0x38 }
  - { offsetInCU: 0x2EE3B, offset: 0x6956C, size: 0x8, addend: 0x0, symName: __ZNKSt3__116reverse_iteratorIP8PlatformEptB8ue170006Ev, symObjAddr: 0xB22C, symBinAddr: 0x10000CE48, symSize: 0x24 }
  - { offsetInCU: 0x2EE61, offset: 0x69592, size: 0x8, addend: 0x0, symName: __ZNSt3__128__exception_guard_exceptionsINS_29_AllocatorDestroyRangeReverseINS_9allocatorI8PlatformEENS_16reverse_iteratorIPS3_EEEEED2B8ue170006Ev, symObjAddr: 0xB250, symBinAddr: 0x10000CE6C, symSize: 0x50 }
  - { offsetInCU: 0x2EE8B, offset: 0x695BC, size: 0x8, addend: 0x0, symName: __ZNKSt3__129_AllocatorDestroyRangeReverseINS_9allocatorI8PlatformEENS_16reverse_iteratorIPS2_EEEclB8ue170006Ev, symObjAddr: 0xB2A0, symBinAddr: 0x10000CEBC, symSize: 0xB4 }
  - { offsetInCU: 0x2EEB2, offset: 0x695E3, size: 0x8, addend: 0x0, symName: __ZNSt3__116reverse_iteratorINS0_IP8PlatformEEEC1B8ue170006ES3_, symObjAddr: 0xB3C4, symBinAddr: 0x10000CFE0, symSize: 0x3C }
  - { offsetInCU: 0x2EEEA, offset: 0x6961B, size: 0x8, addend: 0x0, symName: __ZNSt3__116reverse_iteratorINS0_IP8PlatformEEEppB8ue170006Ev, symObjAddr: 0xB484, symBinAddr: 0x10000D0A0, symSize: 0x30 }
  - { offsetInCU: 0x2EF10, offset: 0x69641, size: 0x8, addend: 0x0, symName: __ZNKSt3__116reverse_iteratorINS0_IP8PlatformEEE4baseB8ue170006Ev, symObjAddr: 0xB4B4, symBinAddr: 0x10000D0D0, symSize: 0x24 }
  - { offsetInCU: 0x2EF3B, offset: 0x6966C, size: 0x8, addend: 0x0, symName: __ZNSt3__119__to_address_helperINS_16reverse_iteratorINS1_IP8PlatformEEEEvE6__callB8ue170006ERKS5_, symObjAddr: 0xB4D8, symBinAddr: 0x10000D0F4, symSize: 0x38 }
  - { offsetInCU: 0x2EF5E, offset: 0x6968F, size: 0x8, addend: 0x0, symName: __ZNKSt3__116reverse_iteratorINS0_IP8PlatformEEEptB8ue170006Ev, symObjAddr: 0xB510, symBinAddr: 0x10000D12C, symSize: 0x24 }
  - { offsetInCU: 0x2EF84, offset: 0x696B5, size: 0x8, addend: 0x0, symName: __ZNKSt3__116reverse_iteratorINS0_IP8PlatformEEEdeB8ue170006Ev, symObjAddr: 0xB534, symBinAddr: 0x10000D150, symSize: 0x34 }
  - { offsetInCU: 0x2EFB9, offset: 0x696EA, size: 0x8, addend: 0x0, symName: __ZNSt3__116reverse_iteratorIP8PlatformEmmB8ue170006Ev, symObjAddr: 0xB568, symBinAddr: 0x10000D184, symSize: 0x20 }
  - { offsetInCU: 0x2EFDF, offset: 0x69710, size: 0x8, addend: 0x0, symName: __ZNSt3__116reverse_iteratorINS0_IP8PlatformEEEC2B8ue170006ES3_, symObjAddr: 0xB588, symBinAddr: 0x10000D1A4, symSize: 0x2C }
  - { offsetInCU: 0x2F017, offset: 0x69748, size: 0x8, addend: 0x0, symName: __ZNSt3__116reverse_iteratorIP8PlatformEC2B8ue170006ES2_, symObjAddr: 0xB5B4, symBinAddr: 0x10000D1D0, symSize: 0x28 }
  - { offsetInCU: 0x2F04F, offset: 0x69780, size: 0x8, addend: 0x0, symName: __ZNSt3__114__split_bufferI8PlatformRNS_9allocatorIS1_EEED2Ev, symObjAddr: 0xB5DC, symBinAddr: 0x10000D1F8, symSize: 0x8C }
  - { offsetInCU: 0x2F07B, offset: 0x697AC, size: 0x8, addend: 0x0, symName: __ZNSt3__114__split_bufferI8PlatformRNS_9allocatorIS1_EEE5clearB8ue170006Ev, symObjAddr: 0xB668, symBinAddr: 0x10000D284, symSize: 0x28 }
  - { offsetInCU: 0x2F0A1, offset: 0x697D2, size: 0x8, addend: 0x0, symName: __ZNKSt3__114__split_bufferI8PlatformRNS_9allocatorIS1_EEE8capacityB8ue170006Ev, symObjAddr: 0xB690, symBinAddr: 0x10000D2AC, symSize: 0x40 }
  - { offsetInCU: 0x2F0C7, offset: 0x697F8, size: 0x8, addend: 0x0, symName: __ZNSt3__114__split_bufferI8PlatformRNS_9allocatorIS1_EEE17__destruct_at_endB8ue170006EPS1_, symObjAddr: 0xB6D0, symBinAddr: 0x10000D2EC, symSize: 0x2C }
  - { offsetInCU: 0x2F0FB, offset: 0x6982C, size: 0x8, addend: 0x0, symName: __ZNSt3__114__split_bufferI8PlatformRNS_9allocatorIS1_EEE17__destruct_at_endB8ue170006EPS1_NS_17integral_constantIbLb0EEE, symObjAddr: 0xB6FC, symBinAddr: 0x10000D318, symSize: 0x80 }
  - { offsetInCU: 0x2F13C, offset: 0x6986D, size: 0x8, addend: 0x0, symName: __ZNKSt3__114__split_bufferI8PlatformRNS_9allocatorIS1_EEE9__end_capB8ue170006Ev, symObjAddr: 0xB77C, symBinAddr: 0x10000D398, symSize: 0x28 }
  - { offsetInCU: 0x2F162, offset: 0x69893, size: 0x8, addend: 0x0, symName: __ZNKSt3__117__compressed_pairIP8PlatformRNS_9allocatorIS1_EEE5firstB8ue170006Ev, symObjAddr: 0xB7A4, symBinAddr: 0x10000D3C0, symSize: 0x24 }
  - { offsetInCU: 0x2F188, offset: 0x698B9, size: 0x8, addend: 0x0, symName: __ZNSt3__14__fs10filesystem4pathC2B8ue170006IA109_cvEERKT_NS2_6formatE, symObjAddr: 0xB7C8, symBinAddr: 0x10000D3E4, symSize: 0x68 }
  - { offsetInCU: 0x2F1D7, offset: 0x69908, size: 0x8, addend: 0x0, symName: __ZNSt3__112basic_stringIcNS_11char_traitsIcEENS_9allocatorIcEEEC1B8ue170006Ev, symObjAddr: 0xB830, symBinAddr: 0x10000D44C, symSize: 0x2C }
  - { offsetInCU: 0x2F206, offset: 0x69937, size: 0x8, addend: 0x0, symName: __ZNSt3__14__fs10filesystem8_PathCVTIcE15__append_sourceB8ue170006IA109_cEEvRNS_12basic_stringIcNS_11char_traitsIcEENS_9allocatorIcEEEERKT_, symObjAddr: 0xB85C, symBinAddr: 0x10000D478, symSize: 0x4C }
  - { offsetInCU: 0x2F242, offset: 0x69973, size: 0x8, addend: 0x0, symName: __ZNSt3__112basic_stringIcNS_11char_traitsIcEENS_9allocatorIcEEEC2B8ue170006Ev, symObjAddr: 0xB8A8, symBinAddr: 0x10000D4C4, symSize: 0x48 }
  - { offsetInCU: 0x2F26C, offset: 0x6999D, size: 0x8, addend: 0x0, symName: __ZNSt3__117__compressed_pairINS_12basic_stringIcNS_11char_traitsIcEENS_9allocatorIcEEE5__repES5_EC1B8ue170006INS_18__default_init_tagESA_EEOT_OT0_, symObjAddr: 0xB8F0, symBinAddr: 0x10000D50C, symSize: 0x3C }
  - { offsetInCU: 0x2F2C4, offset: 0x699F5, size: 0x8, addend: 0x0, symName: __ZNSt3__112basic_stringIcNS_11char_traitsIcEENS_9allocatorIcEEE14__default_initB8ue170006Ev, symObjAddr: 0xB92C, symBinAddr: 0x10000D548, symSize: 0x40 }
  - { offsetInCU: 0x2F2EA, offset: 0x69A1B, size: 0x8, addend: 0x0, symName: __ZNSt3__117__compressed_pairINS_12basic_stringIcNS_11char_traitsIcEENS_9allocatorIcEEE5__repES5_EC2B8ue170006INS_18__default_init_tagESA_EEOT_OT0_, symObjAddr: 0xB96C, symBinAddr: 0x10000D588, symSize: 0x3C }
  - { offsetInCU: 0x2F342, offset: 0x69A73, size: 0x8, addend: 0x0, symName: __ZNSt3__122__compressed_pair_elemINS_12basic_stringIcNS_11char_traitsIcEENS_9allocatorIcEEE5__repELi0ELb0EEC2B8ue170006ENS_18__default_init_tagE, symObjAddr: 0xB9A8, symBinAddr: 0x10000D5C4, symSize: 0x14 }
  - { offsetInCU: 0x2F377, offset: 0x69AA8, size: 0x8, addend: 0x0, symName: __ZNSt3__122__compressed_pair_elemINS_9allocatorIcEELi1ELb1EEC2B8ue170006ENS_18__default_init_tagE, symObjAddr: 0xB9BC, symBinAddr: 0x10000D5D8, symSize: 0x2C }
  - { offsetInCU: 0x2F3AC, offset: 0x69ADD, size: 0x8, addend: 0x0, symName: __ZNSt3__19allocatorIcEC2B8ue170006Ev, symObjAddr: 0xB9E8, symBinAddr: 0x10000D604, symSize: 0x2C }
  - { offsetInCU: 0x2F3D6, offset: 0x69B07, size: 0x8, addend: 0x0, symName: __ZNSt3__116__non_trivial_ifILb1ENS_9allocatorIcEEEC2B8ue170006Ev, symObjAddr: 0xBA14, symBinAddr: 0x10000D630, symSize: 0x14 }
  - { offsetInCU: 0x2F400, offset: 0x69B31, size: 0x8, addend: 0x0, symName: __ZNSt3__117__compressed_pairINS_12basic_stringIcNS_11char_traitsIcEENS_9allocatorIcEEE5__repES5_E5firstB8ue170006Ev, symObjAddr: 0xBA28, symBinAddr: 0x10000D644, symSize: 0x24 }
  - { offsetInCU: 0x2F426, offset: 0x69B57, size: 0x8, addend: 0x0, symName: __ZNSt3__122__compressed_pair_elemINS_12basic_stringIcNS_11char_traitsIcEENS_9allocatorIcEEE5__repELi0ELb0EE5__getB8ue170006Ev, symObjAddr: 0xBA4C, symBinAddr: 0x10000D668, symSize: 0x14 }
  - { offsetInCU: 0x2F44C, offset: 0x69B7D, size: 0x8, addend: 0x0, symName: __ZNSt3__14__fs10filesystem8_PathCVTIcE14__append_rangeB8ue170006IPKcEENS_9enable_ifIXsr31__has_forward_iterator_categoryIT_EE5valueEvE4typeERNS_12basic_stringIcNS_11char_traitsIcEENS_9allocatorIcEEEES8_S8_, symObjAddr: 0xBA60, symBinAddr: 0x10000D67C, symSize: 0x34 }
  - { offsetInCU: 0x2F497, offset: 0x69BC8, size: 0x8, addend: 0x0, symName: __ZNSt3__14__fs10filesystem24__is_pathable_char_arrayIA109_cPccLb1EE13__range_beginB8ue170006EPKc, symObjAddr: 0xBA94, symBinAddr: 0x10000D6B0, symSize: 0x14 }
  - { offsetInCU: 0x2F4BA, offset: 0x69BEB, size: 0x8, addend: 0x0, symName: __ZNSt3__14__fs10filesystem24__is_pathable_char_arrayIA109_cPccLb1EE11__range_endB8ue170006EPKc, symObjAddr: 0xBAA8, symBinAddr: 0x10000D6C4, symSize: 0x50 }
  - { offsetInCU: 0x2F506, offset: 0x69C37, size: 0x8, addend: 0x0, symName: __ZNSt3__112basic_stringIcNS_11char_traitsIcEENS_9allocatorIcEEE6appendB8ue170006IPKcLi0EEERS5_T_SA_, symObjAddr: 0xBAF8, symBinAddr: 0x10000D714, symSize: 0x1E4 }
  - { offsetInCU: 0x2F5BC, offset: 0x69CED, size: 0x8, addend: 0x0, symName: __ZNKSt3__112basic_stringIcNS_11char_traitsIcEENS_9allocatorIcEEE4sizeB8ue170006Ev, symObjAddr: 0xBCDC, symBinAddr: 0x10000D8F8, symSize: 0x54 }
  - { offsetInCU: 0x2F5E2, offset: 0x69D13, size: 0x8, addend: 0x0, symName: __ZNKSt3__112basic_stringIcNS_11char_traitsIcEENS_9allocatorIcEEE8capacityB8ue170006Ev, symObjAddr: 0xBD30, symBinAddr: 0x10000D94C, symSize: 0x54 }
  - { offsetInCU: 0x2F608, offset: 0x69D39, size: 0x8, addend: 0x0, symName: __ZNKSt3__112basic_stringIcNS_11char_traitsIcEENS_9allocatorIcEEE15__addr_in_rangeB8ue170006IcEEbRKT_, symObjAddr: 0xBDB0, symBinAddr: 0x10000D9CC, symSize: 0x6C }
  - { offsetInCU: 0x2F646, offset: 0x69D77, size: 0x8, addend: 0x0, symName: __ZNSt3__112basic_stringIcNS_11char_traitsIcEENS_9allocatorIcEEE25__grow_by_without_replaceB8ue170006Emmmmmm, symObjAddr: 0xBE1C, symBinAddr: 0x10000DA38, symSize: 0x74 }
  - { offsetInCU: 0x2F6C8, offset: 0x69DF9, size: 0x8, addend: 0x0, symName: __ZNSt3__112basic_stringIcNS_11char_traitsIcEENS_9allocatorIcEEE13__get_pointerB8ue170006Ev, symObjAddr: 0xBE90, symBinAddr: 0x10000DAAC, symSize: 0x54 }
  - { offsetInCU: 0x2F6EE, offset: 0x69E1F, size: 0x8, addend: 0x0, symName: __ZNSt3__111char_traitsIcE6assignB8ue170006ERcRKc, symObjAddr: 0xBEE4, symBinAddr: 0x10000DB00, symSize: 0x24 }
  - { offsetInCU: 0x2F71F, offset: 0x69E50, size: 0x8, addend: 0x0, symName: __ZNSt3__112basic_stringIcNS_11char_traitsIcEENS_9allocatorIcEEE10__set_sizeB8ue170006Em, symObjAddr: 0xBF08, symBinAddr: 0x10000DB24, symSize: 0x54 }
  - { offsetInCU: 0x2F754, offset: 0x69E85, size: 0x8, addend: 0x0, symName: __ZNSt3__112basic_stringIcNS_11char_traitsIcEENS_9allocatorIcEEE7__allocB8ue170006Ev, symObjAddr: 0xBF5C, symBinAddr: 0x10000DB78, symSize: 0x24 }
  - { offsetInCU: 0x2F77A, offset: 0x69EAB, size: 0x8, addend: 0x0, symName: __ZNSt3__112basic_stringIcNS_11char_traitsIcEENS_9allocatorIcEEEC1B8ue170006IPKcLi0EEET_S9_RKS4_, symObjAddr: 0xBF80, symBinAddr: 0x10000DB9C, symSize: 0x44 }
  - { offsetInCU: 0x2F7E1, offset: 0x69F12, size: 0x8, addend: 0x0, symName: __ZNKSt3__112basic_stringIcNS_11char_traitsIcEENS_9allocatorIcEEE4dataB8ue170006Ev, symObjAddr: 0xBFC4, symBinAddr: 0x10000DBE0, symSize: 0x28 }
  - { offsetInCU: 0x2F807, offset: 0x69F38, size: 0x8, addend: 0x0, symName: __ZNKSt3__112basic_stringIcNS_11char_traitsIcEENS_9allocatorIcEEE9__is_longB8ue170006Ev, symObjAddr: 0xBFEC, symBinAddr: 0x10000DC08, symSize: 0x38 }
  - { offsetInCU: 0x2F82D, offset: 0x69F5E, size: 0x8, addend: 0x0, symName: __ZNKSt3__112basic_stringIcNS_11char_traitsIcEENS_9allocatorIcEEE15__get_long_sizeB8ue170006Ev, symObjAddr: 0xC024, symBinAddr: 0x10000DC40, symSize: 0x28 }
  - { offsetInCU: 0x2F853, offset: 0x69F84, size: 0x8, addend: 0x0, symName: __ZNKSt3__112basic_stringIcNS_11char_traitsIcEENS_9allocatorIcEEE16__get_short_sizeB8ue170006Ev, symObjAddr: 0xC04C, symBinAddr: 0x10000DC68, symSize: 0x34 }
  - { offsetInCU: 0x2F879, offset: 0x69FAA, size: 0x8, addend: 0x0, symName: __ZNKSt3__117__compressed_pairINS_12basic_stringIcNS_11char_traitsIcEENS_9allocatorIcEEE5__repES5_E5firstB8ue170006Ev, symObjAddr: 0xC080, symBinAddr: 0x10000DC9C, symSize: 0x24 }
  - { offsetInCU: 0x2F89F, offset: 0x69FD0, size: 0x8, addend: 0x0, symName: __ZNKSt3__122__compressed_pair_elemINS_12basic_stringIcNS_11char_traitsIcEENS_9allocatorIcEEE5__repELi0ELb0EE5__getB8ue170006Ev, symObjAddr: 0xC0A4, symBinAddr: 0x10000DCC0, symSize: 0x14 }
  - { offsetInCU: 0x2F8C5, offset: 0x69FF6, size: 0x8, addend: 0x0, symName: __ZNKSt3__112basic_stringIcNS_11char_traitsIcEENS_9allocatorIcEEE14__get_long_capB8ue170006Ev, symObjAddr: 0xC0B8, symBinAddr: 0x10000DCD4, symSize: 0x30 }
  - { offsetInCU: 0x2F8F5, offset: 0x6A026, size: 0x8, addend: 0x0, symName: __ZNKSt3__16__lessIvvEclB8ue170006IPKcS4_EEbRKT_RKT0_, symObjAddr: 0xC170, symBinAddr: 0x10000DD8C, symSize: 0x34 }
  - { offsetInCU: 0x2F949, offset: 0x6A07A, size: 0x8, addend: 0x0, symName: __ZNSt3__112basic_stringIcNS_11char_traitsIcEENS_9allocatorIcEEE15__set_long_sizeB8ue170006Em, symObjAddr: 0xC1A4, symBinAddr: 0x10000DDC0, symSize: 0x38 }
  - { offsetInCU: 0x2F97E, offset: 0x6A0AF, size: 0x8, addend: 0x0, symName: __ZNSt3__112basic_stringIcNS_11char_traitsIcEENS_9allocatorIcEEE18__get_long_pointerB8ue170006Ev, symObjAddr: 0xC1DC, symBinAddr: 0x10000DDF8, symSize: 0x28 }
  - { offsetInCU: 0x2F9A4, offset: 0x6A0D5, size: 0x8, addend: 0x0, symName: __ZNSt3__112basic_stringIcNS_11char_traitsIcEENS_9allocatorIcEEE19__get_short_pointerB8ue170006Ev, symObjAddr: 0xC204, symBinAddr: 0x10000DE20, symSize: 0x28 }
  - { offsetInCU: 0x2F9CA, offset: 0x6A0FB, size: 0x8, addend: 0x0, symName: __ZNSt3__114pointer_traitsIPcE10pointer_toB8ue170006ERc, symObjAddr: 0xC22C, symBinAddr: 0x10000DE48, symSize: 0x14 }
  - { offsetInCU: 0x2F9ED, offset: 0x6A11E, size: 0x8, addend: 0x0, symName: __ZNSt3__112basic_stringIcNS_11char_traitsIcEENS_9allocatorIcEEE16__set_short_sizeB8ue170006Em, symObjAddr: 0xC240, symBinAddr: 0x10000DE5C, symSize: 0x78 }
  - { offsetInCU: 0x2FA22, offset: 0x6A153, size: 0x8, addend: 0x0, symName: __ZNSt3__117__compressed_pairINS_12basic_stringIcNS_11char_traitsIcEENS_9allocatorIcEEE5__repES5_E6secondB8ue170006Ev, symObjAddr: 0xC2B8, symBinAddr: 0x10000DED4, symSize: 0x24 }
  - { offsetInCU: 0x2FA48, offset: 0x6A179, size: 0x8, addend: 0x0, symName: __ZNSt3__122__compressed_pair_elemINS_9allocatorIcEELi1ELb1EE5__getB8ue170006Ev, symObjAddr: 0xC2DC, symBinAddr: 0x10000DEF8, symSize: 0x14 }
  - { offsetInCU: 0x2FA6E, offset: 0x6A19F, size: 0x8, addend: 0x0, symName: __ZNSt3__112basic_stringIcNS_11char_traitsIcEENS_9allocatorIcEEEC2B8ue170006IPKcLi0EEET_S9_RKS4_, symObjAddr: 0xC2F0, symBinAddr: 0x10000DF0C, symSize: 0x50 }
  - { offsetInCU: 0x2FAD5, offset: 0x6A206, size: 0x8, addend: 0x0, symName: __ZNSt3__117__compressed_pairINS_12basic_stringIcNS_11char_traitsIcEENS_9allocatorIcEEE5__repES5_EC1B8ue170006INS_18__default_init_tagERKS5_EEOT_OT0_, symObjAddr: 0xC340, symBinAddr: 0x10000DF5C, symSize: 0x3C }
  - { offsetInCU: 0x2FB2D, offset: 0x6A25E, size: 0x8, addend: 0x0, symName: __ZNSt3__112basic_stringIcNS_11char_traitsIcEENS_9allocatorIcEEE6__initIPKcLi0EEEvT_S9_, symObjAddr: 0xC37C, symBinAddr: 0x10000DF98, symSize: 0x54 }
  - { offsetInCU: 0x2FB92, offset: 0x6A2C3, size: 0x8, addend: 0x0, symName: __ZNSt3__117__compressed_pairINS_12basic_stringIcNS_11char_traitsIcEENS_9allocatorIcEEE5__repES5_EC2B8ue170006INS_18__default_init_tagERKS5_EEOT_OT0_, symObjAddr: 0xC3D0, symBinAddr: 0x10000DFEC, symSize: 0x40 }
  - { offsetInCU: 0x2FBEA, offset: 0x6A31B, size: 0x8, addend: 0x0, symName: __ZNSt3__122__compressed_pair_elemINS_9allocatorIcEELi1ELb1EEC2B8ue170006IRKS2_vEEOT_, symObjAddr: 0xC410, symBinAddr: 0x10000E02C, symSize: 0x18 }
  - { offsetInCU: 0x2FC2C, offset: 0x6A35D, size: 0x8, addend: 0x0, symName: __ZNSt3__112basic_stringIcNS_11char_traitsIcEENS_9allocatorIcEEE16__init_with_sizeB8ue170006IPKcS8_EEvT_T0_m, symObjAddr: 0xC428, symBinAddr: 0x10000E044, symSize: 0x144 }
  - { offsetInCU: 0x2FCBF, offset: 0x6A3F0, size: 0x8, addend: 0x0, symName: __ZNKSt3__112basic_stringIcNS_11char_traitsIcEENS_9allocatorIcEEE8max_sizeB8ue170006Ev, symObjAddr: 0xC56C, symBinAddr: 0x10000E188, symSize: 0xAC }
  - { offsetInCU: 0x2FD11, offset: 0x6A442, size: 0x8, addend: 0x0, symName: __ZNKSt3__112basic_stringIcNS_11char_traitsIcEENS_9allocatorIcEEE20__throw_length_errorB8ue170006Ev, symObjAddr: 0xC618, symBinAddr: 0x10000E234, symSize: 0x1C }
  - { offsetInCU: 0x2FD37, offset: 0x6A468, size: 0x8, addend: 0x0, symName: __ZNSt3__112basic_stringIcNS_11char_traitsIcEENS_9allocatorIcEEE13__fits_in_ssoB8ue170006Em, symObjAddr: 0xC634, symBinAddr: 0x10000E250, symSize: 0x20 }
  - { offsetInCU: 0x2FD5B, offset: 0x6A48C, size: 0x8, addend: 0x0, symName: __ZNSt3__112basic_stringIcNS_11char_traitsIcEENS_9allocatorIcEEE11__recommendB8ue170006Em, symObjAddr: 0xC694, symBinAddr: 0x10000E2B0, symSize: 0x84 }
  - { offsetInCU: 0x2FD8E, offset: 0x6A4BF, size: 0x8, addend: 0x0, symName: __ZNSt3__112basic_stringIcNS_11char_traitsIcEENS_9allocatorIcEEE16__begin_lifetimeB8ue170006EPcm, symObjAddr: 0xC718, symBinAddr: 0x10000E334, symSize: 0x14 }
  - { offsetInCU: 0x2FDC1, offset: 0x6A4F2, size: 0x8, addend: 0x0, symName: __ZNSt3__112basic_stringIcNS_11char_traitsIcEENS_9allocatorIcEEE18__set_long_pointerB8ue170006EPc, symObjAddr: 0xC72C, symBinAddr: 0x10000E348, symSize: 0x38 }
  - { offsetInCU: 0x2FDF6, offset: 0x6A527, size: 0x8, addend: 0x0, symName: __ZNSt3__112basic_stringIcNS_11char_traitsIcEENS_9allocatorIcEEE14__set_long_capB8ue170006Em, symObjAddr: 0xC764, symBinAddr: 0x10000E380, symSize: 0x70 }
  - { offsetInCU: 0x2FE35, offset: 0x6A566, size: 0x8, addend: 0x0, symName: __ZNSt3__116allocator_traitsINS_9allocatorIcEEE8max_sizeB8ue170006IS2_vEEmRKS2_, symObjAddr: 0xC7D4, symBinAddr: 0x10000E3F0, symSize: 0x24 }
  - { offsetInCU: 0x2FE63, offset: 0x6A594, size: 0x8, addend: 0x0, symName: __ZNKSt3__112basic_stringIcNS_11char_traitsIcEENS_9allocatorIcEEE7__allocB8ue170006Ev, symObjAddr: 0xC7F8, symBinAddr: 0x10000E414, symSize: 0x24 }
  - { offsetInCU: 0x2FE89, offset: 0x6A5BA, size: 0x8, addend: 0x0, symName: __ZNSt3__114numeric_limitsImE3maxB8ue170006Ev, symObjAddr: 0xC81C, symBinAddr: 0x10000E438, symSize: 0x14 }
  - { offsetInCU: 0x2FE9D, offset: 0x6A5CE, size: 0x8, addend: 0x0, symName: __ZNKSt3__19allocatorIcE8max_sizeB8ue170006Ev, symObjAddr: 0xC830, symBinAddr: 0x10000E44C, symSize: 0x14 }
  - { offsetInCU: 0x2FEC3, offset: 0x6A5F4, size: 0x8, addend: 0x0, symName: __ZNKSt3__117__compressed_pairINS_12basic_stringIcNS_11char_traitsIcEENS_9allocatorIcEEE5__repES5_E6secondB8ue170006Ev, symObjAddr: 0xC844, symBinAddr: 0x10000E460, symSize: 0x24 }
  - { offsetInCU: 0x2FEE9, offset: 0x6A61A, size: 0x8, addend: 0x0, symName: __ZNKSt3__122__compressed_pair_elemINS_9allocatorIcEELi1ELb1EE5__getB8ue170006Ev, symObjAddr: 0xC868, symBinAddr: 0x10000E484, symSize: 0x14 }
  - { offsetInCU: 0x2FF0F, offset: 0x6A640, size: 0x8, addend: 0x0, symName: __ZNSt3__123__libcpp_numeric_limitsImLb1EE3maxB8ue170006Ev, symObjAddr: 0xC87C, symBinAddr: 0x10000E498, symSize: 0x8 }
  - { offsetInCU: 0x2FF23, offset: 0x6A654, size: 0x8, addend: 0x0, symName: __ZNSt3__19allocatorIcE8allocateB8ue170006Em, symObjAddr: 0xC884, symBinAddr: 0x10000E4A0, symSize: 0x58 }
  - { offsetInCU: 0x2FF57, offset: 0x6A688, size: 0x8, addend: 0x0, symName: __ZNSt3__112basic_stringIcNS_11char_traitsIcEENS_9allocatorIcEEE10__align_itB8ue170006ILm16EEEmm, symObjAddr: 0xC8DC, symBinAddr: 0x10000E4F8, symSize: 0x1C }
  - { offsetInCU: 0x2FF85, offset: 0x6A6B6, size: 0x8, addend: 0x0, symName: __ZNKSt3__112basic_stringIcNS_11char_traitsIcEENS_9allocatorIcEEE13__get_pointerB8ue170006Ev, symObjAddr: 0xC90C, symBinAddr: 0x10000E528, symSize: 0x54 }
  - { offsetInCU: 0x2FFAB, offset: 0x6A6DC, size: 0x8, addend: 0x0, symName: __ZNKSt3__112basic_stringIcNS_11char_traitsIcEENS_9allocatorIcEEE18__get_long_pointerB8ue170006Ev, symObjAddr: 0xC960, symBinAddr: 0x10000E57C, symSize: 0x28 }
  - { offsetInCU: 0x2FFD1, offset: 0x6A702, size: 0x8, addend: 0x0, symName: __ZNKSt3__112basic_stringIcNS_11char_traitsIcEENS_9allocatorIcEEE19__get_short_pointerB8ue170006Ev, symObjAddr: 0xC988, symBinAddr: 0x10000E5A4, symSize: 0x28 }
  - { offsetInCU: 0x2FFF7, offset: 0x6A728, size: 0x8, addend: 0x0, symName: __ZNSt3__114pointer_traitsIPKcE10pointer_toB8ue170006ERS1_, symObjAddr: 0xC9B0, symBinAddr: 0x10000E5CC, symSize: 0x14 }
  - { offsetInCU: 0x3001A, offset: 0x6A74B, size: 0x8, addend: 0x0, symName: __ZNSt3__111char_traitsIcE6lengthB8ue170006EPKc, symObjAddr: 0xCBB0, symBinAddr: 0x10000E7CC, symSize: 0x34 }
  - { offsetInCU: 0x3005B, offset: 0x6A78C, size: 0x8, addend: 0x0, symName: __ZNKSt3__113basic_ostreamIcNS_11char_traitsIcEEE6sentrycvbB8ue170006Ev, symObjAddr: 0xCBE4, symBinAddr: 0x10000E800, symSize: 0x1C }
  - { offsetInCU: 0x30081, offset: 0x6A7B2, size: 0x8, addend: 0x0, symName: __ZNSt3__119ostreambuf_iteratorIcNS_11char_traitsIcEEEC1B8ue170006ERNS_13basic_ostreamIcS2_EE, symObjAddr: 0xCE40, symBinAddr: 0x10000EA5C, symSize: 0x34 }
  - { offsetInCU: 0x300B9, offset: 0x6A7EA, size: 0x8, addend: 0x0, symName: __ZNKSt3__18ios_base5flagsB8ue170006Ev, symObjAddr: 0xCE74, symBinAddr: 0x10000EA90, symSize: 0x18 }
  - { offsetInCU: 0x300E1, offset: 0x6A812, size: 0x8, addend: 0x0, symName: __ZNKSt3__19basic_iosIcNS_11char_traitsIcEEE4fillB8ue170006Ev, symObjAddr: 0xCE8C, symBinAddr: 0x10000EAA8, symSize: 0x64 }
  - { offsetInCU: 0x30109, offset: 0x6A83A, size: 0x8, addend: 0x0, symName: __ZNKSt3__119ostreambuf_iteratorIcNS_11char_traitsIcEEE6failedB8ue170006Ev, symObjAddr: 0xCEF0, symBinAddr: 0x10000EB0C, symSize: 0x24 }
  - { offsetInCU: 0x3012F, offset: 0x6A860, size: 0x8, addend: 0x0, symName: __ZNSt3__19basic_iosIcNS_11char_traitsIcEEE8setstateB8ue170006Ej, symObjAddr: 0xCF14, symBinAddr: 0x10000EB30, symSize: 0x2C }
  - { offsetInCU: 0x30164, offset: 0x6A895, size: 0x8, addend: 0x0, symName: __ZNKSt3__18ios_base5widthB8ue170006Ev, symObjAddr: 0xCF40, symBinAddr: 0x10000EB5C, symSize: 0x18 }
  - { offsetInCU: 0x3018C, offset: 0x6A8BD, size: 0x8, addend: 0x0, symName: __ZNSt3__115basic_streambufIcNS_11char_traitsIcEEE5sputnB8ue170006EPKcl, symObjAddr: 0xCF58, symBinAddr: 0x10000EB74, symSize: 0x3C }
  - { offsetInCU: 0x301CE, offset: 0x6A8FF, size: 0x8, addend: 0x0, symName: __ZNSt3__112basic_stringIcNS_11char_traitsIcEENS_9allocatorIcEEEC1B8ue170006Emc, symObjAddr: 0xCF94, symBinAddr: 0x10000EBB0, symSize: 0x3C }
  - { offsetInCU: 0x30216, offset: 0x6A947, size: 0x8, addend: 0x0, symName: __ZNSt3__112basic_stringIcNS_11char_traitsIcEENS_9allocatorIcEEE4dataB8ue170006Ev, symObjAddr: 0xCFD0, symBinAddr: 0x10000EBEC, symSize: 0x28 }
  - { offsetInCU: 0x3023C, offset: 0x6A96D, size: 0x8, addend: 0x0, symName: __ZNSt3__18ios_base5widthB8ue170006El, symObjAddr: 0xCFF8, symBinAddr: 0x10000EC14, symSize: 0x2C }
  - { offsetInCU: 0x30282, offset: 0x6A9B3, size: 0x8, addend: 0x0, symName: __ZNSt3__112basic_stringIcNS_11char_traitsIcEENS_9allocatorIcEEEC2B8ue170006Emc, symObjAddr: 0xD024, symBinAddr: 0x10000EC40, symSize: 0x4C }
  - { offsetInCU: 0x302CA, offset: 0x6A9FB, size: 0x8, addend: 0x0, symName: __ZNSt3__119ostreambuf_iteratorIcNS_11char_traitsIcEEEC2B8ue170006ERNS_13basic_ostreamIcS2_EE, symObjAddr: 0xD084, symBinAddr: 0x10000ECA0, symSize: 0x54 }
  - { offsetInCU: 0x30302, offset: 0x6AA33, size: 0x8, addend: 0x0, symName: __ZNKSt3__19basic_iosIcNS_11char_traitsIcEEE5rdbufB8ue170006Ev, symObjAddr: 0xD0D8, symBinAddr: 0x10000ECF4, symSize: 0x24 }
  - { offsetInCU: 0x3032A, offset: 0x6AA5B, size: 0x8, addend: 0x0, symName: __ZNKSt3__18ios_base5rdbufB8ue170006Ev, symObjAddr: 0xD0FC, symBinAddr: 0x10000ED18, symSize: 0x18 }
  - { offsetInCU: 0x30350, offset: 0x6AA81, size: 0x8, addend: 0x0, symName: __ZNSt3__111char_traitsIcE11eq_int_typeB8ue170006Eii, symObjAddr: 0xD114, symBinAddr: 0x10000ED30, symSize: 0x28 }
  - { offsetInCU: 0x30383, offset: 0x6AAB4, size: 0x8, addend: 0x0, symName: __ZNSt3__111char_traitsIcE3eofB8ue170006Ev, symObjAddr: 0xD13C, symBinAddr: 0x10000ED58, symSize: 0x8 }
  - { offsetInCU: 0x30397, offset: 0x6AAC8, size: 0x8, addend: 0x0, symName: __ZNKSt3__19basic_iosIcNS_11char_traitsIcEEE5widenB8ue170006Ec, symObjAddr: 0xD144, symBinAddr: 0x10000ED60, symSize: 0x84 }
  - { offsetInCU: 0x30400, offset: 0x6AB31, size: 0x8, addend: 0x0, symName: __ZNKSt3__15ctypeIcE5widenB8ue170006Ec, symObjAddr: 0xD1F4, symBinAddr: 0x10000EE10, symSize: 0x38 }
  - { offsetInCU: 0x30435, offset: 0x6AB66, size: 0x8, addend: 0x0, symName: __ZNSt3__18ios_base8setstateB8ue170006Ej, symObjAddr: 0xD22C, symBinAddr: 0x10000EE48, symSize: 0x34 }
  - { offsetInCU: 0x3046C, offset: 0x6AB9D, size: 0x8, addend: 0x0, symName: __ZNSt3__110unique_ptrIN2sf6SpriteENS_14default_deleteIS2_EEEC1B8ue170006ILb1EvEEPS2_, symObjAddr: 0xD284, symBinAddr: 0x10000EEA0, symSize: 0x34 }
  - { offsetInCU: 0x304AF, offset: 0x6ABE0, size: 0x8, addend: 0x0, symName: __ZNSt3__110unique_ptrIN2sf6SpriteENS_14default_deleteIS2_EEEC2B8ue170006ILb1EvEEPS2_, symObjAddr: 0xD2B8, symBinAddr: 0x10000EED4, symSize: 0x44 }
  - { offsetInCU: 0x304F2, offset: 0x6AC23, size: 0x8, addend: 0x0, symName: __ZNSt3__117__compressed_pairIPN2sf6SpriteENS_14default_deleteIS2_EEEC1B8ue170006IRS3_NS_16__value_init_tagEEEOT_OT0_, symObjAddr: 0xD2FC, symBinAddr: 0x10000EF18, symSize: 0x3C }
  - { offsetInCU: 0x3054A, offset: 0x6AC7B, size: 0x8, addend: 0x0, symName: __ZNSt3__117__compressed_pairIPN2sf6SpriteENS_14default_deleteIS2_EEEC2B8ue170006IRS3_NS_16__value_init_tagEEEOT_OT0_, symObjAddr: 0xD338, symBinAddr: 0x10000EF54, symSize: 0x40 }
  - { offsetInCU: 0x305A2, offset: 0x6ACD3, size: 0x8, addend: 0x0, symName: __ZNSt3__122__compressed_pair_elemIPN2sf6SpriteELi0ELb0EEC2B8ue170006IRS3_vEEOT_, symObjAddr: 0xD378, symBinAddr: 0x10000EF94, symSize: 0x24 }
  - { offsetInCU: 0x305E4, offset: 0x6AD15, size: 0x8, addend: 0x0, symName: __ZNSt3__110unique_ptrIN2sf6SpriteENS_14default_deleteIS2_EEE7releaseB8ue170006Ev, symObjAddr: 0xD39C, symBinAddr: 0x10000EFB8, symSize: 0x44 }
  - { offsetInCU: 0x30619, offset: 0x6AD4A, size: 0x8, addend: 0x0, symName: __ZNSt3__110unique_ptrIN2sf6SpriteENS_14default_deleteIS2_EEE11get_deleterB8ue170006Ev, symObjAddr: 0xD3E0, symBinAddr: 0x10000EFFC, symSize: 0x24 }
  - { offsetInCU: 0x3063F, offset: 0x6AD70, size: 0x8, addend: 0x0, symName: __ZNKSt3__117__compressed_pairIPN2sf6SpriteENS_14default_deleteIS2_EEE5firstB8ue170006Ev, symObjAddr: 0xD404, symBinAddr: 0x10000F020, symSize: 0x24 }
  - { offsetInCU: 0x30665, offset: 0x6AD96, size: 0x8, addend: 0x0, symName: __ZNSt3__112basic_stringIcNS_11char_traitsIcEENS_9allocatorIcEEEC2B8ue170006ILi0EEEPKc, symObjAddr: 0xD428, symBinAddr: 0x10000F044, symSize: 0x58 }
  - { offsetInCU: 0x306A5, offset: 0x6ADD6, size: 0x8, addend: 0x0, symName: __ZNSt3__14__fs10filesystem4pathC2B8ue170006INS_12basic_stringIcNS_11char_traitsIcEENS_9allocatorIcEEEEvEERKT_NS2_6formatE, symObjAddr: 0xD480, symBinAddr: 0x10000F09C, symSize: 0x68 }
  - { offsetInCU: 0x306F4, offset: 0x6AE25, size: 0x8, addend: 0x0, symName: __ZNSt3__14__fs10filesystem8_PathCVTIcE15__append_sourceB8ue170006INS_12basic_stringIcNS_11char_traitsIcEENS_9allocatorIcEEEEEEvRSA_RKT_, symObjAddr: 0xD4E8, symBinAddr: 0x10000F104, symSize: 0x4C }
  - { offsetInCU: 0x3073A, offset: 0x6AE6B, size: 0x8, addend: 0x0, symName: __ZNSt3__14__fs10filesystem20__is_pathable_stringINS_12basic_stringIcNS_11char_traitsIcEENS_9allocatorIcEEEEvE13__range_beginB8ue170006ERKS8_, symObjAddr: 0xD534, symBinAddr: 0x10000F150, symSize: 0x24 }
  - { offsetInCU: 0x3075D, offset: 0x6AE8E, size: 0x8, addend: 0x0, symName: __ZNSt3__14__fs10filesystem20__is_pathable_stringINS_12basic_stringIcNS_11char_traitsIcEENS_9allocatorIcEEEEvE11__range_endB8ue170006ERKS8_, symObjAddr: 0xD558, symBinAddr: 0x10000F174, symSize: 0x3C }
  - { offsetInCU: 0x30780, offset: 0x6AEB1, size: 0x8, addend: 0x0, symName: __ZNKSt3__112basic_stringIcNS_11char_traitsIcEENS_9allocatorIcEEE6lengthB8ue170006Ev, symObjAddr: 0xD594, symBinAddr: 0x10000F1B0, symSize: 0x24 }
  - { offsetInCU: 0x307A6, offset: 0x6AED7, size: 0x8, addend: 0x0, symName: __ZNKSt3__16vectorINS_10unique_ptrIN3tmx5LayerENS_14default_deleteIS3_EEEENS_9allocatorIS6_EEE11__make_iterB8ue170006EPKS6_, symObjAddr: 0xD5B8, symBinAddr: 0x10000F1D4, symSize: 0x30 }
  - { offsetInCU: 0x307DB, offset: 0x6AF0C, size: 0x8, addend: 0x0, symName: __ZNSt3__111__wrap_iterIPKNS_10unique_ptrIN3tmx5LayerENS_14default_deleteIS3_EEEEEC1B8ue170006ES8_, symObjAddr: 0xD5E8, symBinAddr: 0x10000F204, symSize: 0x34 }
  - { offsetInCU: 0x30813, offset: 0x6AF44, size: 0x8, addend: 0x0, symName: __ZNSt3__111__wrap_iterIPKNS_10unique_ptrIN3tmx5LayerENS_14default_deleteIS3_EEEEEC2B8ue170006ES8_, symObjAddr: 0xD61C, symBinAddr: 0x10000F238, symSize: 0x20 }
  - { offsetInCU: 0x3084B, offset: 0x6AF7C, size: 0x8, addend: 0x0, symName: __ZNKSt3__117__compressed_pairIPN3tmx5LayerENS_14default_deleteIS2_EEE5firstB8ue170006Ev, symObjAddr: 0xD63C, symBinAddr: 0x10000F258, symSize: 0x24 }
  - { offsetInCU: 0x30871, offset: 0x6AFA2, size: 0x8, addend: 0x0, symName: __ZNKSt3__122__compressed_pair_elemIPN3tmx5LayerELi0ELb0EE5__getB8ue170006Ev, symObjAddr: 0xD660, symBinAddr: 0x10000F27C, symSize: 0x14 }
  - { offsetInCU: 0x30897, offset: 0x6AFC8, size: 0x8, addend: 0x0, symName: __ZNSt3__16vectorIN2sf6SpriteENS_9allocatorIS2_EEE9__end_capB8ue170006Ev, symObjAddr: 0xD674, symBinAddr: 0x10000F290, symSize: 0x28 }
  - { offsetInCU: 0x308BD, offset: 0x6AFEE, size: 0x8, addend: 0x0, symName: __ZNSt3__16vectorIN2sf6SpriteENS_9allocatorIS2_EEE22__construct_one_at_endB8ue170006IJRKS2_EEEvDpOT_, symObjAddr: 0xD69C, symBinAddr: 0x10000F2B8, symSize: 0x90 }
  - { offsetInCU: 0x3090C, offset: 0x6B03D, size: 0x8, addend: 0x0, symName: __ZNSt3__16vectorIN2sf6SpriteENS_9allocatorIS2_EEE21__push_back_slow_pathIRKS2_EEvOT_, symObjAddr: 0xD72C, symBinAddr: 0x10000F348, symSize: 0xD8 }
  - { offsetInCU: 0x3096A, offset: 0x6B09B, size: 0x8, addend: 0x0, symName: __ZNSt3__117__compressed_pairIPN2sf6SpriteENS_9allocatorIS2_EEE5firstB8ue170006Ev, symObjAddr: 0xD804, symBinAddr: 0x10000F420, symSize: 0x24 }
  - { offsetInCU: 0x309A9, offset: 0x6B0DA, size: 0x8, addend: 0x0, symName: __ZNSt3__16vectorIN2sf6SpriteENS_9allocatorIS2_EEE21_ConstructTransactionC1B8ue170006ERS5_m, symObjAddr: 0xD828, symBinAddr: 0x10000F444, symSize: 0x3C }
  - { offsetInCU: 0x309F1, offset: 0x6B122, size: 0x8, addend: 0x0, symName: __ZNSt3__116allocator_traitsINS_9allocatorIN2sf6SpriteEEEE9constructB8ue170006IS3_JRKS3_EvEEvRS4_PT_DpOT0_, symObjAddr: 0xD864, symBinAddr: 0x10000F480, symSize: 0x34 }
  - { offsetInCU: 0x30A48, offset: 0x6B179, size: 0x8, addend: 0x0, symName: __ZNSt3__16vectorIN2sf6SpriteENS_9allocatorIS2_EEE21_ConstructTransactionD1B8ue170006Ev, symObjAddr: 0xD898, symBinAddr: 0x10000F4B4, symSize: 0x2C }
  - { offsetInCU: 0x30A72, offset: 0x6B1A3, size: 0x8, addend: 0x0, symName: __ZNSt3__16vectorIN2sf6SpriteENS_9allocatorIS2_EEE21_ConstructTransactionC2B8ue170006ERS5_m, symObjAddr: 0xD8C4, symBinAddr: 0x10000F4E0, symSize: 0x4C }
  - { offsetInCU: 0x30ABA, offset: 0x6B1EB, size: 0x8, addend: 0x0, symName: __ZNSt3__19allocatorIN2sf6SpriteEE9constructB8ue170006IS2_JRKS2_EEEvPT_DpOT0_, symObjAddr: 0xD910, symBinAddr: 0x10000F52C, symSize: 0x30 }
  - { offsetInCU: 0x30B10, offset: 0x6B241, size: 0x8, addend: 0x0, symName: __ZN2sf6SpriteC1ERKS0_, symObjAddr: 0xD940, symBinAddr: 0x10000F55C, symSize: 0x34 }
  - { offsetInCU: 0x30B45, offset: 0x6B276, size: 0x8, addend: 0x0, symName: __ZN2sf6SpriteC2ERKS0_, symObjAddr: 0xD974, symBinAddr: 0x10000F590, symSize: 0x88 }
  - { offsetInCU: 0x30B7A, offset: 0x6B2AB, size: 0x8, addend: 0x0, symName: __ZNSt3__16vectorIN2sf6SpriteENS_9allocatorIS2_EEE21_ConstructTransactionD2B8ue170006Ev, symObjAddr: 0xD9FC, symBinAddr: 0x10000F618, symSize: 0x20 }
  - { offsetInCU: 0x30BA4, offset: 0x6B2D5, size: 0x8, addend: 0x0, symName: __ZNKSt3__16vectorIN2sf6SpriteENS_9allocatorIS2_EEE11__recommendB8ue170006Em, symObjAddr: 0xDA1C, symBinAddr: 0x10000F638, symSize: 0xB4 }
  - { offsetInCU: 0x30BF9, offset: 0x6B32A, size: 0x8, addend: 0x0, symName: __ZNSt3__114__split_bufferIN2sf6SpriteERNS_9allocatorIS2_EEEC1EmmS5_, symObjAddr: 0xDAD0, symBinAddr: 0x10000F6EC, symSize: 0x44 }
  - { offsetInCU: 0x30C4F, offset: 0x6B380, size: 0x8, addend: 0x0, symName: __ZNSt3__114__split_bufferIN2sf6SpriteERNS_9allocatorIS2_EEED1Ev, symObjAddr: 0xDC24, symBinAddr: 0x10000F840, symSize: 0x2C }
  - { offsetInCU: 0x30C7B, offset: 0x6B3AC, size: 0x8, addend: 0x0, symName: __ZNKSt3__16vectorIN2sf6SpriteENS_9allocatorIS2_EEE8max_sizeEv, symObjAddr: 0xDC50, symBinAddr: 0x10000F86C, symSize: 0x60 }
  - { offsetInCU: 0x30CA3, offset: 0x6B3D4, size: 0x8, addend: 0x0, symName: __ZNKSt3__16vectorIN2sf6SpriteENS_9allocatorIS2_EEE20__throw_length_errorB8ue170006Ev, symObjAddr: 0xDCB0, symBinAddr: 0x10000F8CC, symSize: 0x1C }
  - { offsetInCU: 0x30CD3, offset: 0x6B404, size: 0x8, addend: 0x0, symName: __ZNSt3__116allocator_traitsINS_9allocatorIN2sf6SpriteEEEE8max_sizeB8ue170006IS4_vEEmRKS4_, symObjAddr: 0xDCCC, symBinAddr: 0x10000F8E8, symSize: 0x24 }
  - { offsetInCU: 0x30D01, offset: 0x6B432, size: 0x8, addend: 0x0, symName: __ZNKSt3__16vectorIN2sf6SpriteENS_9allocatorIS2_EEE7__allocB8ue170006Ev, symObjAddr: 0xDCF0, symBinAddr: 0x10000F90C, symSize: 0x28 }
  - { offsetInCU: 0x30D27, offset: 0x6B458, size: 0x8, addend: 0x0, symName: __ZNKSt3__19allocatorIN2sf6SpriteEE8max_sizeB8ue170006Ev, symObjAddr: 0xDD18, symBinAddr: 0x10000F934, symSize: 0x20 }
  - { offsetInCU: 0x30D4D, offset: 0x6B47E, size: 0x8, addend: 0x0, symName: __ZNKSt3__117__compressed_pairIPN2sf6SpriteENS_9allocatorIS2_EEE6secondB8ue170006Ev, symObjAddr: 0xDD38, symBinAddr: 0x10000F954, symSize: 0x24 }
  - { offsetInCU: 0x30D73, offset: 0x6B4A4, size: 0x8, addend: 0x0, symName: __ZNKSt3__122__compressed_pair_elemINS_9allocatorIN2sf6SpriteEEELi1ELb1EE5__getB8ue170006Ev, symObjAddr: 0xDD5C, symBinAddr: 0x10000F978, symSize: 0x14 }
  - { offsetInCU: 0x30D99, offset: 0x6B4CA, size: 0x8, addend: 0x0, symName: __ZNSt3__114__split_bufferIN2sf6SpriteERNS_9allocatorIS2_EEEC2EmmS5_, symObjAddr: 0xDD70, symBinAddr: 0x10000F98C, symSize: 0xE0 }
  - { offsetInCU: 0x30E0C, offset: 0x6B53D, size: 0x8, addend: 0x0, symName: __ZNSt3__117__compressed_pairIPN2sf6SpriteERNS_9allocatorIS2_EEEC1B8ue170006IDnS6_EEOT_OT0_, symObjAddr: 0xDE50, symBinAddr: 0x10000FA6C, symSize: 0x3C }
  - { offsetInCU: 0x30E64, offset: 0x6B595, size: 0x8, addend: 0x0, symName: __ZNSt3__114__split_bufferIN2sf6SpriteERNS_9allocatorIS2_EEE7__allocB8ue170006Ev, symObjAddr: 0xDECC, symBinAddr: 0x10000FAE8, symSize: 0x28 }
  - { offsetInCU: 0x30E8A, offset: 0x6B5BB, size: 0x8, addend: 0x0, symName: __ZNSt3__114__split_bufferIN2sf6SpriteERNS_9allocatorIS2_EEE9__end_capB8ue170006Ev, symObjAddr: 0xDEF4, symBinAddr: 0x10000FB10, symSize: 0x28 }
  - { offsetInCU: 0x30EB0, offset: 0x6B5E1, size: 0x8, addend: 0x0, symName: __ZNSt3__117__compressed_pairIPN2sf6SpriteERNS_9allocatorIS2_EEEC2B8ue170006IDnS6_EEOT_OT0_, symObjAddr: 0xDF1C, symBinAddr: 0x10000FB38, symSize: 0x48 }
  - { offsetInCU: 0x30F08, offset: 0x6B639, size: 0x8, addend: 0x0, symName: __ZNSt3__122__compressed_pair_elemIRNS_9allocatorIN2sf6SpriteEEELi1ELb0EEC2B8ue170006IS5_vEEOT_, symObjAddr: 0xDF64, symBinAddr: 0x10000FB80, symSize: 0x20 }
  - { offsetInCU: 0x30F4A, offset: 0x6B67B, size: 0x8, addend: 0x0, symName: __ZNSt3__19allocatorIN2sf6SpriteEE8allocateB8ue170006Em, symObjAddr: 0xDF84, symBinAddr: 0x10000FBA0, symSize: 0x5C }
  - { offsetInCU: 0x30F7E, offset: 0x6B6AF, size: 0x8, addend: 0x0, symName: __ZNSt3__117__compressed_pairIPN2sf6SpriteERNS_9allocatorIS2_EEE6secondB8ue170006Ev, symObjAddr: 0xDFE0, symBinAddr: 0x10000FBFC, symSize: 0x28 }
  - { offsetInCU: 0x30FA4, offset: 0x6B6D5, size: 0x8, addend: 0x0, symName: __ZNSt3__122__compressed_pair_elemIRNS_9allocatorIN2sf6SpriteEEELi1ELb0EE5__getB8ue170006Ev, symObjAddr: 0xE008, symBinAddr: 0x10000FC24, symSize: 0x18 }
  - { offsetInCU: 0x30FCA, offset: 0x6B6FB, size: 0x8, addend: 0x0, symName: __ZNSt3__117__compressed_pairIPN2sf6SpriteERNS_9allocatorIS2_EEE5firstB8ue170006Ev, symObjAddr: 0xE020, symBinAddr: 0x10000FC3C, symSize: 0x24 }
  - { offsetInCU: 0x30FF0, offset: 0x6B721, size: 0x8, addend: 0x0, symName: __ZNSt3__116reverse_iteratorIPN2sf6SpriteEEC1B8ue170006ES3_, symObjAddr: 0xE170, symBinAddr: 0x10000FD8C, symSize: 0x34 }
  - { offsetInCU: 0x31028, offset: 0x6B759, size: 0x8, addend: 0x0, symName: __ZNKSt3__116reverse_iteratorIPN2sf6SpriteEE4baseB8ue170006Ev, symObjAddr: 0xE1A4, symBinAddr: 0x10000FDC0, symSize: 0x18 }
  - { offsetInCU: 0x3104E, offset: 0x6B77F, size: 0x8, addend: 0x0, symName: __ZNKSt3__16vectorIN2sf6SpriteENS_9allocatorIS2_EEE14__annotate_newB8ue170006Em, symObjAddr: 0xE1F8, symBinAddr: 0x10000FE14, symSize: 0xC8 }
  - { offsetInCU: 0x31083, offset: 0x6B7B4, size: 0x8, addend: 0x0, symName: __ZNSt3__129_AllocatorDestroyRangeReverseINS_9allocatorIN2sf6SpriteEEENS_16reverse_iteratorIPS3_EEEC1B8ue170006ERS4_RS7_SA_, symObjAddr: 0xE30C, symBinAddr: 0x10000FF28, symSize: 0x44 }
  - { offsetInCU: 0x310DF, offset: 0x6B810, size: 0x8, addend: 0x0, symName: __ZNSt3__116allocator_traitsINS_9allocatorIN2sf6SpriteEEEE9constructB8ue170006IS3_JS3_EvEEvRS4_PT_DpOT0_, symObjAddr: 0xE398, symBinAddr: 0x10000FFB4, symSize: 0x34 }
  - { offsetInCU: 0x31136, offset: 0x6B867, size: 0x8, addend: 0x0, symName: __ZNKSt3__116reverse_iteratorIPN2sf6SpriteEEdeB8ue170006Ev, symObjAddr: 0xE3F0, symBinAddr: 0x10001000C, symSize: 0x28 }
  - { offsetInCU: 0x3116B, offset: 0x6B89C, size: 0x8, addend: 0x0, symName: __ZNSt3__116reverse_iteratorIPN2sf6SpriteEEppB8ue170006Ev, symObjAddr: 0xE418, symBinAddr: 0x100010034, symSize: 0x20 }
  - { offsetInCU: 0x31191, offset: 0x6B8C2, size: 0x8, addend: 0x0, symName: __ZNSt3__128__exception_guard_exceptionsINS_29_AllocatorDestroyRangeReverseINS_9allocatorIN2sf6SpriteEEENS_16reverse_iteratorIPS4_EEEEE10__completeB8ue170006Ev, symObjAddr: 0xE438, symBinAddr: 0x100010054, symSize: 0x1C }
  - { offsetInCU: 0x311B7, offset: 0x6B8E8, size: 0x8, addend: 0x0, symName: __ZNSt3__128__exception_guard_exceptionsINS_29_AllocatorDestroyRangeReverseINS_9allocatorIN2sf6SpriteEEENS_16reverse_iteratorIPS4_EEEEED1B8ue170006Ev, symObjAddr: 0xE454, symBinAddr: 0x100010070, symSize: 0x2C }
  - { offsetInCU: 0x311E1, offset: 0x6B912, size: 0x8, addend: 0x0, symName: __ZNSt3__128__exception_guard_exceptionsINS_29_AllocatorDestroyRangeReverseINS_9allocatorIN2sf6SpriteEEENS_16reverse_iteratorIPS4_EEEEEC1B8ue170006ES9_, symObjAddr: 0xE480, symBinAddr: 0x10001009C, symSize: 0x34 }
  - { offsetInCU: 0x3121A, offset: 0x6B94B, size: 0x8, addend: 0x0, symName: __ZNSt3__128__exception_guard_exceptionsINS_29_AllocatorDestroyRangeReverseINS_9allocatorIN2sf6SpriteEEENS_16reverse_iteratorIPS4_EEEEEC2B8ue170006ES9_, symObjAddr: 0xE4B4, symBinAddr: 0x1000100D0, symSize: 0x30 }
  - { offsetInCU: 0x31253, offset: 0x6B984, size: 0x8, addend: 0x0, symName: __ZNSt3__129_AllocatorDestroyRangeReverseINS_9allocatorIN2sf6SpriteEEENS_16reverse_iteratorIPS3_EEEC2B8ue170006ERS4_RS7_SA_, symObjAddr: 0xE4E4, symBinAddr: 0x100010100, symSize: 0x38 }
  - { offsetInCU: 0x312AA, offset: 0x6B9DB, size: 0x8, addend: 0x0, symName: __ZNSt3__19allocatorIN2sf6SpriteEE9constructB8ue170006IS2_JS2_EEEvPT_DpOT0_, symObjAddr: 0xE51C, symBinAddr: 0x100010138, symSize: 0x30 }
  - { offsetInCU: 0x31300, offset: 0x6BA31, size: 0x8, addend: 0x0, symName: __ZN2sf6SpriteC1EOS0_, symObjAddr: 0xE54C, symBinAddr: 0x100010168, symSize: 0x34 }
  - { offsetInCU: 0x31335, offset: 0x6BA66, size: 0x8, addend: 0x0, symName: __ZN2sf6SpriteC2EOS0_, symObjAddr: 0xE580, symBinAddr: 0x10001019C, symSize: 0x88 }
  - { offsetInCU: 0x3136F, offset: 0x6BAA0, size: 0x8, addend: 0x0, symName: __ZNSt3__119__to_address_helperINS_16reverse_iteratorIPN2sf6SpriteEEEvE6__callB8ue170006ERKS5_, symObjAddr: 0xE608, symBinAddr: 0x100010224, symSize: 0x38 }
  - { offsetInCU: 0x31392, offset: 0x6BAC3, size: 0x8, addend: 0x0, symName: __ZNKSt3__116reverse_iteratorIPN2sf6SpriteEEptB8ue170006Ev, symObjAddr: 0xE640, symBinAddr: 0x10001025C, symSize: 0x24 }
  - { offsetInCU: 0x313B8, offset: 0x6BAE9, size: 0x8, addend: 0x0, symName: __ZNSt3__128__exception_guard_exceptionsINS_29_AllocatorDestroyRangeReverseINS_9allocatorIN2sf6SpriteEEENS_16reverse_iteratorIPS4_EEEEED2B8ue170006Ev, symObjAddr: 0xE664, symBinAddr: 0x100010280, symSize: 0x50 }
  - { offsetInCU: 0x313E2, offset: 0x6BB13, size: 0x8, addend: 0x0, symName: __ZNKSt3__129_AllocatorDestroyRangeReverseINS_9allocatorIN2sf6SpriteEEENS_16reverse_iteratorIPS3_EEEclB8ue170006Ev, symObjAddr: 0xE6B4, symBinAddr: 0x1000102D0, symSize: 0xB4 }
  - { offsetInCU: 0x31409, offset: 0x6BB3A, size: 0x8, addend: 0x0, symName: __ZNSt3__116reverse_iteratorINS0_IPN2sf6SpriteEEEEC1B8ue170006ES4_, symObjAddr: 0xE7D8, symBinAddr: 0x1000103F4, symSize: 0x3C }
  - { offsetInCU: 0x31441, offset: 0x6BB72, size: 0x8, addend: 0x0, symName: __ZNSt3__116reverse_iteratorINS0_IPN2sf6SpriteEEEEppB8ue170006Ev, symObjAddr: 0xE898, symBinAddr: 0x1000104B4, symSize: 0x30 }
  - { offsetInCU: 0x31467, offset: 0x6BB98, size: 0x8, addend: 0x0, symName: __ZNKSt3__116reverse_iteratorINS0_IPN2sf6SpriteEEEE4baseB8ue170006Ev, symObjAddr: 0xE8C8, symBinAddr: 0x1000104E4, symSize: 0x24 }
  - { offsetInCU: 0x31492, offset: 0x6BBC3, size: 0x8, addend: 0x0, symName: __ZNSt3__119__to_address_helperINS_16reverse_iteratorINS1_IPN2sf6SpriteEEEEEvE6__callB8ue170006ERKS6_, symObjAddr: 0xE8EC, symBinAddr: 0x100010508, symSize: 0x38 }
  - { offsetInCU: 0x314B5, offset: 0x6BBE6, size: 0x8, addend: 0x0, symName: __ZNKSt3__116reverse_iteratorINS0_IPN2sf6SpriteEEEEptB8ue170006Ev, symObjAddr: 0xE924, symBinAddr: 0x100010540, symSize: 0x24 }
  - { offsetInCU: 0x314DB, offset: 0x6BC0C, size: 0x8, addend: 0x0, symName: __ZNKSt3__116reverse_iteratorINS0_IPN2sf6SpriteEEEEdeB8ue170006Ev, symObjAddr: 0xE948, symBinAddr: 0x100010564, symSize: 0x34 }
  - { offsetInCU: 0x31510, offset: 0x6BC41, size: 0x8, addend: 0x0, symName: __ZNSt3__116reverse_iteratorIPN2sf6SpriteEEmmB8ue170006Ev, symObjAddr: 0xE97C, symBinAddr: 0x100010598, symSize: 0x20 }
  - { offsetInCU: 0x31536, offset: 0x6BC67, size: 0x8, addend: 0x0, symName: __ZNSt3__116reverse_iteratorINS0_IPN2sf6SpriteEEEEC2B8ue170006ES4_, symObjAddr: 0xE99C, symBinAddr: 0x1000105B8, symSize: 0x2C }
  - { offsetInCU: 0x3156E, offset: 0x6BC9F, size: 0x8, addend: 0x0, symName: __ZNSt3__116reverse_iteratorIPN2sf6SpriteEEC2B8ue170006ES3_, symObjAddr: 0xE9C8, symBinAddr: 0x1000105E4, symSize: 0x28 }
  - { offsetInCU: 0x315A6, offset: 0x6BCD7, size: 0x8, addend: 0x0, symName: __ZNSt3__114__split_bufferIN2sf6SpriteERNS_9allocatorIS2_EEED2Ev, symObjAddr: 0xE9F0, symBinAddr: 0x10001060C, symSize: 0x8C }
  - { offsetInCU: 0x315D2, offset: 0x6BD03, size: 0x8, addend: 0x0, symName: __ZNSt3__114__split_bufferIN2sf6SpriteERNS_9allocatorIS2_EEE5clearB8ue170006Ev, symObjAddr: 0xEA7C, symBinAddr: 0x100010698, symSize: 0x28 }
  - { offsetInCU: 0x315F8, offset: 0x6BD29, size: 0x8, addend: 0x0, symName: __ZNKSt3__114__split_bufferIN2sf6SpriteERNS_9allocatorIS2_EEE8capacityB8ue170006Ev, symObjAddr: 0xEAA4, symBinAddr: 0x1000106C0, symSize: 0x40 }
  - { offsetInCU: 0x3161E, offset: 0x6BD4F, size: 0x8, addend: 0x0, symName: __ZNSt3__114__split_bufferIN2sf6SpriteERNS_9allocatorIS2_EEE17__destruct_at_endB8ue170006EPS2_, symObjAddr: 0xEAE4, symBinAddr: 0x100010700, symSize: 0x2C }
  - { offsetInCU: 0x31652, offset: 0x6BD83, size: 0x8, addend: 0x0, symName: __ZNSt3__114__split_bufferIN2sf6SpriteERNS_9allocatorIS2_EEE17__destruct_at_endB8ue170006EPS2_NS_17integral_constantIbLb0EEE, symObjAddr: 0xEB10, symBinAddr: 0x10001072C, symSize: 0x80 }
  - { offsetInCU: 0x31693, offset: 0x6BDC4, size: 0x8, addend: 0x0, symName: __ZNKSt3__114__split_bufferIN2sf6SpriteERNS_9allocatorIS2_EEE9__end_capB8ue170006Ev, symObjAddr: 0xEB90, symBinAddr: 0x1000107AC, symSize: 0x28 }
  - { offsetInCU: 0x316B9, offset: 0x6BDEA, size: 0x8, addend: 0x0, symName: __ZNKSt3__117__compressed_pairIPN2sf6SpriteERNS_9allocatorIS2_EEE5firstB8ue170006Ev, symObjAddr: 0xEBB8, symBinAddr: 0x1000107D4, symSize: 0x24 }
  - { offsetInCU: 0x316DF, offset: 0x6BE10, size: 0x8, addend: 0x0, symName: __ZNKSt3__117__compressed_pairIP6PlayerNS_14default_deleteIS1_EEE5firstB8ue170006Ev, symObjAddr: 0xEBDC, symBinAddr: 0x1000107F8, symSize: 0x24 }
  - { offsetInCU: 0x31705, offset: 0x6BE36, size: 0x8, addend: 0x0, symName: __ZNKSt3__122__compressed_pair_elemIP6PlayerLi0ELb0EE5__getB8ue170006Ev, symObjAddr: 0xEC00, symBinAddr: 0x10001081C, symSize: 0x14 }
  - { offsetInCU: 0x3172B, offset: 0x6BE5C, size: 0x8, addend: 0x0, symName: __ZNKSt3__17variantIJN2sf5Event6ClosedENS2_7ResizedENS2_9FocusLostENS2_11FocusGainedENS2_11TextEnteredENS2_10KeyPressedENS2_11KeyReleasedENS2_18MouseWheelScrolledENS2_18MouseButtonPressedENS2_19MouseButtonReleasedENS2_10MouseMovedENS2_13MouseMovedRawENS2_12MouseEnteredENS2_9MouseLeftENS2_21JoystickButtonPressedENS2_22JoystickButtonReleasedENS2_13JoystickMovedENS2_17JoystickConnectedENS2_20JoystickDisconnectedENS2_10TouchBeganENS2_10TouchMovedENS2_10TouchEndedENS2_13SensorChangedEEE5indexB8ue170006Ev, symObjAddr: 0xEC6C, symBinAddr: 0x100010888, symSize: 0x24 }
  - { offsetInCU: 0x31751, offset: 0x6BE82, size: 0x8, addend: 0x0, symName: __ZNKSt3__116__variant_detail6__baseILNS0_6_TraitE0EJN2sf5Event6ClosedENS4_7ResizedENS4_9FocusLostENS4_11FocusGainedENS4_11TextEnteredENS4_10KeyPressedENS4_11KeyReleasedENS4_18MouseWheelScrolledENS4_18MouseButtonPressedENS4_19MouseButtonReleasedENS4_10MouseMovedENS4_13MouseMovedRawENS4_12MouseEnteredENS4_9MouseLeftENS4_21JoystickButtonPressedENS4_22JoystickButtonReleasedENS4_13JoystickMovedENS4_17JoystickConnectedENS4_20JoystickDisconnectedENS4_10TouchBeganENS4_10TouchMovedENS4_10TouchEndedENS4_13SensorChangedEEE5indexB8ue170006Ev, symObjAddr: 0xEC90, symBinAddr: 0x1000108AC, symSize: 0x4C }
  - { offsetInCU: 0x31777, offset: 0x6BEA8, size: 0x8, addend: 0x0, symName: __ZNSt3__16vectorIN2sf6SpriteENS_9allocatorIS2_EEE11__make_iterB8ue170006EPS2_, symObjAddr: 0xECDC, symBinAddr: 0x1000108F8, symSize: 0x30 }
  - { offsetInCU: 0x317AC, offset: 0x6BEDD, size: 0x8, addend: 0x0, symName: __ZNSt3__111__wrap_iterIPN2sf6SpriteEEC1B8ue170006ES3_, symObjAddr: 0xED0C, symBinAddr: 0x100010928, symSize: 0x34 }
  - { offsetInCU: 0x317E4, offset: 0x6BF15, size: 0x8, addend: 0x0, symName: __ZNSt3__111__wrap_iterIPN2sf6SpriteEEC2B8ue170006ES3_, symObjAddr: 0xED40, symBinAddr: 0x10001095C, symSize: 0x20 }
  - { offsetInCU: 0x3181C, offset: 0x6BF4D, size: 0x8, addend: 0x0, symName: __ZNSt3__16vectorI8PlatformNS_9allocatorIS1_EEE11__make_iterB8ue170006EPS1_, symObjAddr: 0xED60, symBinAddr: 0x10001097C, symSize: 0x30 }
  - { offsetInCU: 0x31851, offset: 0x6BF82, size: 0x8, addend: 0x0, symName: __ZNSt3__111__wrap_iterIP8PlatformEC1B8ue170006ES2_, symObjAddr: 0xED90, symBinAddr: 0x1000109AC, symSize: 0x34 }
  - { offsetInCU: 0x31889, offset: 0x6BFBA, size: 0x8, addend: 0x0, symName: __ZNSt3__111__wrap_iterIP8PlatformEC2B8ue170006ES2_, symObjAddr: 0xEDC4, symBinAddr: 0x1000109E0, symSize: 0x20 }
  - { offsetInCU: 0x91, offset: 0x6C30C, size: 0x8, addend: 0x0, symName: __ZN2sf5Color5BlackE, symObjAddr: 0x3554, symBinAddr: 0x1000681B4, symSize: 0x0 }
  - { offsetInCU: 0x9F, offset: 0x6C31A, size: 0x8, addend: 0x0, symName: __ZN2sfdvIfEENS_7Vector2IT_EES3_S2_, symObjAddr: 0x4F0, symBinAddr: 0x100010E88, symSize: 0xA4 }
  - { offsetInCU: 0xE3, offset: 0x6C35E, size: 0x8, addend: 0x0, symName: __ZN2sfpLIfEERNS_7Vector2IT_EES4_S3_, symObjAddr: 0x1124, symBinAddr: 0x100011830, symSize: 0x44 }
  - { offsetInCU: 0x126, offset: 0x6C3A1, size: 0x8, addend: 0x0, symName: __ZN2sfmlIfEENS_7Vector2IT_EES3_S2_, symObjAddr: 0x1168, symBinAddr: 0x100011874, symSize: 0x4C }
  - { offsetInCU: 0x185, offset: 0x6C400, size: 0x8, addend: 0x0, symName: __ZL7GRAVITY, symObjAddr: 0x3558, symBinAddr: 0x1000681B8, symSize: 0x0 }
  - { offsetInCU: 0xB014, offset: 0x7728F, size: 0x8, addend: 0x0, symName: __ZN6PlayerC2Eff, symObjAddr: 0x0, symBinAddr: 0x100010A00, symSize: 0x45C }
  - { offsetInCU: 0xB05C, offset: 0x772D7, size: 0x8, addend: 0x0, symName: __ZN2sf7Vector2IfEC1Ev, symObjAddr: 0x45C, symBinAddr: 0x100010E5C, symSize: 0x2C }
  - { offsetInCU: 0xB09E, offset: 0x77319, size: 0x8, addend: 0x0, symName: __ZNSt3__14__fs10filesystem4pathC1B8ue170006IA76_cvEERKT_NS2_6formatE, symObjAddr: 0x5E0, symBinAddr: 0x100010F2C, symSize: 0x3C }
  - { offsetInCU: 0xB0ED, offset: 0x77368, size: 0x8, addend: 0x0, symName: __ZN6PlayerC1Eff, symObjAddr: 0x828, symBinAddr: 0x100010F68, symSize: 0x3C }
  - { offsetInCU: 0xB135, offset: 0x773B0, size: 0x8, addend: 0x0, symName: __ZN6Player17setAnimationStateEbb, symObjAddr: 0x864, symBinAddr: 0x100010FA4, symSize: 0x39C }
  - { offsetInCU: 0xB1AF, offset: 0x7742A, size: 0x8, addend: 0x0, symName: __ZNSt3__14__fs10filesystem4pathC1B8ue170006IA75_cvEERKT_NS2_6formatE, symObjAddr: 0xC00, symBinAddr: 0x100011340, symSize: 0x3C }
  - { offsetInCU: 0xB1FE, offset: 0x77479, size: 0x8, addend: 0x0, symName: __ZN6Player11handleInputEv, symObjAddr: 0xC70, symBinAddr: 0x10001137C, symSize: 0x2DC }
  - { offsetInCU: 0xB235, offset: 0x774B0, size: 0x8, addend: 0x0, symName: __ZN6Player6updateEf, symObjAddr: 0xF4C, symBinAddr: 0x100011658, symSize: 0x1D8 }
  - { offsetInCU: 0xB26B, offset: 0x774E6, size: 0x8, addend: 0x0, symName: __ZN6Player4drawERN2sf12RenderWindowE, symObjAddr: 0x11B4, symBinAddr: 0x1000118C0, symSize: 0x68 }
  - { offsetInCU: 0xB2A1, offset: 0x7751C, size: 0x8, addend: 0x0, symName: __ZN2sf7Vector2IfEC2Ev, symObjAddr: 0x1244, symBinAddr: 0x100011928, symSize: 0x20 }
  - { offsetInCU: 0xB2CB, offset: 0x77546, size: 0x8, addend: 0x0, symName: __ZNSt3__14__fs10filesystem4pathC2B8ue170006IA76_cvEERKT_NS2_6formatE, symObjAddr: 0x1DBC, symBinAddr: 0x100011948, symSize: 0x68 }
  - { offsetInCU: 0xB31F, offset: 0x7759A, size: 0x8, addend: 0x0, symName: __ZNSt3__14__fs10filesystem8_PathCVTIcE15__append_sourceB8ue170006IA76_cEEvRNS_12basic_stringIcNS_11char_traitsIcEENS_9allocatorIcEEEERKT_, symObjAddr: 0x1E50, symBinAddr: 0x1000119B0, symSize: 0x4C }
  - { offsetInCU: 0xB35B, offset: 0x775D6, size: 0x8, addend: 0x0, symName: __ZNSt3__14__fs10filesystem24__is_pathable_char_arrayIA76_cPccLb1EE13__range_beginB8ue170006EPKc, symObjAddr: 0x2088, symBinAddr: 0x1000119FC, symSize: 0x14 }
  - { offsetInCU: 0xB37E, offset: 0x775F9, size: 0x8, addend: 0x0, symName: __ZNSt3__14__fs10filesystem24__is_pathable_char_arrayIA76_cPccLb1EE11__range_endB8ue170006EPKc, symObjAddr: 0x209C, symBinAddr: 0x100011A10, symSize: 0x50 }
  - { offsetInCU: 0xB3CF, offset: 0x7764A, size: 0x8, addend: 0x0, symName: __ZNSt3__14__fs10filesystem4pathC2B8ue170006IA75_cvEERKT_NS2_6formatE, symObjAddr: 0x3338, symBinAddr: 0x100011A60, symSize: 0x68 }
  - { offsetInCU: 0xB41E, offset: 0x77699, size: 0x8, addend: 0x0, symName: __ZNSt3__14__fs10filesystem8_PathCVTIcE15__append_sourceB8ue170006IA75_cEEvRNS_12basic_stringIcNS_11char_traitsIcEENS_9allocatorIcEEEERKT_, symObjAddr: 0x33A0, symBinAddr: 0x100011AC8, symSize: 0x4C }
  - { offsetInCU: 0xB45A, offset: 0x776D5, size: 0x8, addend: 0x0, symName: __ZNSt3__14__fs10filesystem24__is_pathable_char_arrayIA75_cPccLb1EE13__range_beginB8ue170006EPKc, symObjAddr: 0x33EC, symBinAddr: 0x100011B14, symSize: 0x14 }
  - { offsetInCU: 0xB47D, offset: 0x776F8, size: 0x8, addend: 0x0, symName: __ZNSt3__14__fs10filesystem24__is_pathable_char_arrayIA75_cPccLb1EE11__range_endB8ue170006EPKc, symObjAddr: 0x3400, symBinAddr: 0x100011B28, symSize: 0x50 }
  - { offsetInCU: 0x2A84, offset: 0x7A1DB, size: 0x8, addend: 0x0, symName: __ZN8PlatformC2ERKN2sf7Vector2IfEES4_, symObjAddr: 0x0, symBinAddr: 0x100011B78, symSize: 0x1A4 }
  - { offsetInCU: 0x2ACC, offset: 0x7A223, size: 0x8, addend: 0x0, symName: __ZN8PlatformC1ERKN2sf7Vector2IfEES4_, symObjAddr: 0x248, symBinAddr: 0x100011D1C, symSize: 0x3C }
  - { offsetInCU: 0x2B14, offset: 0x7A26B, size: 0x8, addend: 0x0, symName: __ZN8Platform4drawERN2sf12RenderWindowE, symObjAddr: 0x284, symBinAddr: 0x100011D58, symSize: 0x38 }
  - { offsetInCU: 0x34F5, offset: 0x7D79A, size: 0x8, addend: 0x0, symName: __ZN5LevelC2Ev, symObjAddr: 0x0, symBinAddr: 0x100011D90, symSize: 0x2C }
  - { offsetInCU: 0x3521, offset: 0x7D7C6, size: 0x8, addend: 0x0, symName: __ZN5LevelC1Ev, symObjAddr: 0x58, symBinAddr: 0x100011DBC, symSize: 0x2C }
  - { offsetInCU: 0x354D, offset: 0x7D7F2, size: 0x8, addend: 0x0, symName: __ZN5Level4loadEi, symObjAddr: 0x84, symBinAddr: 0x100011DE8, symSize: 0x14 }
  - { offsetInCU: 0x43AF, offset: 0x81BDB, size: 0x8, addend: 0x0, symName: __ZN6Assets10getTextureERKNSt3__112basic_stringIcNS0_11char_traitsIcEENS0_9allocatorIcEEEE, symObjAddr: 0x94, symBinAddr: 0x100011E90, symSize: 0xC4 }
  - { offsetInCU: 0x43D5, offset: 0x81C01, size: 0x8, addend: 0x0, symName: __ZZN6Assets10getTextureERKNSt3__112basic_stringIcNS0_11char_traitsIcEENS0_9allocatorIcEEEEE5dummy, symObjAddr: 0x55258, symBinAddr: 0x100070100, symSize: 0x0 }
  - { offsetInCU: 0x6258, offset: 0x83A84, size: 0x8, addend: 0x0, symName: __ZN6AssetsC2Ev, symObjAddr: 0x0, symBinAddr: 0x100011DFC, symSize: 0x2C }
  - { offsetInCU: 0x6284, offset: 0x83AB0, size: 0x8, addend: 0x0, symName: __ZNSt3__13mapINS_12basic_stringIcNS_11char_traitsIcEENS_9allocatorIcEEEEN2sf7TextureENS_4lessIS6_EENS4_INS_4pairIKS6_S8_EEEEEC1B8ue170006Ev, symObjAddr: 0x2C, symBinAddr: 0x100011E28, symSize: 0x2C }
  - { offsetInCU: 0x62AE, offset: 0x83ADA, size: 0x8, addend: 0x0, symName: __ZN6AssetsC1Ev, symObjAddr: 0x58, symBinAddr: 0x100011E54, symSize: 0x2C }
  - { offsetInCU: 0x62DA, offset: 0x83B06, size: 0x8, addend: 0x0, symName: __ZN6Assets4loadEv, symObjAddr: 0x84, symBinAddr: 0x100011E80, symSize: 0x10 }
  - { offsetInCU: 0x6302, offset: 0x83B2E, size: 0x8, addend: 0x0, symName: __ZNSt3__13mapINS_12basic_stringIcNS_11char_traitsIcEENS_9allocatorIcEEEEN2sf7TextureENS_4lessIS6_EENS4_INS_4pairIKS6_S8_EEEEEC2B8ue170006Ev, symObjAddr: 0x158, symBinAddr: 0x100011F54, symSize: 0x40 }
  - { offsetInCU: 0x632C, offset: 0x83B58, size: 0x8, addend: 0x0, symName: __ZNSt3__119__map_value_compareINS_12basic_stringIcNS_11char_traitsIcEENS_9allocatorIcEEEENS_12__value_typeIS6_N2sf7TextureEEENS_4lessIS6_EELb1EEC1B8ue170006ESC_, symObjAddr: 0x198, symBinAddr: 0x100011F94, symSize: 0x2C }
  - { offsetInCU: 0x6365, offset: 0x83B91, size: 0x8, addend: 0x0, symName: __ZNSt3__16__treeINS_12__value_typeINS_12basic_stringIcNS_11char_traitsIcEENS_9allocatorIcEEEEN2sf7TextureEEENS_19__map_value_compareIS7_SA_NS_4lessIS7_EELb1EEENS5_ISA_EEEC1ERKSE_, symObjAddr: 0x1C4, symBinAddr: 0x100011FC0, symSize: 0x34 }
  - { offsetInCU: 0x63A0, offset: 0x83BCC, size: 0x8, addend: 0x0, symName: __ZNSt3__119__map_value_compareINS_12basic_stringIcNS_11char_traitsIcEENS_9allocatorIcEEEENS_12__value_typeIS6_N2sf7TextureEEENS_4lessIS6_EELb1EEC2B8ue170006ESC_, symObjAddr: 0x1F8, symBinAddr: 0x100011FF4, symSize: 0x14 }
  - { offsetInCU: 0x63D9, offset: 0x83C05, size: 0x8, addend: 0x0, symName: __ZNSt3__16__treeINS_12__value_typeINS_12basic_stringIcNS_11char_traitsIcEENS_9allocatorIcEEEEN2sf7TextureEEENS_19__map_value_compareIS7_SA_NS_4lessIS7_EELb1EEENS5_ISA_EEEC2ERKSE_, symObjAddr: 0x20C, symBinAddr: 0x100012008, symSize: 0x7C }
  - { offsetInCU: 0x6414, offset: 0x83C40, size: 0x8, addend: 0x0, symName: __ZNSt3__117__compressed_pairINS_15__tree_end_nodeIPNS_16__tree_node_baseIPvEEEENS_9allocatorINS_11__tree_nodeINS_12__value_typeINS_12basic_stringIcNS_11char_traitsIcEENS7_IcEEEEN2sf7TextureEEES3_EEEEEC1B8ue170006ILb1EvEEv, symObjAddr: 0x288, symBinAddr: 0x100012084, symSize: 0x2C }
  - { offsetInCU: 0x644E, offset: 0x83C7A, size: 0x8, addend: 0x0, symName: __ZNSt3__117__compressed_pairImNS_19__map_value_compareINS_12basic_stringIcNS_11char_traitsIcEENS_9allocatorIcEEEENS_12__value_typeIS7_N2sf7TextureEEENS_4lessIS7_EELb1EEEEC1B8ue170006IiRKSE_EEOT_OT0_, symObjAddr: 0x2C0, symBinAddr: 0x1000120B0, symSize: 0x3C }
  - { offsetInCU: 0x64A6, offset: 0x83CD2, size: 0x8, addend: 0x0, symName: __ZNSt3__16__treeINS_12__value_typeINS_12basic_stringIcNS_11char_traitsIcEENS_9allocatorIcEEEEN2sf7TextureEEENS_19__map_value_compareIS7_SA_NS_4lessIS7_EELb1EEENS5_ISA_EEE10__end_nodeB8ue170006Ev, symObjAddr: 0x2FC, symBinAddr: 0x1000120EC, symSize: 0x2C }
  - { offsetInCU: 0x64CC, offset: 0x83CF8, size: 0x8, addend: 0x0, symName: __ZNSt3__16__treeINS_12__value_typeINS_12basic_stringIcNS_11char_traitsIcEENS_9allocatorIcEEEEN2sf7TextureEEENS_19__map_value_compareIS7_SA_NS_4lessIS7_EELb1EEENS5_ISA_EEE12__begin_nodeB8ue170006Ev, symObjAddr: 0x328, symBinAddr: 0x100012118, symSize: 0x14 }
  - { offsetInCU: 0x64F2, offset: 0x83D1E, size: 0x8, addend: 0x0, symName: __ZNSt3__117__compressed_pairINS_15__tree_end_nodeIPNS_16__tree_node_baseIPvEEEENS_9allocatorINS_11__tree_nodeINS_12__value_typeINS_12basic_stringIcNS_11char_traitsIcEENS7_IcEEEEN2sf7TextureEEES3_EEEEEC2B8ue170006ILb1EvEEv, symObjAddr: 0x33C, symBinAddr: 0x10001212C, symSize: 0x34 }
  - { offsetInCU: 0x6527, offset: 0x83D53, size: 0x8, addend: 0x0, symName: __ZNSt3__122__compressed_pair_elemINS_15__tree_end_nodeIPNS_16__tree_node_baseIPvEEEELi0ELb0EEC2B8ue170006ENS_16__value_init_tagE, symObjAddr: 0x370, symBinAddr: 0x100012160, symSize: 0x2C }
  - { offsetInCU: 0x655C, offset: 0x83D88, size: 0x8, addend: 0x0, symName: __ZNSt3__122__compressed_pair_elemINS_9allocatorINS_11__tree_nodeINS_12__value_typeINS_12basic_stringIcNS_11char_traitsIcEENS1_IcEEEEN2sf7TextureEEEPvEEEELi1ELb1EEC2B8ue170006ENS_16__value_init_tagE, symObjAddr: 0x39C, symBinAddr: 0x10001218C, symSize: 0x2C }
  - { offsetInCU: 0x6591, offset: 0x83DBD, size: 0x8, addend: 0x0, symName: __ZNSt3__115__tree_end_nodeIPNS_16__tree_node_baseIPvEEEC1B8ue170006Ev, symObjAddr: 0x3C8, symBinAddr: 0x1000121B8, symSize: 0x2C }
  - { offsetInCU: 0x65BB, offset: 0x83DE7, size: 0x8, addend: 0x0, symName: __ZNSt3__115__tree_end_nodeIPNS_16__tree_node_baseIPvEEEC2B8ue170006Ev, symObjAddr: 0x3F4, symBinAddr: 0x1000121E4, symSize: 0x18 }
  - { offsetInCU: 0x65E5, offset: 0x83E11, size: 0x8, addend: 0x0, symName: __ZNSt3__19allocatorINS_11__tree_nodeINS_12__value_typeINS_12basic_stringIcNS_11char_traitsIcEENS0_IcEEEEN2sf7TextureEEEPvEEEC2B8ue170006Ev, symObjAddr: 0x40C, symBinAddr: 0x1000121FC, symSize: 0x2C }
  - { offsetInCU: 0x660F, offset: 0x83E3B, size: 0x8, addend: 0x0, symName: __ZNSt3__116__non_trivial_ifILb1ENS_9allocatorINS_11__tree_nodeINS_12__value_typeINS_12basic_stringIcNS_11char_traitsIcEENS1_IcEEEEN2sf7TextureEEEPvEEEEEC2B8ue170006Ev, symObjAddr: 0x438, symBinAddr: 0x100012228, symSize: 0x14 }
  - { offsetInCU: 0x6639, offset: 0x83E65, size: 0x8, addend: 0x0, symName: __ZNSt3__117__compressed_pairImNS_19__map_value_compareINS_12basic_stringIcNS_11char_traitsIcEENS_9allocatorIcEEEENS_12__value_typeIS7_N2sf7TextureEEENS_4lessIS7_EELb1EEEEC2B8ue170006IiRKSE_EEOT_OT0_, symObjAddr: 0x44C, symBinAddr: 0x10001223C, symSize: 0x44 }
  - { offsetInCU: 0x6691, offset: 0x83EBD, size: 0x8, addend: 0x0, symName: __ZNSt3__122__compressed_pair_elemImLi0ELb0EEC2B8ue170006IivEEOT_, symObjAddr: 0x490, symBinAddr: 0x100012280, symSize: 0x24 }
  - { offsetInCU: 0x66D3, offset: 0x83EFF, size: 0x8, addend: 0x0, symName: __ZNSt3__122__compressed_pair_elemINS_19__map_value_compareINS_12basic_stringIcNS_11char_traitsIcEENS_9allocatorIcEEEENS_12__value_typeIS7_N2sf7TextureEEENS_4lessIS7_EELb1EEELi1ELb1EEC2B8ue170006IRKSE_vEEOT_, symObjAddr: 0x4B4, symBinAddr: 0x1000122A4, symSize: 0x18 }
  - { offsetInCU: 0x6715, offset: 0x83F41, size: 0x8, addend: 0x0, symName: __ZNSt3__117__compressed_pairINS_15__tree_end_nodeIPNS_16__tree_node_baseIPvEEEENS_9allocatorINS_11__tree_nodeINS_12__value_typeINS_12basic_stringIcNS_11char_traitsIcEENS7_IcEEEEN2sf7TextureEEES3_EEEEE5firstB8ue170006Ev, symObjAddr: 0x4E0, symBinAddr: 0x1000122BC, symSize: 0x24 }
  - { offsetInCU: 0x673B, offset: 0x83F67, size: 0x8, addend: 0x0, symName: __ZNSt3__122__compressed_pair_elemINS_15__tree_end_nodeIPNS_16__tree_node_baseIPvEEEELi0ELb0EE5__getB8ue170006Ev, symObjAddr: 0x504, symBinAddr: 0x1000122E0, symSize: 0x14 }
  - { offsetInCU: 0x26, offset: 0x83FD0, size: 0x8, addend: 0x0, symName: __ZN5InputC2Ev, symObjAddr: 0x0, symBinAddr: 0x1000122F4, symSize: 0x14 }
  - { offsetInCU: 0x63, offset: 0x8400D, size: 0x8, addend: 0x0, symName: __ZN5InputC2Ev, symObjAddr: 0x0, symBinAddr: 0x1000122F4, symSize: 0x14 }
  - { offsetInCU: 0x8F, offset: 0x84039, size: 0x8, addend: 0x0, symName: __ZN5InputC1Ev, symObjAddr: 0x14, symBinAddr: 0x100012308, symSize: 0x2C }
  - { offsetInCU: 0xBB, offset: 0x84065, size: 0x8, addend: 0x0, symName: __ZN5Input6updateEv, symObjAddr: 0x40, symBinAddr: 0x100012334, symSize: 0x10 }
  - { offsetInCU: 0xEF, offset: 0x84181, size: 0x8, addend: 0x0, symName: __ZN3tmxL11getFilePathERKNSt3__112basic_stringIcNS0_11char_traitsIcEENS0_9allocatorIcEEEE, symObjAddr: 0xDBC, symBinAddr: 0x1000130D4, symSize: 0xE4 }
  - { offsetInCU: 0x119, offset: 0x841AB, size: 0x8, addend: 0x0, symName: __ZZN3tmxL11getFilePathERKNSt3__112basic_stringIcNS0_11char_traitsIcEENS0_9allocatorIcEEEEE10searchFunc, symObjAddr: 0x12E1AF, symBinAddr: 0x100070140, symSize: 0x0 }
  - { offsetInCU: 0x19E3, offset: 0x85A75, size: 0x8, addend: 0x0, symName: __ZN3tmxL16colourFromStringENSt3__112basic_stringIcNS0_11char_traitsIcEENS0_9allocatorIcEEEE, symObjAddr: 0x2890, symBinAddr: 0x100014B74, symSize: 0x210 }
  - { offsetInCU: 0x53C7, offset: 0x89459, size: 0x8, addend: 0x0, symName: __ZNSt3__119piecewise_constructE, symObjAddr: 0x1B9A5, symBinAddr: 0x1000681C0, symSize: 0x0 }
  - { offsetInCU: 0x1DB88, offset: 0xA1C1A, size: 0x8, addend: 0x0, symName: __ZNSt3__1lsB8ue170006IcNS_11char_traitsIcEEEERNS_13basic_ostreamIT_T0_EES7_RKNS_9__iom_t10IS4_EE, symObjAddr: 0x3C18, symBinAddr: 0x100015E38, symSize: 0x200 }
  - { offsetInCU: 0x1DC1B, offset: 0xA1CAD, size: 0x8, addend: 0x0, symName: __ZNSt3__17advanceB8ue170006IPN3tmx7Tileset4Tile9Animation5FrameEllvEEvRT_T0_, symObjAddr: 0x722C, symBinAddr: 0x1000181FC, symSize: 0x38 }
  - { offsetInCU: 0x1DCA8, offset: 0xA1D3A, size: 0x8, addend: 0x0, symName: __ZNSt3__17advanceB8ue170006IPN3tmx8PropertyEllvEEvRT_T0_, symObjAddr: 0x8860, symBinAddr: 0x100019258, symSize: 0x38 }
  - { offsetInCU: 0x1E136, offset: 0xA21C8, size: 0x8, addend: 0x0, symName: __ZNSt3__17advanceB8ue170006IPN3tmx6ObjectEllvEEvRT_T0_, symObjAddr: 0xA890, symBinAddr: 0x10001ACE0, symSize: 0x38 }
  - { offsetInCU: 0x1E5C4, offset: 0xA2656, size: 0x8, addend: 0x0, symName: __ZNSt3__17advanceB8ue170006IPN3tmx7Vector2IfEEllvEEvRT_T0_, symObjAddr: 0xD034, symBinAddr: 0x10001CDCC, symSize: 0x38 }
  - { offsetInCU: 0x1E976, offset: 0xA2A08, size: 0x8, addend: 0x0, symName: __ZNSt3__16copy_nB8ue170006IPKcmPcEENS_9enable_ifIXsr37__has_random_access_iterator_categoryIT_EE5valueET1_E4typeES5_T0_S6_, symObjAddr: 0xEFD4, symBinAddr: 0x10001E760, symSize: 0x44 }
  - { offsetInCU: 0x229E7, offset: 0xA6A79, size: 0x8, addend: 0x0, symName: __ZNSt3__1plB8ue170006IcNS_11char_traitsIcEENS_9allocatorIcEEEENS_12basic_stringIT_T0_T1_EEPKS6_OS9_, symObjAddr: 0xEF8, symBinAddr: 0x1000131DC, symSize: 0x44 }
  - { offsetInCU: 0x22A3F, offset: 0xA6AD1, size: 0x8, addend: 0x0, symName: __ZNSt3__17replaceB8ue170006INS_11__wrap_iterIPcEEcEEvT_S4_RKT0_S7_, symObjAddr: 0xF3C, symBinAddr: 0x100013220, symSize: 0x94 }
  - { offsetInCU: 0x22AA4, offset: 0xA6B36, size: 0x8, addend: 0x0, symName: __ZNSt3__1eqB8ue170006IcNS_11char_traitsIcEENS_9allocatorIcEEEEbRKNS_12basic_stringIT_T0_T1_EEPKS6_, symObjAddr: 0x2650, symBinAddr: 0x100014934, symSize: 0xAC }
  - { offsetInCU: 0x22B0B, offset: 0xA6B9D, size: 0x8, addend: 0x0, symName: __ZNSt3__1plB8ue170006IcNS_11char_traitsIcEENS_9allocatorIcEEEENS_12basic_stringIT_T0_T1_EERKS9_PKS6_, symObjAddr: 0x26FC, symBinAddr: 0x1000149E0, symSize: 0x11C }
  - { offsetInCU: 0x22BAC, offset: 0xA6C3E, size: 0x8, addend: 0x0, symName: __ZNSt3__111make_uniqueB8ue170006IN3tmx9TileLayerEJjEEENS_11__unique_ifIT_E15__unique_singleEDpOT0_, symObjAddr: 0x2BEC, symBinAddr: 0x100014ED0, symSize: 0x74 }
  - { offsetInCU: 0x22BEE, offset: 0xA6C80, size: 0x8, addend: 0x0, symName: __ZNSt3__111make_uniqueB8ue170006IN3tmx11ObjectGroupEJEEENS_11__unique_ifIT_E15__unique_singleEDpOT0_, symObjAddr: 0x2D44, symBinAddr: 0x100015000, symSize: 0x64 }
  - { offsetInCU: 0x22C1B, offset: 0xA6CAD, size: 0x8, addend: 0x0, symName: __ZNSt3__111make_uniqueB8ue170006IN3tmx10ImageLayerEJRNS_12basic_stringIcNS_11char_traitsIcEENS_9allocatorIcEEEEEEENS_11__unique_ifIT_E15__unique_singleEDpOT0_, symObjAddr: 0x2E48, symBinAddr: 0x100015104, symSize: 0x6C }
  - { offsetInCU: 0x22C5D, offset: 0xA6CEF, size: 0x8, addend: 0x0, symName: __ZNSt3__111make_uniqueB8ue170006IN3tmx10LayerGroupEJRNS_12basic_stringIcNS_11char_traitsIcEENS_9allocatorIcEEEERNS1_7Vector2IjEEEEENS_11__unique_ifIT_E15__unique_singleEDpOT0_, symObjAddr: 0x2FD8, symBinAddr: 0x100015294, symSize: 0x74 }
  - { offsetInCU: 0x22CB4, offset: 0xA6D46, size: 0x8, addend: 0x0, symName: __ZNSt3__1neB8ue170006IPN3tmx7TilesetEEEbRKNS_11__wrap_iterIT_EES8_, symObjAddr: 0x30D8, symBinAddr: 0x100015394, symSize: 0x34 }
  - { offsetInCU: 0x22CF8, offset: 0xA6D8A, size: 0x8, addend: 0x0, symName: __ZNSt3__1neB8ue170006IPKN3tmx7Tileset4TileEEEbRKNS_11__wrap_iterIT_EESA_, symObjAddr: 0x319C, symBinAddr: 0x100015458, symSize: 0x34 }
  - { offsetInCU: 0x22D3B, offset: 0xA6DCD, size: 0x8, addend: 0x0, symName: __ZNSt3__1lsB8ue170006IcNS_11char_traitsIcEENS_9allocatorIcEEEERNS_13basic_ostreamIT_T0_EES9_RKNS_12basic_stringIS6_S7_T1_EE, symObjAddr: 0x3570, symBinAddr: 0x100015814, symSize: 0x4C }
  - { offsetInCU: 0x235FC, offset: 0xA768E, size: 0x8, addend: 0x0, symName: __ZNSt3__18put_timeB8ue170006IcEENS_9__iom_t10IT_EEPK2tmPKS2_, symObjAddr: 0x3E18, symBinAddr: 0x100016038, symSize: 0x38 }
  - { offsetInCU: 0x2369F, offset: 0xA7731, size: 0x8, addend: 0x0, symName: __ZNSt3__19use_facetB8ue170006INS_8time_putIcNS_19ostreambuf_iteratorIcNS_11char_traitsIcEEEEEEEERKT_RKNS_6localeE, symObjAddr: 0x5FAC, symBinAddr: 0x1000171F0, symSize: 0x2C }
  - { offsetInCU: 0x24059, offset: 0xA80EB, size: 0x8, addend: 0x0, symName: __ZNSt3__13hexB8ue170006ERNS_8ios_baseE, symObjAddr: 0x6368, symBinAddr: 0x100017530, symSize: 0x30 }
  - { offsetInCU: 0x24093, offset: 0xA8125, size: 0x8, addend: 0x0, symName: __ZNSt3__1eqB8ue170006IPN3tmx7TilesetEEEbRKNS_11__wrap_iterIT_EES8_, symObjAddr: 0x6988, symBinAddr: 0x100017A20, symSize: 0x48 }
  - { offsetInCU: 0x240D7, offset: 0xA8169, size: 0x8, addend: 0x0, symName: __ZNSt3__1eqB8ue170006IPKN3tmx7Tileset4TileEEEbRKNS_11__wrap_iterIT_EESA_, symObjAddr: 0x69E8, symBinAddr: 0x100017A80, symSize: 0x48 }
  - { offsetInCU: 0x2411B, offset: 0xA81AD, size: 0x8, addend: 0x0, symName: __ZNSt3__18distanceB8ue170006IPN3tmx7Tileset4Tile9Animation5FrameEEENS_15iterator_traitsIT_E15difference_typeES8_S8_, symObjAddr: 0x6DB4, symBinAddr: 0x100017E4C, symSize: 0x2C }
  - { offsetInCU: 0x2415F, offset: 0xA81F1, size: 0x8, addend: 0x0, symName: __ZNSt3__14nextB8ue170006IPN3tmx7Tileset4Tile9Animation5FrameEEENS_9enable_ifIXsr29__has_input_iterator_categoryIT_EE5valueES8_E4typeES8_NS_15iterator_traitsIS8_E15difference_typeE, symObjAddr: 0x6E48, symBinAddr: 0x100017E78, symSize: 0x34 }
  - { offsetInCU: 0x241A3, offset: 0xA8235, size: 0x8, addend: 0x0, symName: __ZNSt3__14copyB8ue170006IPN3tmx7Tileset4Tile9Animation5FrameES6_EET0_T_S8_S7_, symObjAddr: 0x6E7C, symBinAddr: 0x100017EAC, symSize: 0x40 }
  - { offsetInCU: 0x241FE, offset: 0xA8290, size: 0x8, addend: 0x0, symName: __ZNSt3__16__copyB8ue170006INS_17_ClassicAlgPolicyEPN3tmx7Tileset4Tile9Animation5FrameES7_S7_EENS_4pairIT0_T2_EES9_T1_SA_, symObjAddr: 0x6F48, symBinAddr: 0x100017F78, symSize: 0x44 }
  - { offsetInCU: 0x2426B, offset: 0xA82FD, size: 0x8, addend: 0x0, symName: __ZNSt3__121__convert_to_integralB8ue170006El, symObjAddr: 0x7264, symBinAddr: 0x100018234, symSize: 0x14 }
  - { offsetInCU: 0x24297, offset: 0xA8329, size: 0x8, addend: 0x0, symName: __ZNSt3__19__advanceB8ue170006IPN3tmx7Tileset4Tile9Animation5FrameEEEvRT_NS_15iterator_traitsIS7_E15difference_typeENS_26random_access_iterator_tagE, symObjAddr: 0x7278, symBinAddr: 0x100018248, symSize: 0x28 }
  - { offsetInCU: 0x242E1, offset: 0xA8373, size: 0x8, addend: 0x0, symName: __ZNSt3__130__uninitialized_allocator_copyB8ue170006INS_9allocatorIN3tmx7Tileset4Tile9Animation5FrameEEEPS6_S8_S8_EET2_RT_T0_T1_S9_, symObjAddr: 0x72DC, symBinAddr: 0x1000182AC, symSize: 0x80 }
  - { offsetInCU: 0x2437F, offset: 0xA8411, size: 0x8, addend: 0x0, symName: __ZNSt3__114__unwrap_rangeB8ue170006IPN3tmx7Tileset4Tile9Animation5FrameES6_EENS_4pairIT0_S8_EET_SA_, symObjAddr: 0x73F4, symBinAddr: 0x10001839C, symSize: 0x60 }
  - { offsetInCU: 0x243CB, offset: 0xA845D, size: 0x8, addend: 0x0, symName: __ZNSt3__135__uninitialized_allocator_copy_implB8ue170006INS_9allocatorIN3tmx7Tileset4Tile9Animation5FrameEEES6_S6_S6_LPv0EEEPT2_RT_PT0_SE_SA_, symObjAddr: 0x7454, symBinAddr: 0x1000183FC, symSize: 0x38 }
  - { offsetInCU: 0x2444F, offset: 0xA84E1, size: 0x8, addend: 0x0, symName: __ZNSt3__113__unwrap_iterB8ue170006IPN3tmx7Tileset4Tile9Animation5FrameENS_18__unwrap_iter_implIS6_Lb1EEELi0EEEDTclsrT0_8__unwrapclsr3stdE7declvalIT_EEEESA_, symObjAddr: 0x748C, symBinAddr: 0x100018434, symSize: 0x24 }
  - { offsetInCU: 0x24495, offset: 0xA8527, size: 0x8, addend: 0x0, symName: __ZNSt3__113__rewrap_iterB8ue170006IPN3tmx7Tileset4Tile9Animation5FrameES6_NS_18__unwrap_iter_implIS6_Lb1EEEEET_S9_T0_, symObjAddr: 0x74B0, symBinAddr: 0x100018458, symSize: 0x3C }
  - { offsetInCU: 0x244EA, offset: 0xA857C, size: 0x8, addend: 0x0, symName: __ZNSt3__19make_pairB8ue170006IPN3tmx7Tileset4Tile9Animation5FrameES6_EENS_4pairINS_18__unwrap_ref_decayIT_E4typeENS8_IT0_E4typeEEEOS9_OSC_, symObjAddr: 0x74EC, symBinAddr: 0x100018494, symSize: 0x38 }
  - { offsetInCU: 0x24692, offset: 0xA8724, size: 0x8, addend: 0x0, symName: __ZNSt3__123__dispatch_copy_or_moveB8ue170006INS_17_ClassicAlgPolicyENS_11__copy_loopIS1_EENS_14__copy_trivialEPN3tmx7Tileset4Tile9Animation5FrameESA_SA_EENS_4pairIT2_T4_EESC_T3_SD_, symObjAddr: 0x7674, symBinAddr: 0x1000185D0, symSize: 0x44 }
  - { offsetInCU: 0x24711, offset: 0xA87A3, size: 0x8, addend: 0x0, symName: __ZNSt3__121__unwrap_and_dispatchB8ue170006INS_10__overloadINS_11__copy_loopINS_17_ClassicAlgPolicyEEENS_14__copy_trivialEEEPN3tmx7Tileset4Tile9Animation5FrameESC_SC_Li0EEENS_4pairIT0_T2_EESE_T1_SF_, symObjAddr: 0x76B8, symBinAddr: 0x100018614, symSize: 0xB4 }
  - { offsetInCU: 0x24864, offset: 0xA88F6, size: 0x8, addend: 0x0, symName: __ZNSt3__114__rewrap_rangeB8ue170006IPN3tmx7Tileset4Tile9Animation5FrameES6_EET_S7_T0_, symObjAddr: 0x77B4, symBinAddr: 0x100018710, symSize: 0x2C }
  - { offsetInCU: 0x248B1, offset: 0xA8943, size: 0x8, addend: 0x0, symName: __ZNSt3__119__copy_trivial_implB8ue170006IN3tmx7Tileset4Tile9Animation5FrameES5_EENS_4pairIPT_PT0_EES8_S8_SA_, symObjAddr: 0x77E0, symBinAddr: 0x10001873C, symSize: 0x80 }
  - { offsetInCU: 0x2491B, offset: 0xA89AD, size: 0x8, addend: 0x0, symName: __ZNSt3__119__constexpr_memmoveB8ue170006IN3tmx7Tileset4Tile9Animation5FrameES5_Li0EEEPT_S7_PT0_NS_15__element_countE, symObjAddr: 0x7860, symBinAddr: 0x1000187BC, symSize: 0x64 }
  - { offsetInCU: 0x2498B, offset: 0xA8A1D, size: 0x8, addend: 0x0, symName: __ZNSt3__19make_pairB8ue170006IRPN3tmx7Tileset4Tile9Animation5FrameES6_EENS_4pairINS_18__unwrap_ref_decayIT_E4typeENS9_IT0_E4typeEEEOSA_OSD_, symObjAddr: 0x78C4, symBinAddr: 0x100018820, symSize: 0x38 }
  - { offsetInCU: 0x249DB, offset: 0xA8A6D, size: 0x8, addend: 0x0, symName: __ZNSt3__119__allocate_at_leastB8ue170006INS_9allocatorIN3tmx7Tileset4Tile9Animation5FrameEEEEENS_19__allocation_resultINS_16allocator_traitsIT_E7pointerEEERSA_m, symObjAddr: 0x7DA8, symBinAddr: 0x100018A9C, symSize: 0x40 }
  - { offsetInCU: 0x24A1F, offset: 0xA8AB1, size: 0x8, addend: 0x0, symName: __ZNSt3__110__distanceB8ue170006IPN3tmx7Tileset4Tile9Animation5FrameEEENS_15iterator_traitsIT_E15difference_typeES8_S8_NS_26random_access_iterator_tagE, symObjAddr: 0x81B8, symBinAddr: 0x100018C78, symSize: 0x28 }
  - { offsetInCU: 0x24A6D, offset: 0xA8AFF, size: 0x8, addend: 0x0, symName: __ZNSt3__18distanceB8ue170006IPN3tmx8PropertyEEENS_15iterator_traitsIT_E15difference_typeES5_S5_, symObjAddr: 0x83E0, symBinAddr: 0x100018EA0, symSize: 0x2C }
  - { offsetInCU: 0x24AB1, offset: 0xA8B43, size: 0x8, addend: 0x0, symName: __ZNSt3__14nextB8ue170006IPN3tmx8PropertyEEENS_9enable_ifIXsr29__has_input_iterator_categoryIT_EE5valueES5_E4typeES5_NS_15iterator_traitsIS5_E15difference_typeE, symObjAddr: 0x8474, symBinAddr: 0x100018ECC, symSize: 0x34 }
  - { offsetInCU: 0x24AF5, offset: 0xA8B87, size: 0x8, addend: 0x0, symName: __ZNSt3__14copyB8ue170006IPN3tmx8PropertyES3_EET0_T_S5_S4_, symObjAddr: 0x84A8, symBinAddr: 0x100018F00, symSize: 0x40 }
  - { offsetInCU: 0x24B50, offset: 0xA8BE2, size: 0x8, addend: 0x0, symName: __ZNSt3__16__copyB8ue170006INS_17_ClassicAlgPolicyEPN3tmx8PropertyES4_S4_EENS_4pairIT0_T2_EES6_T1_S7_, symObjAddr: 0x8574, symBinAddr: 0x100018FCC, symSize: 0x44 }
  - { offsetInCU: 0x24BBD, offset: 0xA8C4F, size: 0x8, addend: 0x0, symName: __ZNSt3__19__advanceB8ue170006IPN3tmx8PropertyEEEvRT_NS_15iterator_traitsIS4_E15difference_typeENS_26random_access_iterator_tagE, symObjAddr: 0x8898, symBinAddr: 0x100019290, symSize: 0x30 }
  - { offsetInCU: 0x24C07, offset: 0xA8C99, size: 0x8, addend: 0x0, symName: __ZNSt3__130__uninitialized_allocator_copyB8ue170006INS_9allocatorIN3tmx8PropertyEEEPS3_S5_S5_EET2_RT_T0_T1_S6_, symObjAddr: 0x8904, symBinAddr: 0x1000192FC, symSize: 0x80 }
  - { offsetInCU: 0x24CA5, offset: 0xA8D37, size: 0x8, addend: 0x0, symName: __ZNSt3__114__unwrap_rangeB8ue170006IPN3tmx8PropertyES3_EENS_4pairIT0_S5_EET_S7_, symObjAddr: 0x8A24, symBinAddr: 0x1000193F4, symSize: 0x60 }
  - { offsetInCU: 0x24CF1, offset: 0xA8D83, size: 0x8, addend: 0x0, symName: __ZNSt3__135__uninitialized_allocator_copy_implB8ue170006INS_9allocatorIN3tmx8PropertyEEEPS3_S5_S5_EET2_RT_T0_T1_S6_, symObjAddr: 0x8A84, symBinAddr: 0x100019454, symSize: 0xF4 }
  - { offsetInCU: 0x24D90, offset: 0xA8E22, size: 0x8, addend: 0x0, symName: __ZNSt3__113__unwrap_iterB8ue170006IPN3tmx8PropertyENS_18__unwrap_iter_implIS3_Lb1EEELi0EEEDTclsrT0_8__unwrapclsr3stdE7declvalIT_EEEES7_, symObjAddr: 0x8B78, symBinAddr: 0x100019548, symSize: 0x24 }
  - { offsetInCU: 0x24DD6, offset: 0xA8E68, size: 0x8, addend: 0x0, symName: __ZNSt3__113__rewrap_iterB8ue170006IPN3tmx8PropertyES3_NS_18__unwrap_iter_implIS3_Lb1EEEEET_S6_T0_, symObjAddr: 0x8B9C, symBinAddr: 0x10001956C, symSize: 0x3C }
  - { offsetInCU: 0x24E2B, offset: 0xA8EBD, size: 0x8, addend: 0x0, symName: __ZNSt3__19make_pairB8ue170006IPN3tmx8PropertyES3_EENS_4pairINS_18__unwrap_ref_decayIT_E4typeENS5_IT0_E4typeEEEOS6_OS9_, symObjAddr: 0x8BD8, symBinAddr: 0x1000195A8, symSize: 0x38 }
  - { offsetInCU: 0x24F50, offset: 0xA8FE2, size: 0x8, addend: 0x0, symName: __ZNSt3__122__make_exception_guardB8ue170006INS_29_AllocatorDestroyRangeReverseINS_9allocatorIN3tmx8PropertyEEEPS4_EEEENS_28__exception_guard_exceptionsIT_EES9_, symObjAddr: 0x8C80, symBinAddr: 0x100019650, symSize: 0x4C }
  - { offsetInCU: 0x24F87, offset: 0xA9019, size: 0x8, addend: 0x0, symName: __ZNSt3__122__make_exception_guardB8ue170006INS_6vectorIN3tmx8PropertyENS_9allocatorIS3_EEE16__destroy_vectorEEENS_28__exception_guard_exceptionsIT_EES9_, symObjAddr: 0x9254, symBinAddr: 0x100019C10, symSize: 0x40 }
  - { offsetInCU: 0x24FBD, offset: 0xA904F, size: 0x8, addend: 0x0, symName: __ZNSt3__119__allocator_destroyB8ue170006INS_9allocatorIN3tmx8PropertyEEENS_16reverse_iteratorIPS3_EES7_EEvRT_T0_T1_, symObjAddr: 0x98A8, symBinAddr: 0x100019DF8, symSize: 0x70 }
  - { offsetInCU: 0x25020, offset: 0xA90B2, size: 0x8, addend: 0x0, symName: __ZNSt3__1neB8ue170006IPN3tmx8PropertyES3_EEbRKNS_16reverse_iteratorIT_EERKNS4_IT0_EE, symObjAddr: 0x994C, symBinAddr: 0x100019E9C, symSize: 0x48 }
  - { offsetInCU: 0x2506D, offset: 0xA90FF, size: 0x8, addend: 0x0, symName: __ZNSt3__112__to_addressB8ue170006INS_16reverse_iteratorIPN3tmx8PropertyEEEvEEu7__decayIDTclsr19__to_address_helperIT_EE6__callclsr3stdE7declvalIRKS6_EEEEES8_, symObjAddr: 0x9994, symBinAddr: 0x100019EE4, symSize: 0x24 }
  - { offsetInCU: 0x25121, offset: 0xA91B3, size: 0x8, addend: 0x0, symName: __ZNSt3__123__dispatch_copy_or_moveB8ue170006INS_17_ClassicAlgPolicyENS_11__copy_loopIS1_EENS_14__copy_trivialEPN3tmx8PropertyES7_S7_EENS_4pairIT2_T4_EES9_T3_SA_, symObjAddr: 0x9B70, symBinAddr: 0x10001A088, symSize: 0x44 }
  - { offsetInCU: 0x251A0, offset: 0xA9232, size: 0x8, addend: 0x0, symName: __ZNSt3__121__unwrap_and_dispatchB8ue170006INS_10__overloadINS_11__copy_loopINS_17_ClassicAlgPolicyEEENS_14__copy_trivialEEEPN3tmx8PropertyES9_S9_Li0EEENS_4pairIT0_T2_EESB_T1_SC_, symObjAddr: 0x9BB4, symBinAddr: 0x10001A0CC, symSize: 0xB4 }
  - { offsetInCU: 0x252CC, offset: 0xA935E, size: 0x8, addend: 0x0, symName: __ZNSt3__114__rewrap_rangeB8ue170006IPN3tmx8PropertyES3_EET_S4_T0_, symObjAddr: 0x9CF0, symBinAddr: 0x10001A208, symSize: 0x2C }
  - { offsetInCU: 0x25319, offset: 0xA93AB, size: 0x8, addend: 0x0, symName: __ZNSt3__119__allocate_at_leastB8ue170006INS_9allocatorIN3tmx8PropertyEEEEENS_19__allocation_resultINS_16allocator_traitsIT_E7pointerEEERS7_m, symObjAddr: 0x9F64, symBinAddr: 0x10001A47C, symSize: 0x40 }
  - { offsetInCU: 0x2535D, offset: 0xA93EF, size: 0x8, addend: 0x0, symName: __ZNSt3__110__distanceB8ue170006IPN3tmx8PropertyEEENS_15iterator_traitsIT_E15difference_typeES5_S5_NS_26random_access_iterator_tagE, symObjAddr: 0xA104, symBinAddr: 0x10001A61C, symSize: 0x28 }
  - { offsetInCU: 0x253AB, offset: 0xA943D, size: 0x8, addend: 0x0, symName: __ZNSt3__18distanceB8ue170006IPN3tmx6ObjectEEENS_15iterator_traitsIT_E15difference_typeES5_S5_, symObjAddr: 0xA410, symBinAddr: 0x10001A928, symSize: 0x2C }
  - { offsetInCU: 0x253EF, offset: 0xA9481, size: 0x8, addend: 0x0, symName: __ZNSt3__14nextB8ue170006IPN3tmx6ObjectEEENS_9enable_ifIXsr29__has_input_iterator_categoryIT_EE5valueES5_E4typeES5_NS_15iterator_traitsIS5_E15difference_typeE, symObjAddr: 0xA4A4, symBinAddr: 0x10001A954, symSize: 0x34 }
  - { offsetInCU: 0x25433, offset: 0xA94C5, size: 0x8, addend: 0x0, symName: __ZNSt3__14copyB8ue170006IPN3tmx6ObjectES3_EET0_T_S5_S4_, symObjAddr: 0xA4D8, symBinAddr: 0x10001A988, symSize: 0x40 }
  - { offsetInCU: 0x2548E, offset: 0xA9520, size: 0x8, addend: 0x0, symName: __ZNSt3__16__copyB8ue170006INS_17_ClassicAlgPolicyEPN3tmx6ObjectES4_S4_EENS_4pairIT0_T2_EES6_T1_S7_, symObjAddr: 0xA5A4, symBinAddr: 0x10001AA54, symSize: 0x44 }
  - { offsetInCU: 0x254FB, offset: 0xA958D, size: 0x8, addend: 0x0, symName: __ZNSt3__19__advanceB8ue170006IPN3tmx6ObjectEEEvRT_NS_15iterator_traitsIS4_E15difference_typeENS_26random_access_iterator_tagE, symObjAddr: 0xA8C8, symBinAddr: 0x10001AD18, symSize: 0x30 }
  - { offsetInCU: 0x25545, offset: 0xA95D7, size: 0x8, addend: 0x0, symName: __ZNSt3__130__uninitialized_allocator_copyB8ue170006INS_9allocatorIN3tmx6ObjectEEEPS3_S5_S5_EET2_RT_T0_T1_S6_, symObjAddr: 0xA934, symBinAddr: 0x10001AD84, symSize: 0x80 }
  - { offsetInCU: 0x255E3, offset: 0xA9675, size: 0x8, addend: 0x0, symName: __ZNSt3__114__unwrap_rangeB8ue170006IPN3tmx6ObjectES3_EENS_4pairIT0_S5_EET_S7_, symObjAddr: 0xAA54, symBinAddr: 0x10001AE7C, symSize: 0x60 }
  - { offsetInCU: 0x2562F, offset: 0xA96C1, size: 0x8, addend: 0x0, symName: __ZNSt3__135__uninitialized_allocator_copy_implB8ue170006INS_9allocatorIN3tmx6ObjectEEEPS3_S5_S5_EET2_RT_T0_T1_S6_, symObjAddr: 0xAAB4, symBinAddr: 0x10001AEDC, symSize: 0xF4 }
  - { offsetInCU: 0x256CE, offset: 0xA9760, size: 0x8, addend: 0x0, symName: __ZNSt3__113__unwrap_iterB8ue170006IPN3tmx6ObjectENS_18__unwrap_iter_implIS3_Lb1EEELi0EEEDTclsrT0_8__unwrapclsr3stdE7declvalIT_EEEES7_, symObjAddr: 0xABA8, symBinAddr: 0x10001AFD0, symSize: 0x24 }
  - { offsetInCU: 0x25714, offset: 0xA97A6, size: 0x8, addend: 0x0, symName: __ZNSt3__113__rewrap_iterB8ue170006IPN3tmx6ObjectES3_NS_18__unwrap_iter_implIS3_Lb1EEEEET_S6_T0_, symObjAddr: 0xABCC, symBinAddr: 0x10001AFF4, symSize: 0x3C }
  - { offsetInCU: 0x25769, offset: 0xA97FB, size: 0x8, addend: 0x0, symName: __ZNSt3__19make_pairB8ue170006IPN3tmx6ObjectES3_EENS_4pairINS_18__unwrap_ref_decayIT_E4typeENS5_IT0_E4typeEEEOS6_OS9_, symObjAddr: 0xAC08, symBinAddr: 0x10001B030, symSize: 0x38 }
  - { offsetInCU: 0x2588E, offset: 0xA9920, size: 0x8, addend: 0x0, symName: __ZNSt3__122__make_exception_guardB8ue170006INS_29_AllocatorDestroyRangeReverseINS_9allocatorIN3tmx6ObjectEEEPS4_EEEENS_28__exception_guard_exceptionsIT_EES9_, symObjAddr: 0xACB0, symBinAddr: 0x10001B0D8, symSize: 0x4C }
  - { offsetInCU: 0x258C5, offset: 0xA9957, size: 0x8, addend: 0x0, symName: __ZNSt3__122__make_exception_guardB8ue170006INS_6vectorIN3tmx7Vector2IfEENS_9allocatorIS4_EEE16__destroy_vectorEEENS_28__exception_guard_exceptionsIT_EESA_, symObjAddr: 0xB3A8, symBinAddr: 0x10001B73C, symSize: 0x40 }
  - { offsetInCU: 0x258FB, offset: 0xA998D, size: 0x8, addend: 0x0, symName: __ZNSt3__119__allocate_at_leastB8ue170006INS_9allocatorIN3tmx7Vector2IfEEEEEENS_19__allocation_resultINS_16allocator_traitsIT_E7pointerEEERS8_m, symObjAddr: 0xB690, symBinAddr: 0x10001B9D0, symSize: 0x40 }
  - { offsetInCU: 0x2593E, offset: 0xA99D0, size: 0x8, addend: 0x0, symName: __ZNSt3__130__uninitialized_allocator_copyB8ue170006INS_9allocatorIN3tmx7Vector2IfEEEEPS4_S6_S6_EET2_RT_T0_T1_S7_, symObjAddr: 0xBA04, symBinAddr: 0x10001BBE8, symSize: 0x80 }
  - { offsetInCU: 0x259DC, offset: 0xA9A6E, size: 0x8, addend: 0x0, symName: __ZNSt3__114__unwrap_rangeB8ue170006IPN3tmx7Vector2IfEES4_EENS_4pairIT0_S6_EET_S8_, symObjAddr: 0xBAF4, symBinAddr: 0x10001BCD8, symSize: 0x60 }
  - { offsetInCU: 0x25A28, offset: 0xA9ABA, size: 0x8, addend: 0x0, symName: __ZNSt3__135__uninitialized_allocator_copy_implB8ue170006INS_9allocatorIN3tmx7Vector2IfEEEES4_S4_S4_LPv0EEEPT2_RT_PT0_SC_S8_, symObjAddr: 0xBB54, symBinAddr: 0x10001BD38, symSize: 0x38 }
  - { offsetInCU: 0x25AAC, offset: 0xA9B3E, size: 0x8, addend: 0x0, symName: __ZNSt3__113__unwrap_iterB8ue170006IPN3tmx7Vector2IfEENS_18__unwrap_iter_implIS4_Lb1EEELi0EEEDTclsrT0_8__unwrapclsr3stdE7declvalIT_EEEES8_, symObjAddr: 0xBB8C, symBinAddr: 0x10001BD70, symSize: 0x24 }
  - { offsetInCU: 0x25AF2, offset: 0xA9B84, size: 0x8, addend: 0x0, symName: __ZNSt3__113__rewrap_iterB8ue170006IPN3tmx7Vector2IfEES4_NS_18__unwrap_iter_implIS4_Lb1EEEEET_S7_T0_, symObjAddr: 0xBBB0, symBinAddr: 0x10001BD94, symSize: 0x3C }
  - { offsetInCU: 0x25B47, offset: 0xA9BD9, size: 0x8, addend: 0x0, symName: __ZNSt3__19make_pairB8ue170006IPN3tmx7Vector2IfEES4_EENS_4pairINS_18__unwrap_ref_decayIT_E4typeENS6_IT0_E4typeEEEOS7_OSA_, symObjAddr: 0xBBEC, symBinAddr: 0x10001BDD0, symSize: 0x38 }
  - { offsetInCU: 0x25C9C, offset: 0xA9D2E, size: 0x8, addend: 0x0, symName: __ZNSt3__14copyB8ue170006IPN3tmx7Vector2IfEES4_EET0_T_S6_S5_, symObjAddr: 0xBC94, symBinAddr: 0x10001BE78, symSize: 0x40 }
  - { offsetInCU: 0x25CF7, offset: 0xA9D89, size: 0x8, addend: 0x0, symName: __ZNSt3__16__copyB8ue170006INS_17_ClassicAlgPolicyEPN3tmx7Vector2IfEES5_S5_EENS_4pairIT0_T2_EES7_T1_S8_, symObjAddr: 0xBCD4, symBinAddr: 0x10001BEB8, symSize: 0x44 }
  - { offsetInCU: 0x25D64, offset: 0xA9DF6, size: 0x8, addend: 0x0, symName: __ZNSt3__123__dispatch_copy_or_moveB8ue170006INS_17_ClassicAlgPolicyENS_11__copy_loopIS1_EENS_14__copy_trivialEPN3tmx7Vector2IfEES8_S8_EENS_4pairIT2_T4_EESA_T3_SB_, symObjAddr: 0xBD18, symBinAddr: 0x10001BEFC, symSize: 0x44 }
  - { offsetInCU: 0x25DE3, offset: 0xA9E75, size: 0x8, addend: 0x0, symName: __ZNSt3__121__unwrap_and_dispatchB8ue170006INS_10__overloadINS_11__copy_loopINS_17_ClassicAlgPolicyEEENS_14__copy_trivialEEEPN3tmx7Vector2IfEESA_SA_Li0EEENS_4pairIT0_T2_EESC_T1_SD_, symObjAddr: 0xBD5C, symBinAddr: 0x10001BF40, symSize: 0xB4 }
  - { offsetInCU: 0x25E75, offset: 0xA9F07, size: 0x8, addend: 0x0, symName: __ZNSt3__114__rewrap_rangeB8ue170006IPN3tmx7Vector2IfEES4_EET_S5_T0_, symObjAddr: 0xBE58, symBinAddr: 0x10001C03C, symSize: 0x2C }
  - { offsetInCU: 0x25EC2, offset: 0xA9F54, size: 0x8, addend: 0x0, symName: __ZNSt3__119__copy_trivial_implB8ue170006IN3tmx7Vector2IfEES3_EENS_4pairIPT_PT0_EES6_S6_S8_, symObjAddr: 0xBE84, symBinAddr: 0x10001C068, symSize: 0x80 }
  - { offsetInCU: 0x25F2C, offset: 0xA9FBE, size: 0x8, addend: 0x0, symName: __ZNSt3__119__constexpr_memmoveB8ue170006IN3tmx7Vector2IfEES3_Li0EEEPT_S5_PT0_NS_15__element_countE, symObjAddr: 0xBF04, symBinAddr: 0x10001C0E8, symSize: 0x64 }
  - { offsetInCU: 0x25F9C, offset: 0xAA02E, size: 0x8, addend: 0x0, symName: __ZNSt3__19make_pairB8ue170006IRPN3tmx7Vector2IfEES4_EENS_4pairINS_18__unwrap_ref_decayIT_E4typeENS7_IT0_E4typeEEEOS8_OSB_, symObjAddr: 0xBF68, symBinAddr: 0x10001C14C, symSize: 0x38 }
  - { offsetInCU: 0x2603F, offset: 0xAA0D1, size: 0x8, addend: 0x0, symName: __ZNSt3__119__allocator_destroyB8ue170006INS_9allocatorIN3tmx6ObjectEEENS_16reverse_iteratorIPS3_EES7_EEvRT_T0_T1_, symObjAddr: 0xC558, symBinAddr: 0x10001C414, symSize: 0x70 }
  - { offsetInCU: 0x260A2, offset: 0xAA134, size: 0x8, addend: 0x0, symName: __ZNSt3__1neB8ue170006IPN3tmx6ObjectES3_EEbRKNS_16reverse_iteratorIT_EERKNS4_IT0_EE, symObjAddr: 0xC5FC, symBinAddr: 0x10001C4B8, symSize: 0x48 }
  - { offsetInCU: 0x260EF, offset: 0xAA181, size: 0x8, addend: 0x0, symName: __ZNSt3__112__to_addressB8ue170006INS_16reverse_iteratorIPN3tmx6ObjectEEEvEEu7__decayIDTclsr19__to_address_helperIT_EE6__callclsr3stdE7declvalIRKS6_EEEEES8_, symObjAddr: 0xC670, symBinAddr: 0x10001C500, symSize: 0x24 }
  - { offsetInCU: 0x261A3, offset: 0xAA235, size: 0x8, addend: 0x0, symName: __ZNSt3__123__dispatch_copy_or_moveB8ue170006INS_17_ClassicAlgPolicyENS_11__copy_loopIS1_EENS_14__copy_trivialEPN3tmx6ObjectES7_S7_EENS_4pairIT2_T4_EES9_T3_SA_, symObjAddr: 0xC90C, symBinAddr: 0x10001C6A4, symSize: 0x44 }
  - { offsetInCU: 0x26222, offset: 0xAA2B4, size: 0x8, addend: 0x0, symName: __ZNSt3__121__unwrap_and_dispatchB8ue170006INS_10__overloadINS_11__copy_loopINS_17_ClassicAlgPolicyEEENS_14__copy_trivialEEEPN3tmx6ObjectES9_S9_Li0EEENS_4pairIT0_T2_EESB_T1_SC_, symObjAddr: 0xC950, symBinAddr: 0x10001C6E8, symSize: 0xB4 }
  - { offsetInCU: 0x262B4, offset: 0xAA346, size: 0x8, addend: 0x0, symName: __ZNSt3__114__rewrap_rangeB8ue170006IPN3tmx6ObjectES3_EET_S4_T0_, symObjAddr: 0xCA8C, symBinAddr: 0x10001C824, symSize: 0x2C }
  - { offsetInCU: 0x26301, offset: 0xAA393, size: 0x8, addend: 0x0, symName: __ZNSt3__18distanceB8ue170006IPN3tmx7Vector2IfEEEENS_15iterator_traitsIT_E15difference_typeES6_S6_, symObjAddr: 0xCE40, symBinAddr: 0x10001CBD8, symSize: 0x2C }
  - { offsetInCU: 0x26345, offset: 0xAA3D7, size: 0x8, addend: 0x0, symName: __ZNSt3__14nextB8ue170006IPN3tmx7Vector2IfEEEENS_9enable_ifIXsr29__has_input_iterator_categoryIT_EE5valueES6_E4typeES6_NS_15iterator_traitsIS6_E15difference_typeE, symObjAddr: 0xCE6C, symBinAddr: 0x10001CC04, symSize: 0x34 }
  - { offsetInCU: 0x26389, offset: 0xAA41B, size: 0x8, addend: 0x0, symName: __ZNSt3__19__advanceB8ue170006IPN3tmx7Vector2IfEEEEvRT_NS_15iterator_traitsIS5_E15difference_typeENS_26random_access_iterator_tagE, symObjAddr: 0xD06C, symBinAddr: 0x10001CE04, symSize: 0x28 }
  - { offsetInCU: 0x263D4, offset: 0xAA466, size: 0x8, addend: 0x0, symName: __ZNSt3__110__distanceB8ue170006IPN3tmx7Vector2IfEEEENS_15iterator_traitsIT_E15difference_typeES6_S6_NS_26random_access_iterator_tagE, symObjAddr: 0xD18C, symBinAddr: 0x10001CF24, symSize: 0x28 }
  - { offsetInCU: 0x26422, offset: 0xAA4B4, size: 0x8, addend: 0x0, symName: __ZNSt3__119__allocate_at_leastB8ue170006INS_9allocatorIN3tmx6ObjectEEEEENS_19__allocation_resultINS_16allocator_traitsIT_E7pointerEEERS7_m, symObjAddr: 0xD5EC, symBinAddr: 0x10001D13C, symSize: 0x40 }
  - { offsetInCU: 0x26466, offset: 0xAA4F8, size: 0x8, addend: 0x0, symName: __ZNSt3__110__distanceB8ue170006IPN3tmx6ObjectEEENS_15iterator_traitsIT_E15difference_typeES5_S5_NS_26random_access_iterator_tagE, symObjAddr: 0xD7EC, symBinAddr: 0x10001D33C, symSize: 0x28 }
  - { offsetInCU: 0x264B3, offset: 0xAA545, size: 0x8, addend: 0x0, symName: __ZNSt3__142__uninitialized_allocator_move_if_noexceptB8ue170006INS_9allocatorIN3tmx8PropertyEEENS_16reverse_iteratorIPS3_EES7_S7_EET2_RT_T0_T1_S8_, symObjAddr: 0xDF58, symBinAddr: 0x10001DA64, symSize: 0x11C }
  - { offsetInCU: 0x26554, offset: 0xAA5E6, size: 0x8, addend: 0x0, symName: __ZNSt3__14swapB8ue170006IPN3tmx8PropertyEEENS_9enable_ifIXaasr21is_move_constructibleIT_EE5valuesr18is_move_assignableIS5_EE5valueEvE4typeERS5_S8_, symObjAddr: 0xE074, symBinAddr: 0x10001DB80, symSize: 0x3C }
  - { offsetInCU: 0x265A6, offset: 0xAA638, size: 0x8, addend: 0x0, symName: __ZNSt3__122__make_exception_guardB8ue170006INS_29_AllocatorDestroyRangeReverseINS_9allocatorIN3tmx8PropertyEEENS_16reverse_iteratorIPS4_EEEEEENS_28__exception_guard_exceptionsIT_EESB_, symObjAddr: 0xE0B0, symBinAddr: 0x10001DBBC, symSize: 0x4C }
  - { offsetInCU: 0x265DD, offset: 0xAA66F, size: 0x8, addend: 0x0, symName: __ZNSt3__119__allocator_destroyB8ue170006INS_9allocatorIN3tmx8PropertyEEENS_16reverse_iteratorINS5_IPS3_EEEES8_EEvRT_T0_T1_, symObjAddr: 0xE5D0, symBinAddr: 0x10001E0DC, symSize: 0x70 }
  - { offsetInCU: 0x26642, offset: 0xAA6D4, size: 0x8, addend: 0x0, symName: __ZNSt3__1neB8ue170006INS_16reverse_iteratorIPN3tmx8PropertyEEES5_EEbRKNS1_IT_EERKNS1_IT0_EE, symObjAddr: 0xE67C, symBinAddr: 0x10001E188, symSize: 0x60 }
  - { offsetInCU: 0x2668F, offset: 0xAA721, size: 0x8, addend: 0x0, symName: __ZNSt3__112__to_addressB8ue170006INS_16reverse_iteratorINS1_IPN3tmx8PropertyEEEEEvEEu7__decayIDTclsr19__to_address_helperIT_EE6__callclsr3stdE7declvalIRKS7_EEEEES9_, symObjAddr: 0xE6DC, symBinAddr: 0x10001E1E8, symSize: 0x24 }
  - { offsetInCU: 0x266F0, offset: 0xAA782, size: 0x8, addend: 0x0, symName: __ZNSt3__14copyB8ue170006IPKcPcEET0_T_S5_S4_, symObjAddr: 0xF018, symBinAddr: 0x10001E7A4, symSize: 0x40 }
  - { offsetInCU: 0x2674B, offset: 0xAA7DD, size: 0x8, addend: 0x0, symName: __ZNSt3__16__copyB8ue170006INS_17_ClassicAlgPolicyEPKcS3_PcEENS_4pairIT0_T2_EES6_T1_S7_, symObjAddr: 0xF058, symBinAddr: 0x10001E7E4, symSize: 0x44 }
  - { offsetInCU: 0x267B8, offset: 0xAA84A, size: 0x8, addend: 0x0, symName: __ZNSt3__123__dispatch_copy_or_moveB8ue170006INS_17_ClassicAlgPolicyENS_11__copy_loopIS1_EENS_14__copy_trivialEPKcS6_PcEENS_4pairIT2_T4_EES9_T3_SA_, symObjAddr: 0xF09C, symBinAddr: 0x10001E828, symSize: 0x44 }
  - { offsetInCU: 0x26837, offset: 0xAA8C9, size: 0x8, addend: 0x0, symName: __ZNSt3__121__unwrap_and_dispatchB8ue170006INS_10__overloadINS_11__copy_loopINS_17_ClassicAlgPolicyEEENS_14__copy_trivialEEEPKcS8_PcLi0EEENS_4pairIT0_T2_EESB_T1_SC_, symObjAddr: 0xF0E0, symBinAddr: 0x10001E86C, symSize: 0xB4 }
  - { offsetInCU: 0x268C9, offset: 0xAA95B, size: 0x8, addend: 0x0, symName: __ZNSt3__114__unwrap_rangeB8ue170006IPKcS2_EENS_4pairIT0_S4_EET_S6_, symObjAddr: 0xF194, symBinAddr: 0x10001E920, symSize: 0x60 }
  - { offsetInCU: 0x26A1B, offset: 0xAAAAD, size: 0x8, addend: 0x0, symName: __ZNSt3__113__unwrap_iterB8ue170006IPcNS_18__unwrap_iter_implIS1_Lb1EEELi0EEEDTclsrT0_8__unwrapclsr3stdE7declvalIT_EEEES5_, symObjAddr: 0xF23C, symBinAddr: 0x10001E9C8, symSize: 0x24 }
  - { offsetInCU: 0x26A60, offset: 0xAAAF2, size: 0x8, addend: 0x0, symName: __ZNSt3__19make_pairB8ue170006IPKcPcEENS_4pairINS_18__unwrap_ref_decayIT_E4typeENS5_IT0_E4typeEEEOS6_OS9_, symObjAddr: 0xF260, symBinAddr: 0x10001E9EC, symSize: 0x38 }
  - { offsetInCU: 0x26AB0, offset: 0xAAB42, size: 0x8, addend: 0x0, symName: __ZNSt3__114__rewrap_rangeB8ue170006IPKcS2_EET_S3_T0_, symObjAddr: 0xF298, symBinAddr: 0x10001EA24, symSize: 0x2C }
  - { offsetInCU: 0x26AFD, offset: 0xAAB8F, size: 0x8, addend: 0x0, symName: __ZNSt3__113__rewrap_iterB8ue170006IPcS1_NS_18__unwrap_iter_implIS1_Lb1EEEEET_S4_T0_, symObjAddr: 0xF2C4, symBinAddr: 0x10001EA50, symSize: 0x3C }
  - { offsetInCU: 0x26B52, offset: 0xAABE4, size: 0x8, addend: 0x0, symName: __ZNSt3__19make_pairB8ue170006IPKcS2_EENS_4pairINS_18__unwrap_ref_decayIT_E4typeENS4_IT0_E4typeEEEOS5_OS8_, symObjAddr: 0xF300, symBinAddr: 0x10001EA8C, symSize: 0x38 }
  - { offsetInCU: 0x26BA2, offset: 0xAAC34, size: 0x8, addend: 0x0, symName: __ZNSt3__113__unwrap_iterB8ue170006IPKcNS_18__unwrap_iter_implIS2_Lb1EEELi0EEEDTclsrT0_8__unwrapclsr3stdE7declvalIT_EEEES6_, symObjAddr: 0xF338, symBinAddr: 0x10001EAC4, symSize: 0x24 }
  - { offsetInCU: 0x26D10, offset: 0xAADA2, size: 0x8, addend: 0x0, symName: __ZNSt3__119__copy_trivial_implB8ue170006IKccEENS_4pairIPT_PT0_EES4_S4_S6_, symObjAddr: 0xF3F0, symBinAddr: 0x10001EB7C, symSize: 0x78 }
  - { offsetInCU: 0x26D7A, offset: 0xAAE0C, size: 0x8, addend: 0x0, symName: __ZNSt3__119__constexpr_memmoveB8ue170006IcKcLi0EEEPT_S3_PT0_NS_15__element_countE, symObjAddr: 0xF468, symBinAddr: 0x10001EBF4, symSize: 0x64 }
  - { offsetInCU: 0x26DEA, offset: 0xAAE7C, size: 0x8, addend: 0x0, symName: __ZNSt3__19make_pairB8ue170006IRPKcPcEENS_4pairINS_18__unwrap_ref_decayIT_E4typeENS6_IT0_E4typeEEEOS7_OSA_, symObjAddr: 0xF4CC, symBinAddr: 0x10001EC58, symSize: 0x38 }
  - { offsetInCU: 0x26E8D, offset: 0xAAF1F, size: 0x8, addend: 0x0, symName: __ZNSt3__113__rewrap_iterB8ue170006IPKcS2_NS_18__unwrap_iter_implIS2_Lb1EEEEET_S5_T0_, symObjAddr: 0xF608, symBinAddr: 0x10001ED94, symSize: 0x3C }
  - { offsetInCU: 0x26EE3, offset: 0xAAF75, size: 0x8, addend: 0x0, symName: __ZNSt3__16fill_nB8ue170006IPcmcEET_S2_T0_RKT1_, symObjAddr: 0xF6D4, symBinAddr: 0x10001EE60, symSize: 0x44 }
  - { offsetInCU: 0x26F47, offset: 0xAAFD9, size: 0x8, addend: 0x0, symName: __ZNSt3__18__fill_nB8ue170006IPcmcEET_S2_T0_RKT1_, symObjAddr: 0xF718, symBinAddr: 0x10001EEA4, symSize: 0x64 }
  - { offsetInCU: 0x26FAA, offset: 0xAB03C, size: 0x8, addend: 0x0, symName: __ZNSt3__121__convert_to_integralB8ue170006Em, symObjAddr: 0xF77C, symBinAddr: 0x10001EF08, symSize: 0x14 }
  - { offsetInCU: 0x26FD6, offset: 0xAB068, size: 0x8, addend: 0x0, symName: __ZNSt3__1neB8ue170006IPcEEbRKNS_11__wrap_iterIT_EES6_, symObjAddr: 0x10A70, symBinAddr: 0x100020164, symSize: 0x34 }
  - { offsetInCU: 0x2701A, offset: 0xAB0AC, size: 0x8, addend: 0x0, symName: __ZNSt3__1eqB8ue170006IPcEEbRKNS_11__wrap_iterIT_EES6_, symObjAddr: 0x10ADC, symBinAddr: 0x1000201D0, symSize: 0x48 }
  - { offsetInCU: 0x2705E, offset: 0xAB0F0, size: 0x8, addend: 0x0, symName: __ZNSt3__119__allocate_at_leastB8ue170006INS_9allocatorIN3tmx7TilesetEEEEENS_19__allocation_resultINS_16allocator_traitsIT_E7pointerEEERS7_m, symObjAddr: 0x114F8, symBinAddr: 0x100020A5C, symSize: 0x40 }
  - { offsetInCU: 0x270A1, offset: 0xAB133, size: 0x8, addend: 0x0, symName: __ZNSt3__142__uninitialized_allocator_move_if_noexceptB8ue170006INS_9allocatorIN3tmx7TilesetEEENS_16reverse_iteratorIPS3_EES7_S7_EET2_RT_T0_T1_S8_, symObjAddr: 0x11784, symBinAddr: 0x100020C14, symSize: 0x12C }
  - { offsetInCU: 0x27142, offset: 0xAB1D4, size: 0x8, addend: 0x0, symName: __ZNSt3__14swapB8ue170006IPN3tmx7TilesetEEENS_9enable_ifIXaasr21is_move_constructibleIT_EE5valuesr18is_move_assignableIS5_EE5valueEvE4typeERS5_S8_, symObjAddr: 0x118FC, symBinAddr: 0x100020D8C, symSize: 0x3C }
  - { offsetInCU: 0x27194, offset: 0xAB226, size: 0x8, addend: 0x0, symName: __ZNSt3__122__make_exception_guardB8ue170006INS_29_AllocatorDestroyRangeReverseINS_9allocatorIN3tmx7TilesetEEENS_16reverse_iteratorIPS4_EEEEEENS_28__exception_guard_exceptionsIT_EESB_, symObjAddr: 0x11A48, symBinAddr: 0x100020E90, symSize: 0x4C }
  - { offsetInCU: 0x271CB, offset: 0xAB25D, size: 0x8, addend: 0x0, symName: __ZNSt3__1neB8ue170006IPN3tmx7TilesetES3_EEbRKNS_16reverse_iteratorIT_EERKNS4_IT0_EE, symObjAddr: 0x11AD8, symBinAddr: 0x100020F20, symSize: 0x48 }
  - { offsetInCU: 0x27218, offset: 0xAB2AA, size: 0x8, addend: 0x0, symName: __ZNSt3__112__to_addressB8ue170006INS_16reverse_iteratorIPN3tmx7TilesetEEEvEEu7__decayIDTclsr19__to_address_helperIT_EE6__callclsr3stdE7declvalIRKS6_EEEEES8_, symObjAddr: 0x11B54, symBinAddr: 0x100020F9C, symSize: 0x24 }
  - { offsetInCU: 0x27279, offset: 0xAB30B, size: 0x8, addend: 0x0, symName: __ZNSt3__119__allocator_destroyB8ue170006INS_9allocatorIN3tmx7TilesetEEENS_16reverse_iteratorINS5_IPS3_EEEES8_EEvRT_T0_T1_, symObjAddr: 0x126B8, symBinAddr: 0x1000219E0, symSize: 0x70 }
  - { offsetInCU: 0x272DE, offset: 0xAB370, size: 0x8, addend: 0x0, symName: __ZNSt3__1neB8ue170006INS_16reverse_iteratorIPN3tmx7TilesetEEES5_EEbRKNS1_IT_EERKNS1_IT0_EE, symObjAddr: 0x12764, symBinAddr: 0x100021A8C, symSize: 0x60 }
  - { offsetInCU: 0x2732B, offset: 0xAB3BD, size: 0x8, addend: 0x0, symName: __ZNSt3__112__to_addressB8ue170006INS_16reverse_iteratorINS1_IPN3tmx7TilesetEEEEEvEEu7__decayIDTclsr19__to_address_helperIT_EE6__callclsr3stdE7declvalIRKS7_EEEEES9_, symObjAddr: 0x127F0, symBinAddr: 0x100021AEC, symSize: 0x24 }
  - { offsetInCU: 0x2738C, offset: 0xAB41E, size: 0x8, addend: 0x0, symName: __ZNSt3__112__to_addressB8ue170006IN3tmx9TileLayer5ChunkEEEPT_S5_, symObjAddr: 0x14688, symBinAddr: 0x100022524, symSize: 0x14 }
  - { offsetInCU: 0x273C1, offset: 0xAB453, size: 0x8, addend: 0x0, symName: __ZNSt3__112__to_addressB8ue170006IN3tmx9TileLayer4TileEEEPT_S5_, symObjAddr: 0x14BC8, symBinAddr: 0x100022A64, symSize: 0x14 }
  - { offsetInCU: 0x273F6, offset: 0xAB488, size: 0x8, addend: 0x0, symName: __ZNSt3__119__allocate_at_leastB8ue170006INS_9allocatorINS_10unique_ptrIN3tmx5LayerENS_14default_deleteIS4_EEEEEEEENS_19__allocation_resultINS_16allocator_traitsIT_E7pointerEEERSB_m, symObjAddr: 0x157B8, symBinAddr: 0x100023518, symSize: 0x40 }
  - { offsetInCU: 0x27439, offset: 0xAB4CB, size: 0x8, addend: 0x0, symName: __ZNSt3__142__uninitialized_allocator_move_if_noexceptB8ue170006INS_9allocatorINS_10unique_ptrIN3tmx5LayerENS_14default_deleteIS4_EEEEEENS_16reverse_iteratorIPS7_EESB_SB_EET2_RT_T0_T1_SC_, symObjAddr: 0x15A24, symBinAddr: 0x1000236CC, symSize: 0x12C }
  - { offsetInCU: 0x274DA, offset: 0xAB56C, size: 0x8, addend: 0x0, symName: __ZNSt3__14swapB8ue170006IPNS_10unique_ptrIN3tmx5LayerENS_14default_deleteIS3_EEEEEENS_9enable_ifIXaasr21is_move_constructibleIT_EE5valuesr18is_move_assignableIS9_EE5valueEvE4typeERS9_SC_, symObjAddr: 0x15B9C, symBinAddr: 0x100023844, symSize: 0x3C }
  - { offsetInCU: 0x2752C, offset: 0xAB5BE, size: 0x8, addend: 0x0, symName: __ZNSt3__122__make_exception_guardB8ue170006INS_29_AllocatorDestroyRangeReverseINS_9allocatorINS_10unique_ptrIN3tmx5LayerENS_14default_deleteIS5_EEEEEENS_16reverse_iteratorIPS8_EEEEEENS_28__exception_guard_exceptionsIT_EESF_, symObjAddr: 0x15CCC, symBinAddr: 0x10002392C, symSize: 0x4C }
  - { offsetInCU: 0x27563, offset: 0xAB5F5, size: 0x8, addend: 0x0, symName: __ZNSt3__1neB8ue170006IPNS_10unique_ptrIN3tmx5LayerENS_14default_deleteIS3_EEEES7_EEbRKNS_16reverse_iteratorIT_EERKNS8_IT0_EE, symObjAddr: 0x15D5C, symBinAddr: 0x1000239BC, symSize: 0x48 }
  - { offsetInCU: 0x275B0, offset: 0xAB642, size: 0x8, addend: 0x0, symName: __ZNSt3__112__to_addressB8ue170006INS_16reverse_iteratorIPNS_10unique_ptrIN3tmx5LayerENS_14default_deleteIS4_EEEEEEvEEu7__decayIDTclsr19__to_address_helperIT_EE6__callclsr3stdE7declvalIRKSA_EEEEESC_, symObjAddr: 0x15DD8, symBinAddr: 0x100023A38, symSize: 0x24 }
  - { offsetInCU: 0x27611, offset: 0xAB6A3, size: 0x8, addend: 0x0, symName: __ZNSt3__119__allocator_destroyB8ue170006INS_9allocatorINS_10unique_ptrIN3tmx5LayerENS_14default_deleteIS4_EEEEEENS_16reverse_iteratorINS9_IPS7_EEEESC_EEvRT_T0_T1_, symObjAddr: 0x162E0, symBinAddr: 0x100023ED0, symSize: 0x70 }
  - { offsetInCU: 0x27676, offset: 0xAB708, size: 0x8, addend: 0x0, symName: __ZNSt3__1neB8ue170006INS_16reverse_iteratorIPNS_10unique_ptrIN3tmx5LayerENS_14default_deleteIS4_EEEEEES9_EEbRKNS1_IT_EERKNS1_IT0_EE, symObjAddr: 0x1638C, symBinAddr: 0x100023F7C, symSize: 0x60 }
  - { offsetInCU: 0x276C3, offset: 0xAB755, size: 0x8, addend: 0x0, symName: __ZNSt3__112__to_addressB8ue170006INS_16reverse_iteratorINS1_IPNS_10unique_ptrIN3tmx5LayerENS_14default_deleteIS4_EEEEEEEEvEEu7__decayIDTclsr19__to_address_helperIT_EE6__callclsr3stdE7declvalIRKSB_EEEEESD_, symObjAddr: 0x16418, symBinAddr: 0x100023FDC, symSize: 0x24 }
  - { offsetInCU: 0x2775A, offset: 0xAB7EC, size: 0x8, addend: 0x0, symName: __ZNSt3__116forward_as_tupleB8ue170006IJjEEENS_5tupleIJDpOT_EEES4_, symObjAddr: 0x18154, symBinAddr: 0x10002591C, symSize: 0x2C }
  - { offsetInCU: 0x27794, offset: 0xAB826, size: 0x8, addend: 0x0, symName: __ZNSt3__116forward_as_tupleB8ue170006IJEEENS_5tupleIJDpOT_EEES4_, symObjAddr: 0x18180, symBinAddr: 0x100025948, symSize: 0x4 }
  - { offsetInCU: 0x277B7, offset: 0xAB849, size: 0x8, addend: 0x0, symName: __ZNSt3__17launderB8ue170006IKNS_4pairIKjN3tmx7Tileset4TileEEEEEPT_S9_, symObjAddr: 0x1884C, symBinAddr: 0x100025F64, symSize: 0x24 }
  - { offsetInCU: 0x277EF, offset: 0xAB881, size: 0x8, addend: 0x0, symName: __ZNSt3__19__launderB8ue170006IKNS_4pairIKjN3tmx7Tileset4TileEEEEEPT_S9_, symObjAddr: 0x18870, symBinAddr: 0x100025F88, symSize: 0x14 }
  - { offsetInCU: 0x2784F, offset: 0xAB8E1, size: 0x8, addend: 0x0, symName: __ZNSt3__13getB8ue170006ILm0EJOjEEERNS_13tuple_elementIXT_ENS_5tupleIJDpT0_EEEE4typeERS6_, symObjAddr: 0x18D4C, symBinAddr: 0x1000263E0, symSize: 0x24 }
  - { offsetInCU: 0x27893, offset: 0xAB925, size: 0x8, addend: 0x0, symName: __ZNSt3__127__tree_balance_after_insertB8ue170006IPNS_16__tree_node_baseIPvEEEEvT_S5_, symObjAddr: 0x190F4, symBinAddr: 0x100026788, symSize: 0x32C }
  - { offsetInCU: 0x2790F, offset: 0xAB9A1, size: 0x8, addend: 0x0, symName: __ZNSt3__120__tree_is_left_childB8ue170006IPNS_16__tree_node_baseIPvEEEEbT_, symObjAddr: 0x19460, symBinAddr: 0x100026AF4, symSize: 0x2C }
  - { offsetInCU: 0x27944, offset: 0xAB9D6, size: 0x8, addend: 0x0, symName: __ZNSt3__118__tree_left_rotateB8ue170006IPNS_16__tree_node_baseIPvEEEEvT_, symObjAddr: 0x1948C, symBinAddr: 0x100026B20, symSize: 0xD8 }
  - { offsetInCU: 0x27986, offset: 0xABA18, size: 0x8, addend: 0x0, symName: __ZNSt3__119__tree_right_rotateB8ue170006IPNS_16__tree_node_baseIPvEEEEvT_, symObjAddr: 0x19564, symBinAddr: 0x100026BF8, symSize: 0xCC }
  - { offsetInCU: 0x28A74, offset: 0xACB06, size: 0x8, addend: 0x0, symName: __ZN3tmx6Logger6bufferEv, symObjAddr: 0x3640, symBinAddr: 0x100015860, symSize: 0x90 }
  - { offsetInCU: 0x28A94, offset: 0xACB26, size: 0x8, addend: 0x0, symName: __ZZN3tmx6Logger6bufferEvE6buffer, symObjAddr: 0x1B910, symBinAddr: 0x100070000, symSize: 0x0 }
  - { offsetInCU: 0x28A9F, offset: 0xACB31, size: 0x8, addend: 0x0, symName: __ZN3tmx6Logger15updateOutStringEm, symObjAddr: 0x3870, symBinAddr: 0x100015A90, symSize: 0x110 }
  - { offsetInCU: 0x28ABF, offset: 0xACB51, size: 0x8, addend: 0x0, symName: __ZZN3tmx6Logger15updateOutStringEmE5count, symObjAddr: 0x1B930, symBinAddr: 0x100070020, symSize: 0x0 }
  - { offsetInCU: 0x28AD8, offset: 0xACB6A, size: 0x8, addend: 0x0, symName: __ZN3tmx6Logger12stringOutputEv, symObjAddr: 0x5CA0, symBinAddr: 0x100016EE4, symSize: 0x90 }
  - { offsetInCU: 0x28AF8, offset: 0xACB8A, size: 0x8, addend: 0x0, symName: __ZZN3tmx6Logger12stringOutputEvE6output, symObjAddr: 0x1B938, symBinAddr: 0x100070028, symSize: 0x0 }
  - { offsetInCU: 0x2C9BA, offset: 0xB0A4C, size: 0x8, addend: 0x0, symName: __ZNSt3__16vectorIN3tmx8PropertyENS_9allocatorIS2_EEE26__swap_out_circular_bufferERNS_14__split_bufferIS2_RS4_EE, symObjAddr: 0xDBE4, symBinAddr: 0x10001D6F0, symSize: 0x110 }
  - { offsetInCU: 0x2CA39, offset: 0xB0ACB, size: 0x8, addend: 0x0, symName: __ZNSt3__16vectorIN3tmx7TilesetENS_9allocatorIS2_EEE26__swap_out_circular_bufferERNS_14__split_bufferIS2_RS4_EE, symObjAddr: 0x110E0, symBinAddr: 0x1000206E4, symSize: 0x110 }
  - { offsetInCU: 0x2CCFC, offset: 0xB0D8E, size: 0x8, addend: 0x0, symName: __ZNSt3__16vectorINS_10unique_ptrIN3tmx5LayerENS_14default_deleteIS3_EEEENS_9allocatorIS6_EEE26__swap_out_circular_bufferERNS_14__split_bufferIS6_RS8_EE, symObjAddr: 0x153B8, symBinAddr: 0x1000231B8, symSize: 0x110 }
  - { offsetInCU: 0x2EE68, offset: 0xB2EFA, size: 0x8, addend: 0x0, symName: __ZN3tmx3MapC2Ev, symObjAddr: 0x0, symBinAddr: 0x100012344, symSize: 0x130 }
  - { offsetInCU: 0x2EE94, offset: 0xB2F26, size: 0x8, addend: 0x0, symName: __ZN3tmx7VersionC1Ett, symObjAddr: 0x130, symBinAddr: 0x100012474, symSize: 0x3C }
  - { offsetInCU: 0x2EEDA, offset: 0xB2F6C, size: 0x8, addend: 0x0, symName: __ZN3tmx7Vector2IjEC1Ev, symObjAddr: 0x198, symBinAddr: 0x1000124B0, symSize: 0x2C }
  - { offsetInCU: 0x2EF04, offset: 0xB2F96, size: 0x8, addend: 0x0, symName: __ZN3tmx7Vector2IfEC1Ev, symObjAddr: 0x1C4, symBinAddr: 0x1000124DC, symSize: 0x2C }
  - { offsetInCU: 0x2EF2E, offset: 0xB2FC0, size: 0x8, addend: 0x0, symName: __ZN3tmx6ColourC1Ehhhh, symObjAddr: 0x1F0, symBinAddr: 0x100012508, symSize: 0x4C }
  - { offsetInCU: 0x2EF90, offset: 0xB3022, size: 0x8, addend: 0x0, symName: __ZNSt3__16vectorIN3tmx7TilesetENS_9allocatorIS2_EEEC1B8ue170006Ev, symObjAddr: 0x23C, symBinAddr: 0x100012554, symSize: 0x2C }
  - { offsetInCU: 0x2EFBA, offset: 0xB304C, size: 0x8, addend: 0x0, symName: __ZNSt3__16vectorINS_10unique_ptrIN3tmx5LayerENS_14default_deleteIS3_EEEENS_9allocatorIS6_EEEC1B8ue170006Ev, symObjAddr: 0x268, symBinAddr: 0x100012580, symSize: 0x2C }
  - { offsetInCU: 0x2EFE4, offset: 0xB3076, size: 0x8, addend: 0x0, symName: __ZNSt3__16vectorIN3tmx8PropertyENS_9allocatorIS2_EEEC1B8ue170006Ev, symObjAddr: 0x294, symBinAddr: 0x1000125AC, symSize: 0x2C }
  - { offsetInCU: 0x2F00E, offset: 0xB30A0, size: 0x8, addend: 0x0, symName: __ZNSt3__13mapIjN3tmx7Tileset4TileENS_4lessIjEENS_9allocatorINS_4pairIKjS3_EEEEEC1B8ue170006Ev, symObjAddr: 0x2C0, symBinAddr: 0x1000125D8, symSize: 0x2C }
  - { offsetInCU: 0x2F038, offset: 0xB30CA, size: 0x8, addend: 0x0, symName: __ZNSt3__113unordered_mapINS_12basic_stringIcNS_11char_traitsIcEENS_9allocatorIcEEEEN3tmx6ObjectENS_4hashIS6_EENS_8equal_toIS6_EENS4_INS_4pairIKS6_S8_EEEEEC1B8ue170006Ev, symObjAddr: 0x2EC, symBinAddr: 0x100012604, symSize: 0x2C }
  - { offsetInCU: 0x2F062, offset: 0xB30F4, size: 0x8, addend: 0x0, symName: __ZNSt3__113unordered_mapINS_12basic_stringIcNS_11char_traitsIcEENS_9allocatorIcEEEEN3tmx7TilesetENS_4hashIS6_EENS_8equal_toIS6_EENS4_INS_4pairIKS6_S8_EEEEEC1B8ue170006Ev, symObjAddr: 0x318, symBinAddr: 0x100012630, symSize: 0x2C }
  - { offsetInCU: 0x2F08C, offset: 0xB311E, size: 0x8, addend: 0x0, symName: __ZN3tmx3MapC1Ev, symObjAddr: 0x344, symBinAddr: 0x10001265C, symSize: 0x2C }
  - { offsetInCU: 0x2F0B8, offset: 0xB314A, size: 0x8, addend: 0x0, symName: __ZN3tmx3Map4loadERKNSt3__112basic_stringIcNS1_11char_traitsIcEENS1_9allocatorIcEEEE, symObjAddr: 0x370, symBinAddr: 0x100012688, symSize: 0x164 }
  - { offsetInCU: 0x2F0FD, offset: 0xB318F, size: 0x8, addend: 0x0, symName: __ZN3tmx6Logger3logERKNSt3__112basic_stringIcNS1_11char_traitsIcEENS1_9allocatorIcEEEENS0_4TypeENS0_6OutputE, symObjAddr: 0x4D4, symBinAddr: 0x1000127EC, symSize: 0x47C }
  - { offsetInCU: 0x2F1AB, offset: 0xB323D, size: 0x8, addend: 0x0, symName: __ZN3tmx3Map5resetEv, symObjAddr: 0x950, symBinAddr: 0x100012C68, symSize: 0x104 }
  - { offsetInCU: 0x2F1D4, offset: 0xB3266, size: 0x8, addend: 0x0, symName: __ZN3tmx3Map14loadFromStringERKNSt3__112basic_stringIcNS1_11char_traitsIcEENS1_9allocatorIcEEEES9_, symObjAddr: 0xA54, symBinAddr: 0x100012D6C, symSize: 0x368 }
  - { offsetInCU: 0x2F24B, offset: 0xB32DD, size: 0x8, addend: 0x0, symName: __ZNKSt3__112basic_stringIcNS_11char_traitsIcEENS_9allocatorIcEEE5c_strB8ue170006Ev, symObjAddr: 0xEA0, symBinAddr: 0x1000131B8, symSize: 0x24 }
  - { offsetInCU: 0x2F276, offset: 0xB3308, size: 0x8, addend: 0x0, symName: __ZNSt3__112basic_stringIcNS_11char_traitsIcEENS_9allocatorIcEEE5beginB8ue170006Ev, symObjAddr: 0xFD0, symBinAddr: 0x1000132B4, symSize: 0x4C }
  - { offsetInCU: 0x2F29C, offset: 0xB332E, size: 0x8, addend: 0x0, symName: __ZNSt3__112basic_stringIcNS_11char_traitsIcEENS_9allocatorIcEEE3endB8ue170006Ev, symObjAddr: 0x101C, symBinAddr: 0x100013300, symSize: 0x54 }
  - { offsetInCU: 0x2F2C2, offset: 0xB3354, size: 0x8, addend: 0x0, symName: __ZNKSt3__112basic_stringIcNS_11char_traitsIcEENS_9allocatorIcEEE5emptyB8ue170006Ev, symObjAddr: 0x1070, symBinAddr: 0x100013354, symSize: 0x30 }
  - { offsetInCU: 0x2F2E8, offset: 0xB337A, size: 0x8, addend: 0x0, symName: __ZNSt3__112basic_stringIcNS_11char_traitsIcEENS_9allocatorIcEEE4backB8ue170006Ev, symObjAddr: 0x10A0, symBinAddr: 0x100013384, symSize: 0x48 }
  - { offsetInCU: 0x2F30E, offset: 0xB33A0, size: 0x8, addend: 0x0, symName: __ZNSt3__112basic_stringIcNS_11char_traitsIcEENS_9allocatorIcEEE8pop_backB8ue170006Ev, symObjAddr: 0x10E8, symBinAddr: 0x1000133CC, symSize: 0x38 }
  - { offsetInCU: 0x2F336, offset: 0xB33C8, size: 0x8, addend: 0x0, symName: __ZN3tmx3Map12parseMapNodeERKN4pugi8xml_nodeE, symObjAddr: 0x1120, symBinAddr: 0x100013404, symSize: 0x149C }
  - { offsetInCU: 0x2F538, offset: 0xB35CA, size: 0x8, addend: 0x0, symName: __ZNKSt3__112basic_stringIcNS_11char_traitsIcEENS_9allocatorIcEEE6substrB8ue170006Emm, symObjAddr: 0x25BC, symBinAddr: 0x1000148A0, symSize: 0x68 }
  - { offsetInCU: 0x2F57C, offset: 0xB360E, size: 0x8, addend: 0x0, symName: __ZNSt3__112basic_stringIcNS_11char_traitsIcEENS_9allocatorIcEEEaSB8ue170006EPKc, symObjAddr: 0x2624, symBinAddr: 0x100014908, symSize: 0x2C }
  - { offsetInCU: 0x2F5B1, offset: 0xB3643, size: 0x8, addend: 0x0, symName: __ZN3tmx7Vector2IjEC1Ejj, symObjAddr: 0x2818, symBinAddr: 0x100014AFC, symSize: 0x3C }
  - { offsetInCU: 0x2F5F7, offset: 0xB3689, size: 0x8, addend: 0x0, symName: __ZN3tmx7Vector2IfEC1Eff, symObjAddr: 0x2854, symBinAddr: 0x100014B38, symSize: 0x3C }
  - { offsetInCU: 0x2F63D, offset: 0xB36CF, size: 0x8, addend: 0x0, symName: __ZNK4pugi16xml_object_rangeINS_17xml_node_iteratorEE5beginEv, symObjAddr: 0x2AA0, symBinAddr: 0x100014D84, symSize: 0x24 }
  - { offsetInCU: 0x2F663, offset: 0xB36F5, size: 0x8, addend: 0x0, symName: __ZNK4pugi16xml_object_rangeINS_17xml_node_iteratorEE3endEv, symObjAddr: 0x2AC4, symBinAddr: 0x100014DA8, symSize: 0x24 }
  - { offsetInCU: 0x2F689, offset: 0xB371B, size: 0x8, addend: 0x0, symName: __ZNSt3__16vectorIN3tmx7TilesetENS_9allocatorIS2_EEE12emplace_backIJRNS_12basic_stringIcNS_11char_traitsIcEENS3_IcEEEEEEERS2_DpOT_, symObjAddr: 0x2AE8, symBinAddr: 0x100014DCC, symSize: 0x74 }
  - { offsetInCU: 0x2F6CB, offset: 0xB375D, size: 0x8, addend: 0x0, symName: __ZNSt3__16vectorIN3tmx7TilesetENS_9allocatorIS2_EEE4backB8ue170006Ev, symObjAddr: 0x2B5C, symBinAddr: 0x100014E40, symSize: 0x1C }
  - { offsetInCU: 0x2F6F1, offset: 0xB3783, size: 0x8, addend: 0x0, symName: __ZNSt3__16vectorINS_10unique_ptrIN3tmx5LayerENS_14default_deleteIS3_EEEENS_9allocatorIS6_EEE12emplace_backIJNS1_INS2_9TileLayerENS4_ISB_EEEEEEERS6_DpOT_, symObjAddr: 0x2B78, symBinAddr: 0x100014E5C, symSize: 0x74 }
  - { offsetInCU: 0x2F733, offset: 0xB37C5, size: 0x8, addend: 0x0, symName: __ZNSt3__110unique_ptrIN3tmx9TileLayerENS_14default_deleteIS2_EEED1B8ue170006Ev, symObjAddr: 0x2C60, symBinAddr: 0x100014F44, symSize: 0x2C }
  - { offsetInCU: 0x2F75D, offset: 0xB37EF, size: 0x8, addend: 0x0, symName: __ZNSt3__16vectorINS_10unique_ptrIN3tmx5LayerENS_14default_deleteIS3_EEEENS_9allocatorIS6_EEE4backB8ue170006Ev, symObjAddr: 0x2C8C, symBinAddr: 0x100014F70, symSize: 0x1C }
  - { offsetInCU: 0x2F783, offset: 0xB3815, size: 0x8, addend: 0x0, symName: __ZNSt3__16vectorINS_10unique_ptrIN3tmx5LayerENS_14default_deleteIS3_EEEENS_9allocatorIS6_EEE12emplace_backIJNS1_INS2_11ObjectGroupENS4_ISB_EEEEEEERS6_DpOT_, symObjAddr: 0x2CD0, symBinAddr: 0x100014F8C, symSize: 0x74 }
  - { offsetInCU: 0x2F7C5, offset: 0xB3857, size: 0x8, addend: 0x0, symName: __ZNSt3__110unique_ptrIN3tmx11ObjectGroupENS_14default_deleteIS2_EEED1B8ue170006Ev, symObjAddr: 0x2DA8, symBinAddr: 0x100015064, symSize: 0x2C }
  - { offsetInCU: 0x2F7EF, offset: 0xB3881, size: 0x8, addend: 0x0, symName: __ZNSt3__16vectorINS_10unique_ptrIN3tmx5LayerENS_14default_deleteIS3_EEEENS_9allocatorIS6_EEE12emplace_backIJNS1_INS2_10ImageLayerENS4_ISB_EEEEEEERS6_DpOT_, symObjAddr: 0x2DD4, symBinAddr: 0x100015090, symSize: 0x74 }
  - { offsetInCU: 0x2F831, offset: 0xB38C3, size: 0x8, addend: 0x0, symName: __ZNSt3__110unique_ptrIN3tmx10ImageLayerENS_14default_deleteIS2_EEED1B8ue170006Ev, symObjAddr: 0x2EB4, symBinAddr: 0x100015170, symSize: 0x2C }
  - { offsetInCU: 0x2F85B, offset: 0xB38ED, size: 0x8, addend: 0x0, symName: __ZNSt3__16vectorIN3tmx8PropertyENS_9allocatorIS2_EEE12emplace_backIJEEERS2_DpOT_, symObjAddr: 0x2EE0, symBinAddr: 0x10001519C, symSize: 0x68 }
  - { offsetInCU: 0x2F888, offset: 0xB391A, size: 0x8, addend: 0x0, symName: __ZNSt3__16vectorIN3tmx8PropertyENS_9allocatorIS2_EEE4backB8ue170006Ev, symObjAddr: 0x2F48, symBinAddr: 0x100015204, symSize: 0x1C }
  - { offsetInCU: 0x2F8AE, offset: 0xB3940, size: 0x8, addend: 0x0, symName: __ZNSt3__16vectorINS_10unique_ptrIN3tmx5LayerENS_14default_deleteIS3_EEEENS_9allocatorIS6_EEE12emplace_backIJNS1_INS2_10LayerGroupENS4_ISB_EEEEEEERS6_DpOT_, symObjAddr: 0x2F64, symBinAddr: 0x100015220, symSize: 0x74 }
  - { offsetInCU: 0x2F8F0, offset: 0xB3982, size: 0x8, addend: 0x0, symName: __ZNSt3__110unique_ptrIN3tmx10LayerGroupENS_14default_deleteIS2_EEED1B8ue170006Ev, symObjAddr: 0x304C, symBinAddr: 0x100015308, symSize: 0x2C }
  - { offsetInCU: 0x2F91A, offset: 0xB39AC, size: 0x8, addend: 0x0, symName: __ZNSt3__16vectorIN3tmx7TilesetENS_9allocatorIS2_EEE5beginB8ue170006Ev, symObjAddr: 0x3078, symBinAddr: 0x100015334, symSize: 0x30 }
  - { offsetInCU: 0x2F942, offset: 0xB39D4, size: 0x8, addend: 0x0, symName: __ZNSt3__16vectorIN3tmx7TilesetENS_9allocatorIS2_EEE3endB8ue170006Ev, symObjAddr: 0x30A8, symBinAddr: 0x100015364, symSize: 0x30 }
  - { offsetInCU: 0x2F96A, offset: 0xB39FC, size: 0x8, addend: 0x0, symName: __ZNKSt3__111__wrap_iterIPN3tmx7TilesetEEdeB8ue170006Ev, symObjAddr: 0x310C, symBinAddr: 0x1000153C8, symSize: 0x18 }
  - { offsetInCU: 0x2F990, offset: 0xB3A22, size: 0x8, addend: 0x0, symName: __ZNK3tmx7Tileset8getTilesEv, symObjAddr: 0x3124, symBinAddr: 0x1000153E0, symSize: 0x18 }
  - { offsetInCU: 0x2F9B6, offset: 0xB3A48, size: 0x8, addend: 0x0, symName: __ZNKSt3__16vectorIN3tmx7Tileset4TileENS_9allocatorIS3_EEE5beginB8ue170006Ev, symObjAddr: 0x313C, symBinAddr: 0x1000153F8, symSize: 0x30 }
  - { offsetInCU: 0x2F9DE, offset: 0xB3A70, size: 0x8, addend: 0x0, symName: __ZNKSt3__16vectorIN3tmx7Tileset4TileENS_9allocatorIS3_EEE3endB8ue170006Ev, symObjAddr: 0x316C, symBinAddr: 0x100015428, symSize: 0x30 }
  - { offsetInCU: 0x2FA06, offset: 0xB3A98, size: 0x8, addend: 0x0, symName: __ZNKSt3__111__wrap_iterIPKN3tmx7Tileset4TileEEdeB8ue170006Ev, symObjAddr: 0x31D0, symBinAddr: 0x10001548C, symSize: 0x18 }
  - { offsetInCU: 0x2FA2C, offset: 0xB3ABE, size: 0x8, addend: 0x0, symName: __ZNKSt3__16vectorIN3tmx7Tileset4Tile9Animation5FrameENS_9allocatorIS5_EEE5emptyB8ue170006Ev, symObjAddr: 0x31E8, symBinAddr: 0x1000154A4, symSize: 0x28 }
  - { offsetInCU: 0x2FA52, offset: 0xB3AE4, size: 0x8, addend: 0x0, symName: __ZNSt3__13mapIjN3tmx7Tileset4TileENS_4lessIjEENS_9allocatorINS_4pairIKjS3_EEEEEixEOj, symObjAddr: 0x3210, symBinAddr: 0x1000154CC, symSize: 0x80 }
  - { offsetInCU: 0x2FA8E, offset: 0xB3B20, size: 0x8, addend: 0x0, symName: __ZN3tmx7Tileset4TileaSERKS1_, symObjAddr: 0x32A8, symBinAddr: 0x10001554C, symSize: 0xAC }
  - { offsetInCU: 0x2FABF, offset: 0xB3B51, size: 0x8, addend: 0x0, symName: __ZNSt3__111__wrap_iterIPKN3tmx7Tileset4TileEEppB8ue170006Ev, symObjAddr: 0x3354, symBinAddr: 0x1000155F8, symSize: 0x20 }
  - { offsetInCU: 0x2FAE5, offset: 0xB3B77, size: 0x8, addend: 0x0, symName: __ZNSt3__111__wrap_iterIPN3tmx7TilesetEEppB8ue170006Ev, symObjAddr: 0x3374, symBinAddr: 0x100015618, symSize: 0x20 }
  - { offsetInCU: 0x2FB0B, offset: 0xB3B9D, size: 0x8, addend: 0x0, symName: __ZNSt3__16vectorIN3tmx7TilesetENS_9allocatorIS2_EEE5clearB8ue170006Ev, symObjAddr: 0x3394, symBinAddr: 0x100015638, symSize: 0x44 }
  - { offsetInCU: 0x2FB40, offset: 0xB3BD2, size: 0x8, addend: 0x0, symName: __ZNSt3__16vectorINS_10unique_ptrIN3tmx5LayerENS_14default_deleteIS3_EEEENS_9allocatorIS6_EEE5clearB8ue170006Ev, symObjAddr: 0x33D8, symBinAddr: 0x10001567C, symSize: 0x44 }
  - { offsetInCU: 0x2FB75, offset: 0xB3C07, size: 0x8, addend: 0x0, symName: __ZNSt3__16vectorIN3tmx8PropertyENS_9allocatorIS2_EEE5clearB8ue170006Ev, symObjAddr: 0x341C, symBinAddr: 0x1000156C0, symSize: 0x44 }
  - { offsetInCU: 0x2FBAA, offset: 0xB3C3C, size: 0x8, addend: 0x0, symName: __ZNSt3__113unordered_mapINS_12basic_stringIcNS_11char_traitsIcEENS_9allocatorIcEEEEN3tmx6ObjectENS_4hashIS6_EENS_8equal_toIS6_EENS4_INS_4pairIKS6_S8_EEEEE5clearB8ue170006Ev, symObjAddr: 0x3460, symBinAddr: 0x100015704, symSize: 0x24 }
  - { offsetInCU: 0x2FBD0, offset: 0xB3C62, size: 0x8, addend: 0x0, symName: __ZNSt3__113unordered_mapINS_12basic_stringIcNS_11char_traitsIcEENS_9allocatorIcEEEEN3tmx7TilesetENS_4hashIS6_EENS_8equal_toIS6_EENS4_INS_4pairIKS6_S8_EEEEE5clearB8ue170006Ev, symObjAddr: 0x3484, symBinAddr: 0x100015728, symSize: 0x24 }
  - { offsetInCU: 0x2FBF6, offset: 0xB3C88, size: 0x8, addend: 0x0, symName: __ZNSt3__13mapIjN3tmx7Tileset4TileENS_4lessIjEENS_9allocatorINS_4pairIKjS3_EEEEE5clearB8ue170006Ev, symObjAddr: 0x34A8, symBinAddr: 0x10001574C, symSize: 0x24 }
  - { offsetInCU: 0x2FC1C, offset: 0xB3CAE, size: 0x8, addend: 0x0, symName: __ZN3tmx7VersionC2Ett, symObjAddr: 0x34CC, symBinAddr: 0x100015770, symSize: 0x2C }
  - { offsetInCU: 0x2FC62, offset: 0xB3CF4, size: 0x8, addend: 0x0, symName: __ZN3tmx6ColourC2Ehhhh, symObjAddr: 0x34F8, symBinAddr: 0x10001579C, symSize: 0x44 }
  - { offsetInCU: 0x2FCC4, offset: 0xB3D56, size: 0x8, addend: 0x0, symName: __ZNSt3__112basic_stringIcNS_11char_traitsIcEENS_9allocatorIcEEEaSB8ue170006EOS5_, symObjAddr: 0x353C, symBinAddr: 0x1000157E0, symSize: 0x34 }
  - { offsetInCU: 0x2FCF9, offset: 0xB3D8B, size: 0x8, addend: 0x0, symName: __ZNSt3__14listINS_12basic_stringIcNS_11char_traitsIcEENS_9allocatorIcEEEENS4_IS6_EEE9push_backERKS6_, symObjAddr: 0x36D0, symBinAddr: 0x1000158F0, symSize: 0xF4 }
  - { offsetInCU: 0x2FD4E, offset: 0xB3DE0, size: 0x8, addend: 0x0, symName: __ZNKSt3__14listINS_12basic_stringIcNS_11char_traitsIcEENS_9allocatorIcEEEENS4_IS6_EEE4sizeB8ue170006Ev, symObjAddr: 0x37C4, symBinAddr: 0x1000159E4, symSize: 0x28 }
  - { offsetInCU: 0x2FD74, offset: 0xB3E06, size: 0x8, addend: 0x0, symName: __ZNSt3__14listINS_12basic_stringIcNS_11char_traitsIcEENS_9allocatorIcEEEENS4_IS6_EEE9pop_frontEv, symObjAddr: 0x37EC, symBinAddr: 0x100015A0C, symSize: 0x84 }
  - { offsetInCU: 0x2FE63, offset: 0xB3EF5, size: 0x8, addend: 0x0, symName: __ZNSt3__114basic_ofstreamIcNS_11char_traitsIcEEEC1EPKcj, symObjAddr: 0x3980, symBinAddr: 0x100015BA0, symSize: 0x16C }
  - { offsetInCU: 0x2FEAD, offset: 0xB3F3F, size: 0x8, addend: 0x0, symName: __ZNKSt3__19basic_iosIcNS_11char_traitsIcEEE4goodB8ue170006Ev, symObjAddr: 0x3AEC, symBinAddr: 0x100015D0C, symSize: 0x28 }
  - { offsetInCU: 0x2FED3, offset: 0xB3F65, size: 0x8, addend: 0x0, symName: __ZNSt3__19basic_iosIcNS_11char_traitsIcEEE5imbueB8ue170006ERKNS_6localeE, symObjAddr: 0x3B14, symBinAddr: 0x100015D34, symSize: 0x104 }
  - { offsetInCU: 0x2FF1A, offset: 0xB3FAC, size: 0x8, addend: 0x0, symName: __ZNSt3__114basic_ofstreamIcNS_11char_traitsIcEEE5closeEv, symObjAddr: 0x3E50, symBinAddr: 0x100016070, symSize: 0x58 }
  - { offsetInCU: 0x2FF47, offset: 0xB3FD9, size: 0x8, addend: 0x0, symName: __ZNSt3__114basic_ofstreamIcNS_11char_traitsIcEEED1Ev, symObjAddr: 0x3EA8, symBinAddr: 0x1000160C8, symSize: 0x40 }
  - { offsetInCU: 0x2FF74, offset: 0xB4006, size: 0x8, addend: 0x0, symName: __ZNSt3__112basic_stringIcNS_11char_traitsIcEENS_9allocatorIcEEE13__move_assignB8ue170006ERS5_NS_17integral_constantIbLb1EEE, symObjAddr: 0x3EE8, symBinAddr: 0x100016108, symSize: 0xC8 }
  - { offsetInCU: 0x2FFB7, offset: 0xB4049, size: 0x8, addend: 0x0, symName: __ZNSt3__116allocator_traitsINS_9allocatorIcEEE10deallocateB8ue170006ERS2_Pcm, symObjAddr: 0x3FE8, symBinAddr: 0x1000161D0, symSize: 0x34 }
  - { offsetInCU: 0x2FFF9, offset: 0xB408B, size: 0x8, addend: 0x0, symName: __ZNSt3__112basic_stringIcNS_11char_traitsIcEENS_9allocatorIcEEE19__move_assign_allocB8ue170006ERS5_, symObjAddr: 0x4098, symBinAddr: 0x100016204, symSize: 0x2C }
  - { offsetInCU: 0x3002E, offset: 0xB40C0, size: 0x8, addend: 0x0, symName: __ZNSt3__19allocatorIcE10deallocateB8ue170006EPcm, symObjAddr: 0x41E4, symBinAddr: 0x100016230, symSize: 0x40 }
  - { offsetInCU: 0x30070, offset: 0xB4102, size: 0x8, addend: 0x0, symName: __ZNSt3__112basic_stringIcNS_11char_traitsIcEENS_9allocatorIcEEE19__move_assign_allocB8ue170006ERS5_NS_17integral_constantIbLb1EEE, symObjAddr: 0x4390, symBinAddr: 0x100016270, symSize: 0x38 }
  - { offsetInCU: 0x300CF, offset: 0xB4161, size: 0x8, addend: 0x0, symName: __ZNSt3__14listINS_12basic_stringIcNS_11char_traitsIcEENS_9allocatorIcEEEENS4_IS6_EEEC1B8ue170006Ev, symObjAddr: 0x4F48, symBinAddr: 0x1000162A8, symSize: 0x2C }
  - { offsetInCU: 0x300F9, offset: 0xB418B, size: 0x8, addend: 0x0, symName: __ZNSt3__14listINS_12basic_stringIcNS_11char_traitsIcEENS_9allocatorIcEEEENS4_IS6_EEED1Ev, symObjAddr: 0x4F74, symBinAddr: 0x1000162D4, symSize: 0x2C }
  - { offsetInCU: 0x30126, offset: 0xB41B8, size: 0x8, addend: 0x0, symName: __ZNSt3__14listINS_12basic_stringIcNS_11char_traitsIcEENS_9allocatorIcEEEENS4_IS6_EEEC2B8ue170006Ev, symObjAddr: 0x4FA0, symBinAddr: 0x100016300, symSize: 0x2C }
  - { offsetInCU: 0x30150, offset: 0xB41E2, size: 0x8, addend: 0x0, symName: __ZNSt3__110__list_impINS_12basic_stringIcNS_11char_traitsIcEENS_9allocatorIcEEEENS4_IS6_EEEC2Ev, symObjAddr: 0x4FCC, symBinAddr: 0x10001632C, symSize: 0x50 }
  - { offsetInCU: 0x3017C, offset: 0xB420E, size: 0x8, addend: 0x0, symName: __ZNSt3__116__list_node_baseINS_12basic_stringIcNS_11char_traitsIcEENS_9allocatorIcEEEEPvEC1B8ue170006Ev, symObjAddr: 0x501C, symBinAddr: 0x10001637C, symSize: 0x2C }
  - { offsetInCU: 0x301AB, offset: 0xB423D, size: 0x8, addend: 0x0, symName: __ZNSt3__117__compressed_pairImNS_9allocatorINS_11__list_nodeINS_12basic_stringIcNS_11char_traitsIcEENS1_IcEEEEPvEEEEEC1B8ue170006IiNS_18__default_init_tagEEEOT_OT0_, symObjAddr: 0x5048, symBinAddr: 0x1000163A8, symSize: 0x3C }
  - { offsetInCU: 0x30203, offset: 0xB4295, size: 0x8, addend: 0x0, symName: __ZNSt3__116__list_node_baseINS_12basic_stringIcNS_11char_traitsIcEENS_9allocatorIcEEEEPvEC2B8ue170006Ev, symObjAddr: 0x5084, symBinAddr: 0x1000163E4, symSize: 0x4C }
  - { offsetInCU: 0x3022D, offset: 0xB42BF, size: 0x8, addend: 0x0, symName: __ZNSt3__126__list_node_pointer_traitsINS_12basic_stringIcNS_11char_traitsIcEENS_9allocatorIcEEEEPvE26__unsafe_link_pointer_castB8ue170006EPNS_16__list_node_baseIS6_S7_EE, symObjAddr: 0x50D0, symBinAddr: 0x100016430, symSize: 0x14 }
  - { offsetInCU: 0x30251, offset: 0xB42E3, size: 0x8, addend: 0x0, symName: __ZNSt3__116__list_node_baseINS_12basic_stringIcNS_11char_traitsIcEENS_9allocatorIcEEEEPvE6__selfB8ue170006Ev, symObjAddr: 0x50E4, symBinAddr: 0x100016444, symSize: 0x24 }
  - { offsetInCU: 0x3027C, offset: 0xB430E, size: 0x8, addend: 0x0, symName: __ZNSt3__114pointer_traitsIPNS_16__list_node_baseINS_12basic_stringIcNS_11char_traitsIcEENS_9allocatorIcEEEEPvEEE10pointer_toB8ue170006ERS9_, symObjAddr: 0x5108, symBinAddr: 0x100016468, symSize: 0x14 }
  - { offsetInCU: 0x3029F, offset: 0xB4331, size: 0x8, addend: 0x0, symName: __ZNSt3__117__compressed_pairImNS_9allocatorINS_11__list_nodeINS_12basic_stringIcNS_11char_traitsIcEENS1_IcEEEEPvEEEEEC2B8ue170006IiNS_18__default_init_tagEEEOT_OT0_, symObjAddr: 0x511C, symBinAddr: 0x10001647C, symSize: 0x40 }
  - { offsetInCU: 0x302F7, offset: 0xB4389, size: 0x8, addend: 0x0, symName: __ZNSt3__122__compressed_pair_elemINS_9allocatorINS_11__list_nodeINS_12basic_stringIcNS_11char_traitsIcEENS1_IcEEEEPvEEEELi1ELb1EEC2B8ue170006ENS_18__default_init_tagE, symObjAddr: 0x5180, symBinAddr: 0x1000164BC, symSize: 0x2C }
  - { offsetInCU: 0x3032C, offset: 0xB43BE, size: 0x8, addend: 0x0, symName: __ZNSt3__19allocatorINS_11__list_nodeINS_12basic_stringIcNS_11char_traitsIcEENS0_IcEEEEPvEEEC2B8ue170006Ev, symObjAddr: 0x51AC, symBinAddr: 0x1000164E8, symSize: 0x2C }
  - { offsetInCU: 0x30356, offset: 0xB43E8, size: 0x8, addend: 0x0, symName: __ZNSt3__116__non_trivial_ifILb1ENS_9allocatorINS_11__list_nodeINS_12basic_stringIcNS_11char_traitsIcEENS1_IcEEEEPvEEEEEC2B8ue170006Ev, symObjAddr: 0x51D8, symBinAddr: 0x100016514, symSize: 0x14 }
  - { offsetInCU: 0x30380, offset: 0xB4412, size: 0x8, addend: 0x0, symName: __ZNSt3__14listINS_12basic_stringIcNS_11char_traitsIcEENS_9allocatorIcEEEENS4_IS6_EEED2Ev, symObjAddr: 0x51EC, symBinAddr: 0x100016528, symSize: 0x2C }
  - { offsetInCU: 0x303AD, offset: 0xB443F, size: 0x8, addend: 0x0, symName: __ZNSt3__110__list_impINS_12basic_stringIcNS_11char_traitsIcEENS_9allocatorIcEEEENS4_IS6_EEED2Ev, symObjAddr: 0x5218, symBinAddr: 0x100016554, symSize: 0x2C }
  - { offsetInCU: 0x303D9, offset: 0xB446B, size: 0x8, addend: 0x0, symName: __ZNSt3__110__list_impINS_12basic_stringIcNS_11char_traitsIcEENS_9allocatorIcEEEENS4_IS6_EEE5clearEv, symObjAddr: 0x5244, symBinAddr: 0x100016580, symSize: 0xE0 }
  - { offsetInCU: 0x3044B, offset: 0xB44DD, size: 0x8, addend: 0x0, symName: __ZNKSt3__110__list_impINS_12basic_stringIcNS_11char_traitsIcEENS_9allocatorIcEEEENS4_IS6_EEE5emptyB8ue170006Ev, symObjAddr: 0x5324, symBinAddr: 0x100016660, symSize: 0x34 }
  - { offsetInCU: 0x30471, offset: 0xB4503, size: 0x8, addend: 0x0, symName: __ZNSt3__110__list_impINS_12basic_stringIcNS_11char_traitsIcEENS_9allocatorIcEEEENS4_IS6_EEE12__node_allocB8ue170006Ev, symObjAddr: 0x5358, symBinAddr: 0x100016694, symSize: 0x28 }
  - { offsetInCU: 0x30497, offset: 0xB4529, size: 0x8, addend: 0x0, symName: __ZNKSt3__110__list_impINS_12basic_stringIcNS_11char_traitsIcEENS_9allocatorIcEEEENS4_IS6_EEE13__end_as_linkB8ue170006Ev, symObjAddr: 0x5380, symBinAddr: 0x1000166BC, symSize: 0x28 }
  - { offsetInCU: 0x304BD, offset: 0xB454F, size: 0x8, addend: 0x0, symName: __ZNSt3__110__list_impINS_12basic_stringIcNS_11char_traitsIcEENS_9allocatorIcEEEENS4_IS6_EEE14__unlink_nodesEPNS_16__list_node_baseIS6_PvEESC_, symObjAddr: 0x53A8, symBinAddr: 0x1000166E4, symSize: 0x3C }
  - { offsetInCU: 0x304F2, offset: 0xB4584, size: 0x8, addend: 0x0, symName: __ZNSt3__110__list_impINS_12basic_stringIcNS_11char_traitsIcEENS_9allocatorIcEEEENS4_IS6_EEE4__szB8ue170006Ev, symObjAddr: 0x53E4, symBinAddr: 0x100016720, symSize: 0x28 }
  - { offsetInCU: 0x30518, offset: 0xB45AA, size: 0x8, addend: 0x0, symName: __ZNSt3__116__list_node_baseINS_12basic_stringIcNS_11char_traitsIcEENS_9allocatorIcEEEEPvE9__as_nodeB8ue170006Ev, symObjAddr: 0x540C, symBinAddr: 0x100016748, symSize: 0x24 }
  - { offsetInCU: 0x3053E, offset: 0xB45D0, size: 0x8, addend: 0x0, symName: __ZNSt3__116allocator_traitsINS_9allocatorINS_11__list_nodeINS_12basic_stringIcNS_11char_traitsIcEENS1_IcEEEEPvEEEEE7destroyB8ue170006IS7_vvEEvRSA_PT_, symObjAddr: 0x5430, symBinAddr: 0x10001676C, symSize: 0x28 }
  - { offsetInCU: 0x30579, offset: 0xB460B, size: 0x8, addend: 0x0, symName: __ZNSt3__116allocator_traitsINS_9allocatorINS_11__list_nodeINS_12basic_stringIcNS_11char_traitsIcEENS1_IcEEEEPvEEEEE10deallocateB8ue170006ERSA_PS9_m, symObjAddr: 0x5458, symBinAddr: 0x100016794, symSize: 0x34 }
  - { offsetInCU: 0x305BB, offset: 0xB464D, size: 0x8, addend: 0x0, symName: __ZNKSt3__110__list_impINS_12basic_stringIcNS_11char_traitsIcEENS_9allocatorIcEEEENS4_IS6_EEE4__szB8ue170006Ev, symObjAddr: 0x548C, symBinAddr: 0x1000167C8, symSize: 0x28 }
  - { offsetInCU: 0x305E1, offset: 0xB4673, size: 0x8, addend: 0x0, symName: __ZNKSt3__117__compressed_pairImNS_9allocatorINS_11__list_nodeINS_12basic_stringIcNS_11char_traitsIcEENS1_IcEEEEPvEEEEE5firstB8ue170006Ev, symObjAddr: 0x54B4, symBinAddr: 0x1000167F0, symSize: 0x24 }
  - { offsetInCU: 0x30607, offset: 0xB4699, size: 0x8, addend: 0x0, symName: __ZNKSt3__122__compressed_pair_elemImLi0ELb0EE5__getB8ue170006Ev, symObjAddr: 0x54D8, symBinAddr: 0x100016814, symSize: 0x14 }
  - { offsetInCU: 0x3062D, offset: 0xB46BF, size: 0x8, addend: 0x0, symName: __ZNSt3__117__compressed_pairImNS_9allocatorINS_11__list_nodeINS_12basic_stringIcNS_11char_traitsIcEENS1_IcEEEEPvEEEEE6secondB8ue170006Ev, symObjAddr: 0x54EC, symBinAddr: 0x100016828, symSize: 0x24 }
  - { offsetInCU: 0x30653, offset: 0xB46E5, size: 0x8, addend: 0x0, symName: __ZNSt3__122__compressed_pair_elemINS_9allocatorINS_11__list_nodeINS_12basic_stringIcNS_11char_traitsIcEENS1_IcEEEEPvEEEELi1ELb1EE5__getB8ue170006Ev, symObjAddr: 0x5510, symBinAddr: 0x10001684C, symSize: 0x14 }
  - { offsetInCU: 0x30679, offset: 0xB470B, size: 0x8, addend: 0x0, symName: __ZNSt3__117__compressed_pairImNS_9allocatorINS_11__list_nodeINS_12basic_stringIcNS_11char_traitsIcEENS1_IcEEEEPvEEEEE5firstB8ue170006Ev, symObjAddr: 0x5524, symBinAddr: 0x100016860, symSize: 0x24 }
  - { offsetInCU: 0x3069F, offset: 0xB4731, size: 0x8, addend: 0x0, symName: __ZNSt3__19allocatorINS_11__list_nodeINS_12basic_stringIcNS_11char_traitsIcEENS0_IcEEEEPvEEE10deallocateB8ue170006EPS8_m, symObjAddr: 0x555C, symBinAddr: 0x100016884, symSize: 0x44 }
  - { offsetInCU: 0x306E1, offset: 0xB4773, size: 0x8, addend: 0x0, symName: __ZNSt3__14listINS_12basic_stringIcNS_11char_traitsIcEENS_9allocatorIcEEEENS4_IS6_EEE15__allocate_nodeB8ue170006ERNS4_INS_11__list_nodeIS6_PvEEEE, symObjAddr: 0x55A0, symBinAddr: 0x1000168C8, symSize: 0x70 }
  - { offsetInCU: 0x30725, offset: 0xB47B7, size: 0x8, addend: 0x0, symName: __ZNSt3__116allocator_traitsINS_9allocatorINS_11__list_nodeINS_12basic_stringIcNS_11char_traitsIcEENS1_IcEEEEPvEEEEE9constructB8ue170006IS7_JRKS7_EvEEvRSA_PT_DpOT0_, symObjAddr: 0x5610, symBinAddr: 0x100016938, symSize: 0x34 }
  - { offsetInCU: 0x3077C, offset: 0xB480E, size: 0x8, addend: 0x0, symName: __ZNKSt3__110unique_ptrINS_11__list_nodeINS_12basic_stringIcNS_11char_traitsIcEENS_9allocatorIcEEEEPvEENS_22__allocator_destructorINS5_IS9_EEEEEptB8ue170006Ev, symObjAddr: 0x5644, symBinAddr: 0x10001696C, symSize: 0x28 }
  - { offsetInCU: 0x307A2, offset: 0xB4834, size: 0x8, addend: 0x0, symName: __ZNSt3__14listINS_12basic_stringIcNS_11char_traitsIcEENS_9allocatorIcEEEENS4_IS6_EEE20__link_nodes_at_backEPNS_16__list_node_baseIS6_PvEESC_, symObjAddr: 0x566C, symBinAddr: 0x100016994, symSize: 0x60 }
  - { offsetInCU: 0x307E8, offset: 0xB487A, size: 0x8, addend: 0x0, symName: __ZNKSt3__110unique_ptrINS_11__list_nodeINS_12basic_stringIcNS_11char_traitsIcEENS_9allocatorIcEEEEPvEENS_22__allocator_destructorINS5_IS9_EEEEE3getB8ue170006Ev, symObjAddr: 0x56CC, symBinAddr: 0x1000169F4, symSize: 0x28 }
  - { offsetInCU: 0x3080E, offset: 0xB48A0, size: 0x8, addend: 0x0, symName: __ZNSt3__111__list_nodeINS_12basic_stringIcNS_11char_traitsIcEENS_9allocatorIcEEEEPvE9__as_linkB8ue170006Ev, symObjAddr: 0x56F4, symBinAddr: 0x100016A1C, symSize: 0x24 }
  - { offsetInCU: 0x30834, offset: 0xB48C6, size: 0x8, addend: 0x0, symName: __ZNSt3__110unique_ptrINS_11__list_nodeINS_12basic_stringIcNS_11char_traitsIcEENS_9allocatorIcEEEEPvEENS_22__allocator_destructorINS5_IS9_EEEEE7releaseB8ue170006Ev, symObjAddr: 0x5718, symBinAddr: 0x100016A40, symSize: 0x44 }
  - { offsetInCU: 0x30869, offset: 0xB48FB, size: 0x8, addend: 0x0, symName: __ZNSt3__110unique_ptrINS_11__list_nodeINS_12basic_stringIcNS_11char_traitsIcEENS_9allocatorIcEEEEPvEENS_22__allocator_destructorINS5_IS9_EEEEED1B8ue170006Ev, symObjAddr: 0x575C, symBinAddr: 0x100016A84, symSize: 0x2C }
  - { offsetInCU: 0x30893, offset: 0xB4925, size: 0x8, addend: 0x0, symName: __ZNSt3__116allocator_traitsINS_9allocatorINS_11__list_nodeINS_12basic_stringIcNS_11char_traitsIcEENS1_IcEEEEPvEEEEE8allocateB8ue170006ERSA_m, symObjAddr: 0x5788, symBinAddr: 0x100016AB0, symSize: 0x2C }
  - { offsetInCU: 0x308C6, offset: 0xB4958, size: 0x8, addend: 0x0, symName: __ZNSt3__122__allocator_destructorINS_9allocatorINS_11__list_nodeINS_12basic_stringIcNS_11char_traitsIcEENS1_IcEEEEPvEEEEEC1B8ue170006ERSA_m, symObjAddr: 0x57B4, symBinAddr: 0x100016ADC, symSize: 0x3C }
  - { offsetInCU: 0x30911, offset: 0xB49A3, size: 0x8, addend: 0x0, symName: __ZNSt3__110unique_ptrINS_11__list_nodeINS_12basic_stringIcNS_11char_traitsIcEENS_9allocatorIcEEEEPvEENS_22__allocator_destructorINS5_IS9_EEEEEC1B8ue170006ILb1EvEEPS9_NS_16__dependent_typeINS_27__unique_ptr_deleter_sfinaeISC_EEXT_EE20__good_rval_ref_typeE, symObjAddr: 0x57F0, symBinAddr: 0x100016B18, symSize: 0x3C }
  - { offsetInCU: 0x30962, offset: 0xB49F4, size: 0x8, addend: 0x0, symName: __ZNSt3__19allocatorINS_11__list_nodeINS_12basic_stringIcNS_11char_traitsIcEENS0_IcEEEEPvEEE8allocateB8ue170006Em, symObjAddr: 0x582C, symBinAddr: 0x100016B54, symSize: 0x5C }
  - { offsetInCU: 0x309A0, offset: 0xB4A32, size: 0x8, addend: 0x0, symName: __ZNSt3__116allocator_traitsINS_9allocatorINS_11__list_nodeINS_12basic_stringIcNS_11char_traitsIcEENS1_IcEEEEPvEEEEE8max_sizeB8ue170006ISA_vEEmRKSA_, symObjAddr: 0x5888, symBinAddr: 0x100016BB0, symSize: 0x24 }
  - { offsetInCU: 0x309CE, offset: 0xB4A60, size: 0x8, addend: 0x0, symName: __ZNKSt3__19allocatorINS_11__list_nodeINS_12basic_stringIcNS_11char_traitsIcEENS0_IcEEEEPvEEE8max_sizeB8ue170006Ev, symObjAddr: 0x5940, symBinAddr: 0x100016BD4, symSize: 0x18 }
  - { offsetInCU: 0x309F4, offset: 0xB4A86, size: 0x8, addend: 0x0, symName: __ZNSt3__122__allocator_destructorINS_9allocatorINS_11__list_nodeINS_12basic_stringIcNS_11char_traitsIcEENS1_IcEEEEPvEEEEEC2B8ue170006ERSA_m, symObjAddr: 0x59A8, symBinAddr: 0x100016BEC, symSize: 0x2C }
  - { offsetInCU: 0x30A3A, offset: 0xB4ACC, size: 0x8, addend: 0x0, symName: __ZNSt3__110unique_ptrINS_11__list_nodeINS_12basic_stringIcNS_11char_traitsIcEENS_9allocatorIcEEEEPvEENS_22__allocator_destructorINS5_IS9_EEEEEC2B8ue170006ILb1EvEEPS9_NS_16__dependent_typeINS_27__unique_ptr_deleter_sfinaeISC_EEXT_EE20__good_rval_ref_typeE, symObjAddr: 0x59D4, symBinAddr: 0x100016C18, symSize: 0x48 }
  - { offsetInCU: 0x30A8B, offset: 0xB4B1D, size: 0x8, addend: 0x0, symName: __ZNSt3__117__compressed_pairIPNS_11__list_nodeINS_12basic_stringIcNS_11char_traitsIcEENS_9allocatorIcEEEEPvEENS_22__allocator_destructorINS5_IS9_EEEEEC1B8ue170006IRSA_SD_EEOT_OT0_, symObjAddr: 0x5A1C, symBinAddr: 0x100016C60, symSize: 0x3C }
  - { offsetInCU: 0x30AE3, offset: 0xB4B75, size: 0x8, addend: 0x0, symName: __ZNSt3__117__compressed_pairIPNS_11__list_nodeINS_12basic_stringIcNS_11char_traitsIcEENS_9allocatorIcEEEEPvEENS_22__allocator_destructorINS5_IS9_EEEEEC2B8ue170006IRSA_SD_EEOT_OT0_, symObjAddr: 0x5A58, symBinAddr: 0x100016C9C, symSize: 0x48 }
  - { offsetInCU: 0x30B3B, offset: 0xB4BCD, size: 0x8, addend: 0x0, symName: __ZNSt3__122__compressed_pair_elemIPNS_11__list_nodeINS_12basic_stringIcNS_11char_traitsIcEENS_9allocatorIcEEEEPvEELi0ELb0EEC2B8ue170006IRSA_vEEOT_, symObjAddr: 0x5AA0, symBinAddr: 0x100016CE4, symSize: 0x24 }
  - { offsetInCU: 0x30B7D, offset: 0xB4C0F, size: 0x8, addend: 0x0, symName: __ZNSt3__122__compressed_pair_elemINS_22__allocator_destructorINS_9allocatorINS_11__list_nodeINS_12basic_stringIcNS_11char_traitsIcEENS2_IcEEEEPvEEEEEELi1ELb0EEC2B8ue170006ISC_vEEOT_, symObjAddr: 0x5AC4, symBinAddr: 0x100016D08, symSize: 0x24 }
  - { offsetInCU: 0x30BBF, offset: 0xB4C51, size: 0x8, addend: 0x0, symName: __ZNSt3__19allocatorINS_11__list_nodeINS_12basic_stringIcNS_11char_traitsIcEENS0_IcEEEEPvEEE9constructB8ue170006IS6_JRKS6_EEEvPT_DpOT0_, symObjAddr: 0x5AE8, symBinAddr: 0x100016D2C, symSize: 0x30 }
  - { offsetInCU: 0x30C15, offset: 0xB4CA7, size: 0x8, addend: 0x0, symName: __ZNKSt3__117__compressed_pairIPNS_11__list_nodeINS_12basic_stringIcNS_11char_traitsIcEENS_9allocatorIcEEEEPvEENS_22__allocator_destructorINS5_IS9_EEEEE5firstB8ue170006Ev, symObjAddr: 0x5B18, symBinAddr: 0x100016D5C, symSize: 0x24 }
  - { offsetInCU: 0x30C3B, offset: 0xB4CCD, size: 0x8, addend: 0x0, symName: __ZNKSt3__122__compressed_pair_elemIPNS_11__list_nodeINS_12basic_stringIcNS_11char_traitsIcEENS_9allocatorIcEEEEPvEELi0ELb0EE5__getB8ue170006Ev, symObjAddr: 0x5B3C, symBinAddr: 0x100016D80, symSize: 0x14 }
  - { offsetInCU: 0x30C61, offset: 0xB4CF3, size: 0x8, addend: 0x0, symName: __ZNSt3__117__compressed_pairIPNS_11__list_nodeINS_12basic_stringIcNS_11char_traitsIcEENS_9allocatorIcEEEEPvEENS_22__allocator_destructorINS5_IS9_EEEEE5firstB8ue170006Ev, symObjAddr: 0x5B50, symBinAddr: 0x100016D94, symSize: 0x24 }
  - { offsetInCU: 0x30C87, offset: 0xB4D19, size: 0x8, addend: 0x0, symName: __ZNSt3__122__compressed_pair_elemIPNS_11__list_nodeINS_12basic_stringIcNS_11char_traitsIcEENS_9allocatorIcEEEEPvEELi0ELb0EE5__getB8ue170006Ev, symObjAddr: 0x5B74, symBinAddr: 0x100016DB8, symSize: 0x14 }
  - { offsetInCU: 0x30CAD, offset: 0xB4D3F, size: 0x8, addend: 0x0, symName: __ZNSt3__110unique_ptrINS_11__list_nodeINS_12basic_stringIcNS_11char_traitsIcEENS_9allocatorIcEEEEPvEENS_22__allocator_destructorINS5_IS9_EEEEED2B8ue170006Ev, symObjAddr: 0x5B88, symBinAddr: 0x100016DCC, symSize: 0x30 }
  - { offsetInCU: 0x30CD7, offset: 0xB4D69, size: 0x8, addend: 0x0, symName: __ZNSt3__110unique_ptrINS_11__list_nodeINS_12basic_stringIcNS_11char_traitsIcEENS_9allocatorIcEEEEPvEENS_22__allocator_destructorINS5_IS9_EEEEE5resetB8ue170006EPS9_, symObjAddr: 0x5BB8, symBinAddr: 0x100016DFC, symSize: 0x78 }
  - { offsetInCU: 0x30D1B, offset: 0xB4DAD, size: 0x8, addend: 0x0, symName: __ZNSt3__117__compressed_pairIPNS_11__list_nodeINS_12basic_stringIcNS_11char_traitsIcEENS_9allocatorIcEEEEPvEENS_22__allocator_destructorINS5_IS9_EEEEE6secondB8ue170006Ev, symObjAddr: 0x5C30, symBinAddr: 0x100016E74, symSize: 0x28 }
  - { offsetInCU: 0x30D41, offset: 0xB4DD3, size: 0x8, addend: 0x0, symName: __ZNSt3__122__allocator_destructorINS_9allocatorINS_11__list_nodeINS_12basic_stringIcNS_11char_traitsIcEENS1_IcEEEEPvEEEEEclB8ue170006EPS9_, symObjAddr: 0x5C58, symBinAddr: 0x100016E9C, symSize: 0x34 }
  - { offsetInCU: 0x30D75, offset: 0xB4E07, size: 0x8, addend: 0x0, symName: __ZNSt3__122__compressed_pair_elemINS_22__allocator_destructorINS_9allocatorINS_11__list_nodeINS_12basic_stringIcNS_11char_traitsIcEENS2_IcEEEEPvEEEEEELi1ELb0EE5__getB8ue170006Ev, symObjAddr: 0x5C8C, symBinAddr: 0x100016ED0, symSize: 0x14 }
  - { offsetInCU: 0x30D9B, offset: 0xB4E2D, size: 0x8, addend: 0x0, symName: __ZNSt3__112basic_stringIcNS_11char_traitsIcEENS_9allocatorIcEEE6appendB8ue170006ERKS5_, symObjAddr: 0x5D30, symBinAddr: 0x100016F74, symSize: 0x4C }
  - { offsetInCU: 0x30DD0, offset: 0xB4E62, size: 0x8, addend: 0x0, symName: __ZNSt3__14listINS_12basic_stringIcNS_11char_traitsIcEENS_9allocatorIcEEEENS4_IS6_EEE4backB8ue170006Ev, symObjAddr: 0x5D7C, symBinAddr: 0x100016FC0, symSize: 0x2C }
  - { offsetInCU: 0x30DF6, offset: 0xB4E88, size: 0x8, addend: 0x0, symName: __ZNKSt3__112basic_stringIcNS_11char_traitsIcEENS_9allocatorIcEEE13find_first_ofB8ue170006Ecm, symObjAddr: 0x5DA8, symBinAddr: 0x100016FEC, symSize: 0x34 }
  - { offsetInCU: 0x30E3C, offset: 0xB4ECE, size: 0x8, addend: 0x0, symName: __ZNSt3__19basic_iosIcNS_11char_traitsIcEEEC2B8ue170006Ev, symObjAddr: 0x5DDC, symBinAddr: 0x100017020, symSize: 0x44 }
  - { offsetInCU: 0x30E66, offset: 0xB4EF8, size: 0x8, addend: 0x0, symName: __ZNSt3__113basic_ostreamIcNS_11char_traitsIcEEEC2B8ue170006EPNS_15basic_streambufIcS2_EE, symObjAddr: 0x5E20, symBinAddr: 0x100017064, symSize: 0x60 }
  - { offsetInCU: 0x30EAB, offset: 0xB4F3D, size: 0x8, addend: 0x0, symName: __ZNSt3__18ios_baseC2B8ue170006Ev, symObjAddr: 0x5E80, symBinAddr: 0x1000170C4, symSize: 0x24 }
  - { offsetInCU: 0x30ED5, offset: 0xB4F67, size: 0x8, addend: 0x0, symName: __ZNSt3__19basic_iosIcNS_11char_traitsIcEEE4initB8ue170006EPNS_15basic_streambufIcS2_EE, symObjAddr: 0x5EA4, symBinAddr: 0x1000170E8, symSize: 0x44 }
  - { offsetInCU: 0x30F0C, offset: 0xB4F9E, size: 0x8, addend: 0x0, symName: __ZNKSt3__18ios_base4goodB8ue170006Ev, symObjAddr: 0x5EE8, symBinAddr: 0x10001712C, symSize: 0x24 }
  - { offsetInCU: 0x30F34, offset: 0xB4FC6, size: 0x8, addend: 0x0, symName: __ZNSt3__115basic_streambufIcNS_11char_traitsIcEEE8pubimbueB8ue170006ERKNS_6localeE, symObjAddr: 0x5F0C, symBinAddr: 0x100017150, symSize: 0xA0 }
  - { offsetInCU: 0x30F7D, offset: 0xB500F, size: 0x8, addend: 0x0, symName: __ZNSt3__19__iom_t10IcEC1B8ue170006EPK2tmPKc, symObjAddr: 0x6030, symBinAddr: 0x10001721C, symSize: 0x3C }
  - { offsetInCU: 0x30FC5, offset: 0xB5057, size: 0x8, addend: 0x0, symName: __ZNSt3__19__iom_t10IcEC2B8ue170006EPK2tmPKc, symObjAddr: 0x606C, symBinAddr: 0x100017258, symSize: 0x2C }
  - { offsetInCU: 0x3100D, offset: 0xB509F, size: 0x8, addend: 0x0, symName: __ZNSt3__114basic_ofstreamIcNS_11char_traitsIcEEED2Ev, symObjAddr: 0x6098, symBinAddr: 0x100017284, symSize: 0x64 }
  - { offsetInCU: 0x31047, offset: 0xB50D9, size: 0x8, addend: 0x0, symName: __ZTv0_n24_NSt3__114basic_ofstreamIcNS_11char_traitsIcEEED1Ev, symObjAddr: 0x60FC, symBinAddr: 0x1000172E8, symSize: 0x28 }
  - { offsetInCU: 0x3105E, offset: 0xB50F0, size: 0x8, addend: 0x0, symName: __ZZN3tmxL11getFilePathERKNSt3__112basic_stringIcNS0_11char_traitsIcEENS0_9allocatorIcEEEEENKUlcS8_E_clEcS8_, symObjAddr: 0x6124, symBinAddr: 0x100017310, symSize: 0x9C }
  - { offsetInCU: 0x310B3, offset: 0xB5145, size: 0x8, addend: 0x0, symName: __ZNKSt3__112basic_stringIcNS_11char_traitsIcEENS_9allocatorIcEEE12find_last_ofB8ue170006Ecm, symObjAddr: 0x61E4, symBinAddr: 0x1000173AC, symSize: 0x34 }
  - { offsetInCU: 0x311BE, offset: 0xB5250, size: 0x8, addend: 0x0, symName: __ZNSt3__118basic_stringstreamIcNS_11char_traitsIcEENS_9allocatorIcEEEC1B8ue170006ERKNS_12basic_stringIcS2_S4_EEj, symObjAddr: 0x6218, symBinAddr: 0x1000173E0, symSize: 0x110 }
  - { offsetInCU: 0x31206, offset: 0xB5298, size: 0x8, addend: 0x0, symName: __ZNSt3__113basic_istreamIcNS_11char_traitsIcEEErsB8ue170006EPFRNS_8ios_baseES5_E, symObjAddr: 0x6328, symBinAddr: 0x1000174F0, symSize: 0x40 }
  - { offsetInCU: 0x3123F, offset: 0xB52D1, size: 0x8, addend: 0x0, symName: __ZNSt3__118basic_stringstreamIcNS_11char_traitsIcEENS_9allocatorIcEEED1Ev, symObjAddr: 0x6398, symBinAddr: 0x100017560, symSize: 0x40 }
  - { offsetInCU: 0x3126C, offset: 0xB52FE, size: 0x8, addend: 0x0, symName: __ZNSt3__114basic_iostreamIcNS_11char_traitsIcEEEC2B8ue170006EPNS_15basic_streambufIcS2_EE, symObjAddr: 0x63D8, symBinAddr: 0x1000175A0, symSize: 0xAC }
  - { offsetInCU: 0x312B2, offset: 0xB5344, size: 0x8, addend: 0x0, symName: __ZNSt3__115basic_stringbufIcNS_11char_traitsIcEENS_9allocatorIcEEEC1B8ue170006ERKNS_12basic_stringIcS2_S4_EEj, symObjAddr: 0x6484, symBinAddr: 0x10001764C, symSize: 0x3C }
  - { offsetInCU: 0x312FA, offset: 0xB538C, size: 0x8, addend: 0x0, symName: __ZNSt3__113basic_istreamIcNS_11char_traitsIcEEEC2B8ue170006EPNS_15basic_streambufIcS2_EE, symObjAddr: 0x64C0, symBinAddr: 0x100017688, symSize: 0x64 }
  - { offsetInCU: 0x3133F, offset: 0xB53D1, size: 0x8, addend: 0x0, symName: __ZNSt3__113basic_ostreamIcNS_11char_traitsIcEEEC2B8ue170006Ev, symObjAddr: 0x6524, symBinAddr: 0x1000176EC, symSize: 0x34 }
  - { offsetInCU: 0x31376, offset: 0xB5408, size: 0x8, addend: 0x0, symName: __ZNSt3__115basic_stringbufIcNS_11char_traitsIcEENS_9allocatorIcEEEC2B8ue170006ERKNS_12basic_stringIcS2_S4_EEj, symObjAddr: 0x6558, symBinAddr: 0x100017720, symSize: 0xB4 }
  - { offsetInCU: 0x313BE, offset: 0xB5450, size: 0x8, addend: 0x0, symName: __ZNKSt3__112basic_stringIcNS_11char_traitsIcEENS_9allocatorIcEEE13get_allocatorB8ue170006Ev, symObjAddr: 0x660C, symBinAddr: 0x1000177D4, symSize: 0x24 }
  - { offsetInCU: 0x313E4, offset: 0xB5476, size: 0x8, addend: 0x0, symName: __ZNSt3__112basic_stringIcNS_11char_traitsIcEENS_9allocatorIcEEEC1B8ue170006ERKS4_, symObjAddr: 0x6630, symBinAddr: 0x1000177F8, symSize: 0x34 }
  - { offsetInCU: 0x3141D, offset: 0xB54AF, size: 0x8, addend: 0x0, symName: __ZNSt3__112basic_stringIcNS_11char_traitsIcEENS_9allocatorIcEEEC2B8ue170006ERKS4_, symObjAddr: 0x66C0, symBinAddr: 0x10001782C, symSize: 0x4C }
  - { offsetInCU: 0x31456, offset: 0xB54E8, size: 0x8, addend: 0x0, symName: __ZNSt3__18ios_base4setfB8ue170006Ejj, symObjAddr: 0x67E0, symBinAddr: 0x100017878, symSize: 0x5C }
  - { offsetInCU: 0x314AB, offset: 0xB553D, size: 0x8, addend: 0x0, symName: __ZNSt3__18ios_base6unsetfB8ue170006Ej, symObjAddr: 0x683C, symBinAddr: 0x1000178D4, symSize: 0x28 }
  - { offsetInCU: 0x314E2, offset: 0xB5574, size: 0x8, addend: 0x0, symName: __ZNSt3__118basic_stringstreamIcNS_11char_traitsIcEENS_9allocatorIcEEED2Ev, symObjAddr: 0x6864, symBinAddr: 0x1000178FC, symSize: 0x6C }
  - { offsetInCU: 0x3151C, offset: 0xB55AE, size: 0x8, addend: 0x0, symName: __ZThn16_NSt3__118basic_stringstreamIcNS_11char_traitsIcEENS_9allocatorIcEEED1Ev, symObjAddr: 0x68D0, symBinAddr: 0x100017968, symSize: 0x1C }
  - { offsetInCU: 0x31533, offset: 0xB55C5, size: 0x8, addend: 0x0, symName: __ZTv0_n24_NSt3__118basic_stringstreamIcNS_11char_traitsIcEENS_9allocatorIcEEED1Ev, symObjAddr: 0x68EC, symBinAddr: 0x100017984, symSize: 0x28 }
  - { offsetInCU: 0x3154F, offset: 0xB55E1, size: 0x8, addend: 0x0, symName: __ZNSt3__115basic_stringbufIcNS_11char_traitsIcEENS_9allocatorIcEEED1Ev, symObjAddr: 0x6914, symBinAddr: 0x1000179AC, symSize: 0x2C }
  - { offsetInCU: 0x3157C, offset: 0xB560E, size: 0x8, addend: 0x0, symName: __ZNSt3__115basic_stringbufIcNS_11char_traitsIcEENS_9allocatorIcEEED2Ev, symObjAddr: 0x6940, symBinAddr: 0x1000179D8, symSize: 0x48 }
  - { offsetInCU: 0x315A9, offset: 0xB563B, size: 0x8, addend: 0x0, symName: __ZNKSt3__111__wrap_iterIPN3tmx7TilesetEE4baseB8ue170006Ev, symObjAddr: 0x69D0, symBinAddr: 0x100017A68, symSize: 0x18 }
  - { offsetInCU: 0x315CF, offset: 0xB5661, size: 0x8, addend: 0x0, symName: __ZNKSt3__111__wrap_iterIPKN3tmx7Tileset4TileEE4baseB8ue170006Ev, symObjAddr: 0x6A30, symBinAddr: 0x100017AC8, symSize: 0x18 }
  - { offsetInCU: 0x31609, offset: 0xB569B, size: 0x8, addend: 0x0, symName: __ZN3tmx7Tileset4Tile9AnimationaSERKS2_, symObjAddr: 0x6A48, symBinAddr: 0x100017AE0, symSize: 0x34 }
  - { offsetInCU: 0x3163A, offset: 0xB56CC, size: 0x8, addend: 0x0, symName: __ZNSt3__16vectorIN3tmx8PropertyENS_9allocatorIS2_EEEaSB8ue170006ERKS5_, symObjAddr: 0x6A7C, symBinAddr: 0x100017B14, symSize: 0x68 }
  - { offsetInCU: 0x31676, offset: 0xB5708, size: 0x8, addend: 0x0, symName: __ZN3tmx11ObjectGroupaSERKS0_, symObjAddr: 0x6AE4, symBinAddr: 0x100017B7C, symSize: 0x68 }
  - { offsetInCU: 0x316A7, offset: 0xB5739, size: 0x8, addend: 0x0, symName: __ZNSt3__16vectorIN3tmx7Tileset4Tile9Animation5FrameENS_9allocatorIS5_EEEaSB8ue170006ERKS8_, symObjAddr: 0x6B4C, symBinAddr: 0x100017BE4, symSize: 0x68 }
  - { offsetInCU: 0x316DE, offset: 0xB5770, size: 0x8, addend: 0x0, symName: __ZNSt3__16vectorIN3tmx7Tileset4Tile9Animation5FrameENS_9allocatorIS5_EEE19__copy_assign_allocB8ue170006ERKS8_, symObjAddr: 0x6BB4, symBinAddr: 0x100017C4C, symSize: 0x2C }
  - { offsetInCU: 0x31713, offset: 0xB57A5, size: 0x8, addend: 0x0, symName: __ZNSt3__16vectorIN3tmx7Tileset4Tile9Animation5FrameENS_9allocatorIS5_EEE6assignIPS5_Li0EEEvT_SB_, symObjAddr: 0x6BE0, symBinAddr: 0x100017C78, symSize: 0x5C }
  - { offsetInCU: 0x31769, offset: 0xB57FB, size: 0x8, addend: 0x0, symName: __ZNSt3__16vectorIN3tmx7Tileset4Tile9Animation5FrameENS_9allocatorIS5_EEE19__copy_assign_allocB8ue170006ERKS8_NS_17integral_constantIbLb0EEE, symObjAddr: 0x6C3C, symBinAddr: 0x100017CD4, symSize: 0x14 }
  - { offsetInCU: 0x317A7, offset: 0xB5839, size: 0x8, addend: 0x0, symName: __ZNSt3__16vectorIN3tmx7Tileset4Tile9Animation5FrameENS_9allocatorIS5_EEE18__assign_with_sizeB8ue170006IPS5_SA_EEvT_T0_l, symObjAddr: 0x6C50, symBinAddr: 0x100017CE8, symSize: 0x164 }
  - { offsetInCU: 0x31857, offset: 0xB58E9, size: 0x8, addend: 0x0, symName: __ZNSt3__16vectorIN3tmx7Tileset4Tile9Animation5FrameENS_9allocatorIS5_EEE18__construct_at_endIPS5_SA_EEvT_T0_m, symObjAddr: 0x6EBC, symBinAddr: 0x100017EEC, symSize: 0x8C }
  - { offsetInCU: 0x318CD, offset: 0xB595F, size: 0x8, addend: 0x0, symName: __ZNSt3__16vectorIN3tmx7Tileset4Tile9Animation5FrameENS_9allocatorIS5_EEE17__destruct_at_endB8ue170006EPS5_, symObjAddr: 0x6F8C, symBinAddr: 0x100017FBC, symSize: 0x4C }
  - { offsetInCU: 0x31911, offset: 0xB59A3, size: 0x8, addend: 0x0, symName: __ZNSt3__16vectorIN3tmx7Tileset4Tile9Animation5FrameENS_9allocatorIS5_EEE13__vdeallocateEv, symObjAddr: 0x6FD8, symBinAddr: 0x100018008, symSize: 0x94 }
  - { offsetInCU: 0x31939, offset: 0xB59CB, size: 0x8, addend: 0x0, symName: __ZNSt3__16vectorIN3tmx7Tileset4Tile9Animation5FrameENS_9allocatorIS5_EEE11__vallocateB8ue170006Em, symObjAddr: 0x706C, symBinAddr: 0x10001809C, symSize: 0xAC }
  - { offsetInCU: 0x3197D, offset: 0xB5A0F, size: 0x8, addend: 0x0, symName: __ZNKSt3__16vectorIN3tmx7Tileset4Tile9Animation5FrameENS_9allocatorIS5_EEE11__recommendB8ue170006Em, symObjAddr: 0x7118, symBinAddr: 0x100018148, symSize: 0xB4 }
  - { offsetInCU: 0x319EB, offset: 0xB5A7D, size: 0x8, addend: 0x0, symName: __ZNSt3__16vectorIN3tmx7Tileset4Tile9Animation5FrameENS_9allocatorIS5_EEE21_ConstructTransactionC1B8ue170006ERS8_m, symObjAddr: 0x72A0, symBinAddr: 0x100018270, symSize: 0x3C }
  - { offsetInCU: 0x31A33, offset: 0xB5AC5, size: 0x8, addend: 0x0, symName: __ZNSt3__16vectorIN3tmx7Tileset4Tile9Animation5FrameENS_9allocatorIS5_EEE21_ConstructTransactionD1B8ue170006Ev, symObjAddr: 0x7384, symBinAddr: 0x10001832C, symSize: 0x2C }
  - { offsetInCU: 0x31A5D, offset: 0xB5AEF, size: 0x8, addend: 0x0, symName: __ZNSt3__16vectorIN3tmx7Tileset4Tile9Animation5FrameENS_9allocatorIS5_EEE21_ConstructTransactionC2B8ue170006ERS8_m, symObjAddr: 0x73B0, symBinAddr: 0x100018358, symSize: 0x44 }
  - { offsetInCU: 0x31AC3, offset: 0xB5B55, size: 0x8, addend: 0x0, symName: __ZNSt3__14pairIPN3tmx7Tileset4Tile9Animation5FrameES6_EC1B8ue170006IS6_S6_LPv0EEEOT_OT0_, symObjAddr: 0x7524, symBinAddr: 0x1000184CC, symSize: 0x3C }
  - { offsetInCU: 0x31B22, offset: 0xB5BB4, size: 0x8, addend: 0x0, symName: __ZNSt3__14pairIPN3tmx7Tileset4Tile9Animation5FrameES6_EC2B8ue170006IS6_S6_LPv0EEEOT_OT0_, symObjAddr: 0x7560, symBinAddr: 0x100018508, symSize: 0x34 }
  - { offsetInCU: 0x31B81, offset: 0xB5C13, size: 0x8, addend: 0x0, symName: __ZNSt3__118__unwrap_iter_implIPN3tmx7Tileset4Tile9Animation5FrameELb1EE8__unwrapB8ue170006ES6_, symObjAddr: 0x7594, symBinAddr: 0x10001853C, symSize: 0x24 }
  - { offsetInCU: 0x31BA4, offset: 0xB5C36, size: 0x8, addend: 0x0, symName: __ZNSt3__118__unwrap_iter_implIPN3tmx7Tileset4Tile9Animation5FrameELb1EE8__rewrapB8ue170006ES6_S6_, symObjAddr: 0x75CC, symBinAddr: 0x100018560, symSize: 0x50 }
  - { offsetInCU: 0x31BD5, offset: 0xB5C67, size: 0x8, addend: 0x0, symName: __ZNSt3__16vectorIN3tmx7Tileset4Tile9Animation5FrameENS_9allocatorIS5_EEE21_ConstructTransactionD2B8ue170006Ev, symObjAddr: 0x7654, symBinAddr: 0x1000185B0, symSize: 0x20 }
  - { offsetInCU: 0x31C09, offset: 0xB5C9B, size: 0x8, addend: 0x0, symName: __ZNKSt3__114__copy_trivialclB8ue170006IN3tmx7Tileset4Tile9Animation5FrameES6_Li0EEENS_4pairIPT_PT0_EES9_S9_SB_, symObjAddr: 0x776C, symBinAddr: 0x1000186C8, symSize: 0x48 }
  - { offsetInCU: 0x31C72, offset: 0xB5D04, size: 0x8, addend: 0x0, symName: __ZNSt3__14pairIPN3tmx7Tileset4Tile9Animation5FrameES6_EC1B8ue170006IRS6_S6_LPv0EEEOT_OT0_, symObjAddr: 0x78FC, symBinAddr: 0x100018858, symSize: 0x3C }
  - { offsetInCU: 0x31CD1, offset: 0xB5D63, size: 0x8, addend: 0x0, symName: __ZNSt3__14pairIPN3tmx7Tileset4Tile9Animation5FrameES6_EC2B8ue170006IRS6_S6_LPv0EEEOT_OT0_, symObjAddr: 0x7938, symBinAddr: 0x100018894, symSize: 0x34 }
  - { offsetInCU: 0x31D30, offset: 0xB5DC2, size: 0x8, addend: 0x0, symName: __ZNKSt3__16vectorIN3tmx7Tileset4Tile9Animation5FrameENS_9allocatorIS5_EEE17__annotate_shrinkB8ue170006Em, symObjAddr: 0x79F8, symBinAddr: 0x1000188C8, symSize: 0xB4 }
  - { offsetInCU: 0x31D65, offset: 0xB5DF7, size: 0x8, addend: 0x0, symName: __ZNSt3__16vectorIN3tmx7Tileset4Tile9Animation5FrameENS_9allocatorIS5_EEE5clearB8ue170006Ev, symObjAddr: 0x7B34, symBinAddr: 0x10001897C, symSize: 0x44 }
  - { offsetInCU: 0x31D9A, offset: 0xB5E2C, size: 0x8, addend: 0x0, symName: __ZNSt3__16vectorIN3tmx7Tileset4Tile9Animation5FrameENS_9allocatorIS5_EEE9__end_capB8ue170006Ev, symObjAddr: 0x7C64, symBinAddr: 0x1000189C0, symSize: 0x28 }
  - { offsetInCU: 0x31DC0, offset: 0xB5E52, size: 0x8, addend: 0x0, symName: __ZNSt3__117__compressed_pairIPN3tmx7Tileset4Tile9Animation5FrameENS_9allocatorIS5_EEE5firstB8ue170006Ev, symObjAddr: 0x7CF4, symBinAddr: 0x1000189E8, symSize: 0x24 }
  - { offsetInCU: 0x31DE6, offset: 0xB5E78, size: 0x8, addend: 0x0, symName: __ZNSt3__122__compressed_pair_elemIPN3tmx7Tileset4Tile9Animation5FrameELi0ELb0EE5__getB8ue170006Ev, symObjAddr: 0x7D18, symBinAddr: 0x100018A0C, symSize: 0x14 }
  - { offsetInCU: 0x31E0C, offset: 0xB5E9E, size: 0x8, addend: 0x0, symName: __ZNKSt3__16vectorIN3tmx7Tileset4Tile9Animation5FrameENS_9allocatorIS5_EEE8max_sizeEv, symObjAddr: 0x7D2C, symBinAddr: 0x100018A20, symSize: 0x60 }
  - { offsetInCU: 0x31E34, offset: 0xB5EC6, size: 0x8, addend: 0x0, symName: __ZNKSt3__16vectorIN3tmx7Tileset4Tile9Animation5FrameENS_9allocatorIS5_EEE20__throw_length_errorB8ue170006Ev, symObjAddr: 0x7D8C, symBinAddr: 0x100018A80, symSize: 0x1C }
  - { offsetInCU: 0x31E5A, offset: 0xB5EEC, size: 0x8, addend: 0x0, symName: __ZNKSt3__16vectorIN3tmx7Tileset4Tile9Animation5FrameENS_9allocatorIS5_EEE14__annotate_newB8ue170006Em, symObjAddr: 0x7DE8, symBinAddr: 0x100018ADC, symSize: 0xAC }
  - { offsetInCU: 0x31E99, offset: 0xB5F2B, size: 0x8, addend: 0x0, symName: __ZNSt3__116allocator_traitsINS_9allocatorIN3tmx7Tileset4Tile9Animation5FrameEEEE8max_sizeB8ue170006IS7_vEEmRKS7_, symObjAddr: 0x7EC0, symBinAddr: 0x100018B88, symSize: 0x24 }
  - { offsetInCU: 0x31EC7, offset: 0xB5F59, size: 0x8, addend: 0x0, symName: __ZNKSt3__16vectorIN3tmx7Tileset4Tile9Animation5FrameENS_9allocatorIS5_EEE7__allocB8ue170006Ev, symObjAddr: 0x7EE4, symBinAddr: 0x100018BAC, symSize: 0x28 }
  - { offsetInCU: 0x31EED, offset: 0xB5F7F, size: 0x8, addend: 0x0, symName: __ZNKSt3__19allocatorIN3tmx7Tileset4Tile9Animation5FrameEE8max_sizeB8ue170006Ev, symObjAddr: 0x7FA8, symBinAddr: 0x100018BD4, symSize: 0x14 }
  - { offsetInCU: 0x31F13, offset: 0xB5FA5, size: 0x8, addend: 0x0, symName: __ZNKSt3__117__compressed_pairIPN3tmx7Tileset4Tile9Animation5FrameENS_9allocatorIS5_EEE6secondB8ue170006Ev, symObjAddr: 0x7FBC, symBinAddr: 0x100018BE8, symSize: 0x24 }
  - { offsetInCU: 0x31F39, offset: 0xB5FCB, size: 0x8, addend: 0x0, symName: __ZNKSt3__122__compressed_pair_elemINS_9allocatorIN3tmx7Tileset4Tile9Animation5FrameEEELi1ELb1EE5__getB8ue170006Ev, symObjAddr: 0x7FE0, symBinAddr: 0x100018C0C, symSize: 0x14 }
  - { offsetInCU: 0x31F5F, offset: 0xB5FF1, size: 0x8, addend: 0x0, symName: __ZNSt3__19allocatorIN3tmx7Tileset4Tile9Animation5FrameEE8allocateB8ue170006Em, symObjAddr: 0x80E0, symBinAddr: 0x100018C20, symSize: 0x58 }
  - { offsetInCU: 0x31F93, offset: 0xB6025, size: 0x8, addend: 0x0, symName: __ZNSt3__16vectorIN3tmx8PropertyENS_9allocatorIS2_EEE19__copy_assign_allocB8ue170006ERKS5_, symObjAddr: 0x81E0, symBinAddr: 0x100018CA0, symSize: 0x2C }
  - { offsetInCU: 0x31FC8, offset: 0xB605A, size: 0x8, addend: 0x0, symName: __ZNSt3__16vectorIN3tmx8PropertyENS_9allocatorIS2_EEE6assignIPS2_Li0EEEvT_S8_, symObjAddr: 0x820C, symBinAddr: 0x100018CCC, symSize: 0x5C }
  - { offsetInCU: 0x3201E, offset: 0xB60B0, size: 0x8, addend: 0x0, symName: __ZNSt3__16vectorIN3tmx8PropertyENS_9allocatorIS2_EEE19__copy_assign_allocB8ue170006ERKS5_NS_17integral_constantIbLb0EEE, symObjAddr: 0x8268, symBinAddr: 0x100018D28, symSize: 0x14 }
  - { offsetInCU: 0x3205C, offset: 0xB60EE, size: 0x8, addend: 0x0, symName: __ZNSt3__16vectorIN3tmx8PropertyENS_9allocatorIS2_EEE18__assign_with_sizeB8ue170006IPS2_S7_EEvT_T0_l, symObjAddr: 0x827C, symBinAddr: 0x100018D3C, symSize: 0x164 }
  - { offsetInCU: 0x3210C, offset: 0xB619E, size: 0x8, addend: 0x0, symName: __ZNSt3__16vectorIN3tmx8PropertyENS_9allocatorIS2_EEE18__construct_at_endIPS2_S7_EEvT_T0_m, symObjAddr: 0x84E8, symBinAddr: 0x100018F40, symSize: 0x8C }
  - { offsetInCU: 0x32182, offset: 0xB6214, size: 0x8, addend: 0x0, symName: __ZNSt3__16vectorIN3tmx8PropertyENS_9allocatorIS2_EEE17__destruct_at_endB8ue170006EPS2_, symObjAddr: 0x85B8, symBinAddr: 0x100019010, symSize: 0x4C }
  - { offsetInCU: 0x321C6, offset: 0xB6258, size: 0x8, addend: 0x0, symName: __ZNSt3__16vectorIN3tmx8PropertyENS_9allocatorIS2_EEE13__vdeallocateEv, symObjAddr: 0x8604, symBinAddr: 0x10001905C, symSize: 0x94 }
  - { offsetInCU: 0x321EE, offset: 0xB6280, size: 0x8, addend: 0x0, symName: __ZNSt3__16vectorIN3tmx8PropertyENS_9allocatorIS2_EEE11__vallocateB8ue170006Em, symObjAddr: 0x8698, symBinAddr: 0x1000190F0, symSize: 0xB4 }
  - { offsetInCU: 0x32232, offset: 0xB62C4, size: 0x8, addend: 0x0, symName: __ZNKSt3__16vectorIN3tmx8PropertyENS_9allocatorIS2_EEE11__recommendB8ue170006Em, symObjAddr: 0x874C, symBinAddr: 0x1000191A4, symSize: 0xB4 }
  - { offsetInCU: 0x322A0, offset: 0xB6332, size: 0x8, addend: 0x0, symName: __ZNSt3__16vectorIN3tmx8PropertyENS_9allocatorIS2_EEE21_ConstructTransactionC1B8ue170006ERS5_m, symObjAddr: 0x88C8, symBinAddr: 0x1000192C0, symSize: 0x3C }
  - { offsetInCU: 0x322E8, offset: 0xB637A, size: 0x8, addend: 0x0, symName: __ZNSt3__16vectorIN3tmx8PropertyENS_9allocatorIS2_EEE21_ConstructTransactionD1B8ue170006Ev, symObjAddr: 0x89AC, symBinAddr: 0x10001937C, symSize: 0x2C }
  - { offsetInCU: 0x32312, offset: 0xB63A4, size: 0x8, addend: 0x0, symName: __ZNSt3__16vectorIN3tmx8PropertyENS_9allocatorIS2_EEE21_ConstructTransactionC2B8ue170006ERS5_m, symObjAddr: 0x89D8, symBinAddr: 0x1000193A8, symSize: 0x4C }
  - { offsetInCU: 0x32378, offset: 0xB640A, size: 0x8, addend: 0x0, symName: __ZNSt3__14pairIPN3tmx8PropertyES3_EC1B8ue170006IS3_S3_LPv0EEEOT_OT0_, symObjAddr: 0x8C10, symBinAddr: 0x1000195E0, symSize: 0x3C }
  - { offsetInCU: 0x323D7, offset: 0xB6469, size: 0x8, addend: 0x0, symName: __ZNSt3__14pairIPN3tmx8PropertyES3_EC2B8ue170006IS3_S3_LPv0EEEOT_OT0_, symObjAddr: 0x8C4C, symBinAddr: 0x10001961C, symSize: 0x34 }
  - { offsetInCU: 0x32436, offset: 0xB64C8, size: 0x8, addend: 0x0, symName: __ZNSt3__129_AllocatorDestroyRangeReverseINS_9allocatorIN3tmx8PropertyEEEPS3_EC1B8ue170006ERS4_RS5_S8_, symObjAddr: 0x8CCC, symBinAddr: 0x10001969C, symSize: 0x44 }
  - { offsetInCU: 0x3248D, offset: 0xB651F, size: 0x8, addend: 0x0, symName: __ZNSt3__116allocator_traitsINS_9allocatorIN3tmx8PropertyEEEE9constructB8ue170006IS3_JRS3_EvEEvRS4_PT_DpOT0_, symObjAddr: 0x8D10, symBinAddr: 0x1000196E0, symSize: 0x34 }
  - { offsetInCU: 0x324E4, offset: 0xB6576, size: 0x8, addend: 0x0, symName: __ZNSt3__128__exception_guard_exceptionsINS_29_AllocatorDestroyRangeReverseINS_9allocatorIN3tmx8PropertyEEEPS4_EEE10__completeB8ue170006Ev, symObjAddr: 0x8D58, symBinAddr: 0x100019714, symSize: 0x1C }
  - { offsetInCU: 0x3250A, offset: 0xB659C, size: 0x8, addend: 0x0, symName: __ZNSt3__128__exception_guard_exceptionsINS_29_AllocatorDestroyRangeReverseINS_9allocatorIN3tmx8PropertyEEEPS4_EEED1B8ue170006Ev, symObjAddr: 0x8D74, symBinAddr: 0x100019730, symSize: 0x2C }
  - { offsetInCU: 0x32534, offset: 0xB65C6, size: 0x8, addend: 0x0, symName: __ZNSt3__128__exception_guard_exceptionsINS_29_AllocatorDestroyRangeReverseINS_9allocatorIN3tmx8PropertyEEEPS4_EEEC1B8ue170006ES7_, symObjAddr: 0x8DA0, symBinAddr: 0x10001975C, symSize: 0x34 }
  - { offsetInCU: 0x3256D, offset: 0xB65FF, size: 0x8, addend: 0x0, symName: __ZNSt3__128__exception_guard_exceptionsINS_29_AllocatorDestroyRangeReverseINS_9allocatorIN3tmx8PropertyEEEPS4_EEEC2B8ue170006ES7_, symObjAddr: 0x8DD4, symBinAddr: 0x100019790, symSize: 0x30 }
  - { offsetInCU: 0x325A6, offset: 0xB6638, size: 0x8, addend: 0x0, symName: __ZNSt3__129_AllocatorDestroyRangeReverseINS_9allocatorIN3tmx8PropertyEEEPS3_EC2B8ue170006ERS4_RS5_S8_, symObjAddr: 0x8E04, symBinAddr: 0x1000197C0, symSize: 0x38 }
  - { offsetInCU: 0x325FD, offset: 0xB668F, size: 0x8, addend: 0x0, symName: __ZNSt3__19allocatorIN3tmx8PropertyEE9constructB8ue170006IS2_JRS2_EEEvPT_DpOT0_, symObjAddr: 0x8E3C, symBinAddr: 0x1000197F8, symSize: 0x30 }
  - { offsetInCU: 0x32653, offset: 0xB66E5, size: 0x8, addend: 0x0, symName: __ZN3tmx8PropertyC1ERKS0_, symObjAddr: 0x8E6C, symBinAddr: 0x100019828, symSize: 0x34 }
  - { offsetInCU: 0x32688, offset: 0xB671A, size: 0x8, addend: 0x0, symName: __ZN3tmx8PropertyC2ERKS0_, symObjAddr: 0x8EA0, symBinAddr: 0x10001985C, symSize: 0x110 }
  - { offsetInCU: 0x326BD, offset: 0xB674F, size: 0x8, addend: 0x0, symName: __ZNSt3__16vectorIN3tmx8PropertyENS_9allocatorIS2_EEEC1ERKS5_, symObjAddr: 0x8FB0, symBinAddr: 0x10001996C, symSize: 0x34 }
  - { offsetInCU: 0x326F8, offset: 0xB678A, size: 0x8, addend: 0x0, symName: __ZNSt3__16vectorIN3tmx8PropertyENS_9allocatorIS2_EEEC2ERKS5_, symObjAddr: 0x8FE4, symBinAddr: 0x1000199A0, symSize: 0x94 }
  - { offsetInCU: 0x3273D, offset: 0xB67CF, size: 0x8, addend: 0x0, symName: __ZNSt3__116allocator_traitsINS_9allocatorIN3tmx8PropertyEEEE37select_on_container_copy_constructionB8ue170006IS4_vvEES4_RKS4_, symObjAddr: 0x9078, symBinAddr: 0x100019A34, symSize: 0x10 }
  - { offsetInCU: 0x3276C, offset: 0xB67FE, size: 0x8, addend: 0x0, symName: __ZNKSt3__16vectorIN3tmx8PropertyENS_9allocatorIS2_EEE7__allocB8ue170006Ev, symObjAddr: 0x9088, symBinAddr: 0x100019A44, symSize: 0x28 }
  - { offsetInCU: 0x3279C, offset: 0xB682E, size: 0x8, addend: 0x0, symName: __ZNSt3__117__compressed_pairIPN3tmx8PropertyENS_9allocatorIS2_EEEC1B8ue170006IDnS5_EEOT_OT0_, symObjAddr: 0x90B0, symBinAddr: 0x100019A6C, symSize: 0x3C }
  - { offsetInCU: 0x327F4, offset: 0xB6886, size: 0x8, addend: 0x0, symName: __ZNSt3__16vectorIN3tmx8PropertyENS_9allocatorIS2_EEE16__init_with_sizeB8ue170006IPS2_S7_EEvT_T0_m, symObjAddr: 0x90EC, symBinAddr: 0x100019AA8, symSize: 0xB8 }
  - { offsetInCU: 0x32868, offset: 0xB68FA, size: 0x8, addend: 0x0, symName: __ZNKSt3__117__compressed_pairIPN3tmx8PropertyENS_9allocatorIS2_EEE6secondB8ue170006Ev, symObjAddr: 0x91A4, symBinAddr: 0x100019B60, symSize: 0x24 }
  - { offsetInCU: 0x3288E, offset: 0xB6920, size: 0x8, addend: 0x0, symName: __ZNKSt3__122__compressed_pair_elemINS_9allocatorIN3tmx8PropertyEEELi1ELb1EE5__getB8ue170006Ev, symObjAddr: 0x91C8, symBinAddr: 0x100019B84, symSize: 0x14 }
  - { offsetInCU: 0x328B4, offset: 0xB6946, size: 0x8, addend: 0x0, symName: __ZNSt3__117__compressed_pairIPN3tmx8PropertyENS_9allocatorIS2_EEEC2B8ue170006IDnS5_EEOT_OT0_, symObjAddr: 0x91DC, symBinAddr: 0x100019B98, symSize: 0x44 }
  - { offsetInCU: 0x3290C, offset: 0xB699E, size: 0x8, addend: 0x0, symName: __ZNSt3__122__compressed_pair_elemIPN3tmx8PropertyELi0ELb0EEC2B8ue170006IDnvEEOT_, symObjAddr: 0x9220, symBinAddr: 0x100019BDC, symSize: 0x1C }
  - { offsetInCU: 0x3294E, offset: 0xB69E0, size: 0x8, addend: 0x0, symName: __ZNSt3__122__compressed_pair_elemINS_9allocatorIN3tmx8PropertyEEELi1ELb1EEC2B8ue170006IS4_vEEOT_, symObjAddr: 0x923C, symBinAddr: 0x100019BF8, symSize: 0x18 }
  - { offsetInCU: 0x32990, offset: 0xB6A22, size: 0x8, addend: 0x0, symName: __ZNSt3__128__exception_guard_exceptionsINS_6vectorIN3tmx8PropertyENS_9allocatorIS3_EEE16__destroy_vectorEE10__completeB8ue170006Ev, symObjAddr: 0x92C8, symBinAddr: 0x100019C50, symSize: 0x1C }
  - { offsetInCU: 0x329B6, offset: 0xB6A48, size: 0x8, addend: 0x0, symName: __ZNSt3__128__exception_guard_exceptionsINS_6vectorIN3tmx8PropertyENS_9allocatorIS3_EEE16__destroy_vectorEED1B8ue170006Ev, symObjAddr: 0x92E4, symBinAddr: 0x100019C6C, symSize: 0x2C }
  - { offsetInCU: 0x329E0, offset: 0xB6A72, size: 0x8, addend: 0x0, symName: __ZNSt3__128__exception_guard_exceptionsINS_6vectorIN3tmx8PropertyENS_9allocatorIS3_EEE16__destroy_vectorEEC1B8ue170006ES7_, symObjAddr: 0x9310, symBinAddr: 0x100019C98, symSize: 0x34 }
  - { offsetInCU: 0x32A18, offset: 0xB6AAA, size: 0x8, addend: 0x0, symName: __ZNSt3__128__exception_guard_exceptionsINS_6vectorIN3tmx8PropertyENS_9allocatorIS3_EEE16__destroy_vectorEEC2B8ue170006ES7_, symObjAddr: 0x9344, symBinAddr: 0x100019CCC, symSize: 0x24 }
  - { offsetInCU: 0x32A50, offset: 0xB6AE2, size: 0x8, addend: 0x0, symName: __ZNSt3__128__exception_guard_exceptionsINS_6vectorIN3tmx8PropertyENS_9allocatorIS3_EEE16__destroy_vectorEED2B8ue170006Ev, symObjAddr: 0x9388, symBinAddr: 0x100019CF0, symSize: 0x50 }
  - { offsetInCU: 0x32A7A, offset: 0xB6B0C, size: 0x8, addend: 0x0, symName: __ZNSt3__128__exception_guard_exceptionsINS_29_AllocatorDestroyRangeReverseINS_9allocatorIN3tmx8PropertyEEEPS4_EEED2B8ue170006Ev, symObjAddr: 0x97F0, symBinAddr: 0x100019D40, symSize: 0x50 }
  - { offsetInCU: 0x32AA4, offset: 0xB6B36, size: 0x8, addend: 0x0, symName: __ZNKSt3__129_AllocatorDestroyRangeReverseINS_9allocatorIN3tmx8PropertyEEEPS3_EclB8ue170006Ev, symObjAddr: 0x9840, symBinAddr: 0x100019D90, symSize: 0x68 }
  - { offsetInCU: 0x32ACA, offset: 0xB6B5C, size: 0x8, addend: 0x0, symName: __ZNSt3__116reverse_iteratorIPN3tmx8PropertyEEC1B8ue170006ES3_, symObjAddr: 0x9918, symBinAddr: 0x100019E68, symSize: 0x34 }
  - { offsetInCU: 0x32B02, offset: 0xB6B94, size: 0x8, addend: 0x0, symName: __ZNSt3__116reverse_iteratorIPN3tmx8PropertyEEppB8ue170006Ev, symObjAddr: 0x99B8, symBinAddr: 0x100019F08, symSize: 0x20 }
  - { offsetInCU: 0x32B28, offset: 0xB6BBA, size: 0x8, addend: 0x0, symName: __ZNKSt3__116reverse_iteratorIPN3tmx8PropertyEE4baseB8ue170006Ev, symObjAddr: 0x99D8, symBinAddr: 0x100019F28, symSize: 0x18 }
  - { offsetInCU: 0x32B53, offset: 0xB6BE5, size: 0x8, addend: 0x0, symName: __ZNSt3__119__to_address_helperINS_16reverse_iteratorIPN3tmx8PropertyEEEvE6__callB8ue170006ERKS5_, symObjAddr: 0x99F0, symBinAddr: 0x100019F40, symSize: 0x38 }
  - { offsetInCU: 0x32B76, offset: 0xB6C08, size: 0x8, addend: 0x0, symName: __ZNKSt3__116reverse_iteratorIPN3tmx8PropertyEEptB8ue170006Ev, symObjAddr: 0x9A28, symBinAddr: 0x100019F78, symSize: 0x24 }
  - { offsetInCU: 0x32B9C, offset: 0xB6C2E, size: 0x8, addend: 0x0, symName: __ZNKSt3__116reverse_iteratorIPN3tmx8PropertyEEdeB8ue170006Ev, symObjAddr: 0x9A4C, symBinAddr: 0x100019F9C, symSize: 0x28 }
  - { offsetInCU: 0x32BD1, offset: 0xB6C63, size: 0x8, addend: 0x0, symName: __ZNSt3__116reverse_iteratorIPN3tmx8PropertyEEC2B8ue170006ES3_, symObjAddr: 0x9A74, symBinAddr: 0x100019FC4, symSize: 0x28 }
  - { offsetInCU: 0x32C09, offset: 0xB6C9B, size: 0x8, addend: 0x0, symName: __ZNSt3__118__unwrap_iter_implIPN3tmx8PropertyELb1EE8__unwrapB8ue170006ES3_, symObjAddr: 0x9A9C, symBinAddr: 0x100019FEC, symSize: 0x24 }
  - { offsetInCU: 0x32C2C, offset: 0xB6CBE, size: 0x8, addend: 0x0, symName: __ZNSt3__118__unwrap_iter_implIPN3tmx8PropertyELb1EE8__rewrapB8ue170006ES3_S3_, symObjAddr: 0x9AC0, symBinAddr: 0x10001A010, symSize: 0x58 }
  - { offsetInCU: 0x32C5D, offset: 0xB6CEF, size: 0x8, addend: 0x0, symName: __ZNSt3__16vectorIN3tmx8PropertyENS_9allocatorIS2_EEE21_ConstructTransactionD2B8ue170006Ev, symObjAddr: 0x9B50, symBinAddr: 0x10001A068, symSize: 0x20 }
  - { offsetInCU: 0x32C91, offset: 0xB6D23, size: 0x8, addend: 0x0, symName: __ZNKSt3__111__copy_loopINS_17_ClassicAlgPolicyEEclB8ue170006IPN3tmx8PropertyES6_S6_EENS_4pairIT_T1_EES8_T0_S9_, symObjAddr: 0x9C68, symBinAddr: 0x10001A180, symSize: 0x88 }
  - { offsetInCU: 0x32CFC, offset: 0xB6D8E, size: 0x8, addend: 0x0, symName: __ZN3tmx8PropertyaSERKS0_, symObjAddr: 0x9D1C, symBinAddr: 0x10001A234, symSize: 0x9C }
  - { offsetInCU: 0x32D2D, offset: 0xB6DBF, size: 0x8, addend: 0x0, symName: __ZNKSt3__16vectorIN3tmx8PropertyENS_9allocatorIS2_EEE17__annotate_shrinkB8ue170006Em, symObjAddr: 0x9DB8, symBinAddr: 0x10001A2D0, symSize: 0xD0 }
  - { offsetInCU: 0x32D62, offset: 0xB6DF4, size: 0x8, addend: 0x0, symName: __ZNSt3__16vectorIN3tmx8PropertyENS_9allocatorIS2_EEE9__end_capB8ue170006Ev, symObjAddr: 0x9E88, symBinAddr: 0x10001A3A0, symSize: 0x28 }
  - { offsetInCU: 0x32D88, offset: 0xB6E1A, size: 0x8, addend: 0x0, symName: __ZNSt3__117__compressed_pairIPN3tmx8PropertyENS_9allocatorIS2_EEE5firstB8ue170006Ev, symObjAddr: 0x9EB0, symBinAddr: 0x10001A3C8, symSize: 0x24 }
  - { offsetInCU: 0x32DAE, offset: 0xB6E40, size: 0x8, addend: 0x0, symName: __ZNSt3__122__compressed_pair_elemIPN3tmx8PropertyELi0ELb0EE5__getB8ue170006Ev, symObjAddr: 0x9ED4, symBinAddr: 0x10001A3EC, symSize: 0x14 }
  - { offsetInCU: 0x32DD4, offset: 0xB6E66, size: 0x8, addend: 0x0, symName: __ZNKSt3__16vectorIN3tmx8PropertyENS_9allocatorIS2_EEE8max_sizeEv, symObjAddr: 0x9EE8, symBinAddr: 0x10001A400, symSize: 0x60 }
  - { offsetInCU: 0x32DFC, offset: 0xB6E8E, size: 0x8, addend: 0x0, symName: __ZNKSt3__16vectorIN3tmx8PropertyENS_9allocatorIS2_EEE20__throw_length_errorB8ue170006Ev, symObjAddr: 0x9F48, symBinAddr: 0x10001A460, symSize: 0x1C }
  - { offsetInCU: 0x32E22, offset: 0xB6EB4, size: 0x8, addend: 0x0, symName: __ZNKSt3__16vectorIN3tmx8PropertyENS_9allocatorIS2_EEE14__annotate_newB8ue170006Em, symObjAddr: 0x9FA4, symBinAddr: 0x10001A4BC, symSize: 0xC8 }
  - { offsetInCU: 0x32E57, offset: 0xB6EE9, size: 0x8, addend: 0x0, symName: __ZNSt3__116allocator_traitsINS_9allocatorIN3tmx8PropertyEEEE8max_sizeB8ue170006IS4_vEEmRKS4_, symObjAddr: 0xA06C, symBinAddr: 0x10001A584, symSize: 0x24 }
  - { offsetInCU: 0x32E85, offset: 0xB6F17, size: 0x8, addend: 0x0, symName: __ZNKSt3__19allocatorIN3tmx8PropertyEE8max_sizeB8ue170006Ev, symObjAddr: 0xA090, symBinAddr: 0x10001A5A8, symSize: 0x18 }
  - { offsetInCU: 0x32EAB, offset: 0xB6F3D, size: 0x8, addend: 0x0, symName: __ZNSt3__19allocatorIN3tmx8PropertyEE8allocateB8ue170006Em, symObjAddr: 0xA0A8, symBinAddr: 0x10001A5C0, symSize: 0x5C }
  - { offsetInCU: 0x32EE4, offset: 0xB6F76, size: 0x8, addend: 0x0, symName: __ZN3tmx5LayeraSERKS0_, symObjAddr: 0xA12C, symBinAddr: 0x10001A644, symSize: 0x7C }
  - { offsetInCU: 0x32F15, offset: 0xB6FA7, size: 0x8, addend: 0x0, symName: __ZNSt3__16vectorIN3tmx6ObjectENS_9allocatorIS2_EEEaSB8ue170006ERKS5_, symObjAddr: 0xA1A8, symBinAddr: 0x10001A6C0, symSize: 0x68 }
  - { offsetInCU: 0x32F4C, offset: 0xB6FDE, size: 0x8, addend: 0x0, symName: __ZNSt3__16vectorIN3tmx6ObjectENS_9allocatorIS2_EEE19__copy_assign_allocB8ue170006ERKS5_, symObjAddr: 0xA210, symBinAddr: 0x10001A728, symSize: 0x2C }
  - { offsetInCU: 0x32F81, offset: 0xB7013, size: 0x8, addend: 0x0, symName: __ZNSt3__16vectorIN3tmx6ObjectENS_9allocatorIS2_EEE6assignIPS2_Li0EEEvT_S8_, symObjAddr: 0xA23C, symBinAddr: 0x10001A754, symSize: 0x5C }
  - { offsetInCU: 0x32FD7, offset: 0xB7069, size: 0x8, addend: 0x0, symName: __ZNSt3__16vectorIN3tmx6ObjectENS_9allocatorIS2_EEE19__copy_assign_allocB8ue170006ERKS5_NS_17integral_constantIbLb0EEE, symObjAddr: 0xA298, symBinAddr: 0x10001A7B0, symSize: 0x14 }
  - { offsetInCU: 0x33015, offset: 0xB70A7, size: 0x8, addend: 0x0, symName: __ZNSt3__16vectorIN3tmx6ObjectENS_9allocatorIS2_EEE18__assign_with_sizeB8ue170006IPS2_S7_EEvT_T0_l, symObjAddr: 0xA2AC, symBinAddr: 0x10001A7C4, symSize: 0x164 }
  - { offsetInCU: 0x330C5, offset: 0xB7157, size: 0x8, addend: 0x0, symName: __ZNSt3__16vectorIN3tmx6ObjectENS_9allocatorIS2_EEE18__construct_at_endIPS2_S7_EEvT_T0_m, symObjAddr: 0xA518, symBinAddr: 0x10001A9C8, symSize: 0x8C }
  - { offsetInCU: 0x3313B, offset: 0xB71CD, size: 0x8, addend: 0x0, symName: __ZNSt3__16vectorIN3tmx6ObjectENS_9allocatorIS2_EEE17__destruct_at_endB8ue170006EPS2_, symObjAddr: 0xA5E8, symBinAddr: 0x10001AA98, symSize: 0x4C }
  - { offsetInCU: 0x3317F, offset: 0xB7211, size: 0x8, addend: 0x0, symName: __ZNSt3__16vectorIN3tmx6ObjectENS_9allocatorIS2_EEE13__vdeallocateEv, symObjAddr: 0xA634, symBinAddr: 0x10001AAE4, symSize: 0x94 }
  - { offsetInCU: 0x331A7, offset: 0xB7239, size: 0x8, addend: 0x0, symName: __ZNSt3__16vectorIN3tmx6ObjectENS_9allocatorIS2_EEE11__vallocateB8ue170006Em, symObjAddr: 0xA6C8, symBinAddr: 0x10001AB78, symSize: 0xB4 }
  - { offsetInCU: 0x331EB, offset: 0xB727D, size: 0x8, addend: 0x0, symName: __ZNKSt3__16vectorIN3tmx6ObjectENS_9allocatorIS2_EEE11__recommendB8ue170006Em, symObjAddr: 0xA77C, symBinAddr: 0x10001AC2C, symSize: 0xB4 }
  - { offsetInCU: 0x33259, offset: 0xB72EB, size: 0x8, addend: 0x0, symName: __ZNSt3__16vectorIN3tmx6ObjectENS_9allocatorIS2_EEE21_ConstructTransactionC1B8ue170006ERS5_m, symObjAddr: 0xA8F8, symBinAddr: 0x10001AD48, symSize: 0x3C }
  - { offsetInCU: 0x332A1, offset: 0xB7333, size: 0x8, addend: 0x0, symName: __ZNSt3__16vectorIN3tmx6ObjectENS_9allocatorIS2_EEE21_ConstructTransactionD1B8ue170006Ev, symObjAddr: 0xA9DC, symBinAddr: 0x10001AE04, symSize: 0x2C }
  - { offsetInCU: 0x332CB, offset: 0xB735D, size: 0x8, addend: 0x0, symName: __ZNSt3__16vectorIN3tmx6ObjectENS_9allocatorIS2_EEE21_ConstructTransactionC2B8ue170006ERS5_m, symObjAddr: 0xAA08, symBinAddr: 0x10001AE30, symSize: 0x4C }
  - { offsetInCU: 0x33331, offset: 0xB73C3, size: 0x8, addend: 0x0, symName: __ZNSt3__14pairIPN3tmx6ObjectES3_EC1B8ue170006IS3_S3_LPv0EEEOT_OT0_, symObjAddr: 0xAC40, symBinAddr: 0x10001B068, symSize: 0x3C }
  - { offsetInCU: 0x33390, offset: 0xB7422, size: 0x8, addend: 0x0, symName: __ZNSt3__14pairIPN3tmx6ObjectES3_EC2B8ue170006IS3_S3_LPv0EEEOT_OT0_, symObjAddr: 0xAC7C, symBinAddr: 0x10001B0A4, symSize: 0x34 }
  - { offsetInCU: 0x333EF, offset: 0xB7481, size: 0x8, addend: 0x0, symName: __ZNSt3__129_AllocatorDestroyRangeReverseINS_9allocatorIN3tmx6ObjectEEEPS3_EC1B8ue170006ERS4_RS5_S8_, symObjAddr: 0xACFC, symBinAddr: 0x10001B124, symSize: 0x44 }
  - { offsetInCU: 0x33446, offset: 0xB74D8, size: 0x8, addend: 0x0, symName: __ZNSt3__116allocator_traitsINS_9allocatorIN3tmx6ObjectEEEE9constructB8ue170006IS3_JRS3_EvEEvRS4_PT_DpOT0_, symObjAddr: 0xAD40, symBinAddr: 0x10001B168, symSize: 0x34 }
  - { offsetInCU: 0x3349D, offset: 0xB752F, size: 0x8, addend: 0x0, symName: __ZNSt3__128__exception_guard_exceptionsINS_29_AllocatorDestroyRangeReverseINS_9allocatorIN3tmx6ObjectEEEPS4_EEE10__completeB8ue170006Ev, symObjAddr: 0xAD88, symBinAddr: 0x10001B19C, symSize: 0x1C }
  - { offsetInCU: 0x334C3, offset: 0xB7555, size: 0x8, addend: 0x0, symName: __ZNSt3__128__exception_guard_exceptionsINS_29_AllocatorDestroyRangeReverseINS_9allocatorIN3tmx6ObjectEEEPS4_EEED1B8ue170006Ev, symObjAddr: 0xADA4, symBinAddr: 0x10001B1B8, symSize: 0x2C }
  - { offsetInCU: 0x334ED, offset: 0xB757F, size: 0x8, addend: 0x0, symName: __ZNSt3__128__exception_guard_exceptionsINS_29_AllocatorDestroyRangeReverseINS_9allocatorIN3tmx6ObjectEEEPS4_EEEC1B8ue170006ES7_, symObjAddr: 0xADD0, symBinAddr: 0x10001B1E4, symSize: 0x34 }
  - { offsetInCU: 0x33526, offset: 0xB75B8, size: 0x8, addend: 0x0, symName: __ZNSt3__128__exception_guard_exceptionsINS_29_AllocatorDestroyRangeReverseINS_9allocatorIN3tmx6ObjectEEEPS4_EEEC2B8ue170006ES7_, symObjAddr: 0xAE04, symBinAddr: 0x10001B218, symSize: 0x30 }
  - { offsetInCU: 0x3355F, offset: 0xB75F1, size: 0x8, addend: 0x0, symName: __ZNSt3__129_AllocatorDestroyRangeReverseINS_9allocatorIN3tmx6ObjectEEEPS3_EC2B8ue170006ERS4_RS5_S8_, symObjAddr: 0xAE34, symBinAddr: 0x10001B248, symSize: 0x38 }
  - { offsetInCU: 0x335B6, offset: 0xB7648, size: 0x8, addend: 0x0, symName: __ZNSt3__19allocatorIN3tmx6ObjectEE9constructB8ue170006IS2_JRS2_EEEvPT_DpOT0_, symObjAddr: 0xAE6C, symBinAddr: 0x10001B280, symSize: 0x30 }
  - { offsetInCU: 0x3360C, offset: 0xB769E, size: 0x8, addend: 0x0, symName: __ZN3tmx6ObjectC1ERKS0_, symObjAddr: 0xAE9C, symBinAddr: 0x10001B2B0, symSize: 0x34 }
  - { offsetInCU: 0x33641, offset: 0xB76D3, size: 0x8, addend: 0x0, symName: __ZN3tmx6ObjectC2ERKS0_, symObjAddr: 0xAED0, symBinAddr: 0x10001B2E4, symSize: 0x180 }
  - { offsetInCU: 0x33676, offset: 0xB7708, size: 0x8, addend: 0x0, symName: __ZNSt3__16vectorIN3tmx7Vector2IfEENS_9allocatorIS3_EEEC1ERKS6_, symObjAddr: 0xB050, symBinAddr: 0x10001B464, symSize: 0x34 }
  - { offsetInCU: 0x336B6, offset: 0xB7748, size: 0x8, addend: 0x0, symName: __ZN3tmx4TextC1ERKS0_, symObjAddr: 0xB084, symBinAddr: 0x10001B498, symSize: 0x34 }
  - { offsetInCU: 0x336EB, offset: 0xB777D, size: 0x8, addend: 0x0, symName: __ZNSt3__16vectorIN3tmx7Vector2IfEENS_9allocatorIS3_EEEC2ERKS6_, symObjAddr: 0xB110, symBinAddr: 0x10001B4CC, symSize: 0x94 }
  - { offsetInCU: 0x33730, offset: 0xB77C2, size: 0x8, addend: 0x0, symName: __ZNSt3__116allocator_traitsINS_9allocatorIN3tmx7Vector2IfEEEEE37select_on_container_copy_constructionB8ue170006IS5_vvEES5_RKS5_, symObjAddr: 0xB1A4, symBinAddr: 0x10001B560, symSize: 0x10 }
  - { offsetInCU: 0x3375F, offset: 0xB77F1, size: 0x8, addend: 0x0, symName: __ZNKSt3__16vectorIN3tmx7Vector2IfEENS_9allocatorIS3_EEE7__allocB8ue170006Ev, symObjAddr: 0xB1B4, symBinAddr: 0x10001B570, symSize: 0x28 }
  - { offsetInCU: 0x3378A, offset: 0xB781C, size: 0x8, addend: 0x0, symName: __ZNSt3__117__compressed_pairIPN3tmx7Vector2IfEENS_9allocatorIS3_EEEC1B8ue170006IDnS6_EEOT_OT0_, symObjAddr: 0xB1DC, symBinAddr: 0x10001B598, symSize: 0x3C }
  - { offsetInCU: 0x337E2, offset: 0xB7874, size: 0x8, addend: 0x0, symName: __ZNSt3__16vectorIN3tmx7Vector2IfEENS_9allocatorIS3_EEE16__init_with_sizeB8ue170006IPS3_S8_EEvT_T0_m, symObjAddr: 0xB218, symBinAddr: 0x10001B5D4, symSize: 0xB8 }
  - { offsetInCU: 0x33856, offset: 0xB78E8, size: 0x8, addend: 0x0, symName: __ZNKSt3__117__compressed_pairIPN3tmx7Vector2IfEENS_9allocatorIS3_EEE6secondB8ue170006Ev, symObjAddr: 0xB2F8, symBinAddr: 0x10001B68C, symSize: 0x24 }
  - { offsetInCU: 0x3387C, offset: 0xB790E, size: 0x8, addend: 0x0, symName: __ZNKSt3__122__compressed_pair_elemINS_9allocatorIN3tmx7Vector2IfEEEELi1ELb1EE5__getB8ue170006Ev, symObjAddr: 0xB31C, symBinAddr: 0x10001B6B0, symSize: 0x14 }
  - { offsetInCU: 0x338A2, offset: 0xB7934, size: 0x8, addend: 0x0, symName: __ZNSt3__117__compressed_pairIPN3tmx7Vector2IfEENS_9allocatorIS3_EEEC2B8ue170006IDnS6_EEOT_OT0_, symObjAddr: 0xB330, symBinAddr: 0x10001B6C4, symSize: 0x44 }
  - { offsetInCU: 0x338FA, offset: 0xB798C, size: 0x8, addend: 0x0, symName: __ZNSt3__122__compressed_pair_elemIPN3tmx7Vector2IfEELi0ELb0EEC2B8ue170006IDnvEEOT_, symObjAddr: 0xB374, symBinAddr: 0x10001B708, symSize: 0x1C }
  - { offsetInCU: 0x3393C, offset: 0xB79CE, size: 0x8, addend: 0x0, symName: __ZNSt3__122__compressed_pair_elemINS_9allocatorIN3tmx7Vector2IfEEEELi1ELb1EEC2B8ue170006IS5_vEEOT_, symObjAddr: 0xB390, symBinAddr: 0x10001B724, symSize: 0x18 }
  - { offsetInCU: 0x3397E, offset: 0xB7A10, size: 0x8, addend: 0x0, symName: __ZNSt3__16vectorIN3tmx7Vector2IfEENS_9allocatorIS3_EEE11__vallocateB8ue170006Em, symObjAddr: 0xB41C, symBinAddr: 0x10001B77C, symSize: 0xAC }
  - { offsetInCU: 0x339C2, offset: 0xB7A54, size: 0x8, addend: 0x0, symName: __ZNSt3__16vectorIN3tmx7Vector2IfEENS_9allocatorIS3_EEE18__construct_at_endIPS3_S8_EEvT_T0_m, symObjAddr: 0xB4C8, symBinAddr: 0x10001B828, symSize: 0x8C }
  - { offsetInCU: 0x33A38, offset: 0xB7ACA, size: 0x8, addend: 0x0, symName: __ZNSt3__128__exception_guard_exceptionsINS_6vectorIN3tmx7Vector2IfEENS_9allocatorIS4_EEE16__destroy_vectorEE10__completeB8ue170006Ev, symObjAddr: 0xB554, symBinAddr: 0x10001B8B4, symSize: 0x1C }
  - { offsetInCU: 0x33A5E, offset: 0xB7AF0, size: 0x8, addend: 0x0, symName: __ZNSt3__128__exception_guard_exceptionsINS_6vectorIN3tmx7Vector2IfEENS_9allocatorIS4_EEE16__destroy_vectorEED1B8ue170006Ev, symObjAddr: 0xB570, symBinAddr: 0x10001B8D0, symSize: 0x2C }
  - { offsetInCU: 0x33A88, offset: 0xB7B1A, size: 0x8, addend: 0x0, symName: __ZNSt3__128__exception_guard_exceptionsINS_6vectorIN3tmx7Vector2IfEENS_9allocatorIS4_EEE16__destroy_vectorEEC1B8ue170006ES8_, symObjAddr: 0xB59C, symBinAddr: 0x10001B8FC, symSize: 0x34 }
  - { offsetInCU: 0x33AC0, offset: 0xB7B52, size: 0x8, addend: 0x0, symName: __ZNSt3__128__exception_guard_exceptionsINS_6vectorIN3tmx7Vector2IfEENS_9allocatorIS4_EEE16__destroy_vectorEEC2B8ue170006ES8_, symObjAddr: 0xB5D0, symBinAddr: 0x10001B930, symSize: 0x24 }
  - { offsetInCU: 0x33AF8, offset: 0xB7B8A, size: 0x8, addend: 0x0, symName: __ZNKSt3__16vectorIN3tmx7Vector2IfEENS_9allocatorIS3_EEE8max_sizeEv, symObjAddr: 0xB614, symBinAddr: 0x10001B954, symSize: 0x60 }
  - { offsetInCU: 0x33B20, offset: 0xB7BB2, size: 0x8, addend: 0x0, symName: __ZNKSt3__16vectorIN3tmx7Vector2IfEENS_9allocatorIS3_EEE20__throw_length_errorB8ue170006Ev, symObjAddr: 0xB674, symBinAddr: 0x10001B9B4, symSize: 0x1C }
  - { offsetInCU: 0x33B46, offset: 0xB7BD8, size: 0x8, addend: 0x0, symName: __ZNSt3__16vectorIN3tmx7Vector2IfEENS_9allocatorIS3_EEE9__end_capB8ue170006Ev, symObjAddr: 0xB6F8, symBinAddr: 0x10001BA10, symSize: 0x28 }
  - { offsetInCU: 0x33B6C, offset: 0xB7BFE, size: 0x8, addend: 0x0, symName: __ZNKSt3__16vectorIN3tmx7Vector2IfEENS_9allocatorIS3_EEE14__annotate_newB8ue170006Em, symObjAddr: 0xB720, symBinAddr: 0x10001BA38, symSize: 0xAC }
  - { offsetInCU: 0x33BA1, offset: 0xB7C33, size: 0x8, addend: 0x0, symName: __ZNSt3__116allocator_traitsINS_9allocatorIN3tmx7Vector2IfEEEEE8max_sizeB8ue170006IS5_vEEmRKS5_, symObjAddr: 0xB7CC, symBinAddr: 0x10001BAE4, symSize: 0x24 }
  - { offsetInCU: 0x33BCF, offset: 0xB7C61, size: 0x8, addend: 0x0, symName: __ZNKSt3__19allocatorIN3tmx7Vector2IfEEE8max_sizeB8ue170006Ev, symObjAddr: 0xB7F0, symBinAddr: 0x10001BB08, symSize: 0x14 }
  - { offsetInCU: 0x33BF5, offset: 0xB7C87, size: 0x8, addend: 0x0, symName: __ZNSt3__19allocatorIN3tmx7Vector2IfEEE8allocateB8ue170006Em, symObjAddr: 0xB804, symBinAddr: 0x10001BB1C, symSize: 0x58 }
  - { offsetInCU: 0x33C29, offset: 0xB7CBB, size: 0x8, addend: 0x0, symName: __ZNSt3__117__compressed_pairIPN3tmx7Vector2IfEENS_9allocatorIS3_EEE5firstB8ue170006Ev, symObjAddr: 0xB894, symBinAddr: 0x10001BB74, symSize: 0x24 }
  - { offsetInCU: 0x33C4F, offset: 0xB7CE1, size: 0x8, addend: 0x0, symName: __ZNSt3__122__compressed_pair_elemIPN3tmx7Vector2IfEELi0ELb0EE5__getB8ue170006Ev, symObjAddr: 0xB8B8, symBinAddr: 0x10001BB98, symSize: 0x14 }
  - { offsetInCU: 0x33C8E, offset: 0xB7D20, size: 0x8, addend: 0x0, symName: __ZNSt3__16vectorIN3tmx7Vector2IfEENS_9allocatorIS3_EEE21_ConstructTransactionC1B8ue170006ERS6_m, symObjAddr: 0xB9C8, symBinAddr: 0x10001BBAC, symSize: 0x3C }
  - { offsetInCU: 0x33CD6, offset: 0xB7D68, size: 0x8, addend: 0x0, symName: __ZNSt3__16vectorIN3tmx7Vector2IfEENS_9allocatorIS3_EEE21_ConstructTransactionD1B8ue170006Ev, symObjAddr: 0xBA84, symBinAddr: 0x10001BC68, symSize: 0x2C }
  - { offsetInCU: 0x33D00, offset: 0xB7D92, size: 0x8, addend: 0x0, symName: __ZNSt3__16vectorIN3tmx7Vector2IfEENS_9allocatorIS3_EEE21_ConstructTransactionC2B8ue170006ERS6_m, symObjAddr: 0xBAB0, symBinAddr: 0x10001BC94, symSize: 0x44 }
  - { offsetInCU: 0x33D66, offset: 0xB7DF8, size: 0x8, addend: 0x0, symName: __ZNSt3__14pairIPN3tmx7Vector2IfEES4_EC1B8ue170006IS4_S4_LPv0EEEOT_OT0_, symObjAddr: 0xBC24, symBinAddr: 0x10001BE08, symSize: 0x3C }
  - { offsetInCU: 0x33DC5, offset: 0xB7E57, size: 0x8, addend: 0x0, symName: __ZNSt3__14pairIPN3tmx7Vector2IfEES4_EC2B8ue170006IS4_S4_LPv0EEEOT_OT0_, symObjAddr: 0xBC60, symBinAddr: 0x10001BE44, symSize: 0x34 }
  - { offsetInCU: 0x33E24, offset: 0xB7EB6, size: 0x8, addend: 0x0, symName: __ZNKSt3__114__copy_trivialclB8ue170006IN3tmx7Vector2IfEES4_Li0EEENS_4pairIPT_PT0_EES7_S7_S9_, symObjAddr: 0xBE10, symBinAddr: 0x10001BFF4, symSize: 0x48 }
  - { offsetInCU: 0x33E8D, offset: 0xB7F1F, size: 0x8, addend: 0x0, symName: __ZNSt3__14pairIPN3tmx7Vector2IfEES4_EC1B8ue170006IRS4_S4_LPv0EEEOT_OT0_, symObjAddr: 0xBFA0, symBinAddr: 0x10001C184, symSize: 0x3C }
  - { offsetInCU: 0x33EEC, offset: 0xB7F7E, size: 0x8, addend: 0x0, symName: __ZNSt3__14pairIPN3tmx7Vector2IfEES4_EC2B8ue170006IRS4_S4_LPv0EEEOT_OT0_, symObjAddr: 0xBFDC, symBinAddr: 0x10001C1C0, symSize: 0x34 }
  - { offsetInCU: 0x33F4B, offset: 0xB7FDD, size: 0x8, addend: 0x0, symName: __ZNSt3__118__unwrap_iter_implIPN3tmx7Vector2IfEELb1EE8__unwrapB8ue170006ES4_, symObjAddr: 0xC010, symBinAddr: 0x10001C1F4, symSize: 0x24 }
  - { offsetInCU: 0x33F6E, offset: 0xB8000, size: 0x8, addend: 0x0, symName: __ZNSt3__118__unwrap_iter_implIPN3tmx7Vector2IfEELb1EE8__rewrapB8ue170006ES4_S4_, symObjAddr: 0xC034, symBinAddr: 0x10001C218, symSize: 0x50 }
  - { offsetInCU: 0x33F9F, offset: 0xB8031, size: 0x8, addend: 0x0, symName: __ZNSt3__16vectorIN3tmx7Vector2IfEENS_9allocatorIS3_EEE21_ConstructTransactionD2B8ue170006Ev, symObjAddr: 0xC084, symBinAddr: 0x10001C268, symSize: 0x20 }
  - { offsetInCU: 0x33FC9, offset: 0xB805B, size: 0x8, addend: 0x0, symName: __ZNSt3__128__exception_guard_exceptionsINS_6vectorIN3tmx7Vector2IfEENS_9allocatorIS4_EEE16__destroy_vectorEED2B8ue170006Ev, symObjAddr: 0xC0A4, symBinAddr: 0x10001C288, symSize: 0x50 }
  - { offsetInCU: 0x33FF3, offset: 0xB8085, size: 0x8, addend: 0x0, symName: __ZN3tmx4TextC2ERKS0_, symObjAddr: 0xC3A4, symBinAddr: 0x10001C2D8, symSize: 0x84 }
  - { offsetInCU: 0x34028, offset: 0xB80BA, size: 0x8, addend: 0x0, symName: __ZNSt3__128__exception_guard_exceptionsINS_29_AllocatorDestroyRangeReverseINS_9allocatorIN3tmx6ObjectEEEPS4_EEED2B8ue170006Ev, symObjAddr: 0xC4A0, symBinAddr: 0x10001C35C, symSize: 0x50 }
  - { offsetInCU: 0x34052, offset: 0xB80E4, size: 0x8, addend: 0x0, symName: __ZNKSt3__129_AllocatorDestroyRangeReverseINS_9allocatorIN3tmx6ObjectEEEPS3_EclB8ue170006Ev, symObjAddr: 0xC4F0, symBinAddr: 0x10001C3AC, symSize: 0x68 }
  - { offsetInCU: 0x34078, offset: 0xB810A, size: 0x8, addend: 0x0, symName: __ZNSt3__116reverse_iteratorIPN3tmx6ObjectEEC1B8ue170006ES3_, symObjAddr: 0xC5C8, symBinAddr: 0x10001C484, symSize: 0x34 }
  - { offsetInCU: 0x340B0, offset: 0xB8142, size: 0x8, addend: 0x0, symName: __ZNSt3__116reverse_iteratorIPN3tmx6ObjectEEppB8ue170006Ev, symObjAddr: 0xC694, symBinAddr: 0x10001C524, symSize: 0x20 }
  - { offsetInCU: 0x340D6, offset: 0xB8168, size: 0x8, addend: 0x0, symName: __ZNKSt3__116reverse_iteratorIPN3tmx6ObjectEE4baseB8ue170006Ev, symObjAddr: 0xC6B4, symBinAddr: 0x10001C544, symSize: 0x18 }
  - { offsetInCU: 0x34101, offset: 0xB8193, size: 0x8, addend: 0x0, symName: __ZNSt3__119__to_address_helperINS_16reverse_iteratorIPN3tmx6ObjectEEEvE6__callB8ue170006ERKS5_, symObjAddr: 0xC78C, symBinAddr: 0x10001C55C, symSize: 0x38 }
  - { offsetInCU: 0x34124, offset: 0xB81B6, size: 0x8, addend: 0x0, symName: __ZNKSt3__116reverse_iteratorIPN3tmx6ObjectEEptB8ue170006Ev, symObjAddr: 0xC7C4, symBinAddr: 0x10001C594, symSize: 0x24 }
  - { offsetInCU: 0x3414A, offset: 0xB81DC, size: 0x8, addend: 0x0, symName: __ZNKSt3__116reverse_iteratorIPN3tmx6ObjectEEdeB8ue170006Ev, symObjAddr: 0xC7E8, symBinAddr: 0x10001C5B8, symSize: 0x28 }
  - { offsetInCU: 0x3417F, offset: 0xB8211, size: 0x8, addend: 0x0, symName: __ZNSt3__116reverse_iteratorIPN3tmx6ObjectEEC2B8ue170006ES3_, symObjAddr: 0xC810, symBinAddr: 0x10001C5E0, symSize: 0x28 }
  - { offsetInCU: 0x341B7, offset: 0xB8249, size: 0x8, addend: 0x0, symName: __ZNSt3__118__unwrap_iter_implIPN3tmx6ObjectELb1EE8__unwrapB8ue170006ES3_, symObjAddr: 0xC838, symBinAddr: 0x10001C608, symSize: 0x24 }
  - { offsetInCU: 0x341DA, offset: 0xB826C, size: 0x8, addend: 0x0, symName: __ZNSt3__118__unwrap_iter_implIPN3tmx6ObjectELb1EE8__rewrapB8ue170006ES3_S3_, symObjAddr: 0xC85C, symBinAddr: 0x10001C62C, symSize: 0x58 }
  - { offsetInCU: 0x3420B, offset: 0xB829D, size: 0x8, addend: 0x0, symName: __ZNSt3__16vectorIN3tmx6ObjectENS_9allocatorIS2_EEE21_ConstructTransactionD2B8ue170006Ev, symObjAddr: 0xC8EC, symBinAddr: 0x10001C684, symSize: 0x20 }
  - { offsetInCU: 0x34235, offset: 0xB82C7, size: 0x8, addend: 0x0, symName: __ZNKSt3__111__copy_loopINS_17_ClassicAlgPolicyEEclB8ue170006IPN3tmx6ObjectES6_S6_EENS_4pairIT_T1_EES8_T0_S9_, symObjAddr: 0xCA04, symBinAddr: 0x10001C79C, symSize: 0x88 }
  - { offsetInCU: 0x342A0, offset: 0xB8332, size: 0x8, addend: 0x0, symName: __ZN3tmx6ObjectaSERKS0_, symObjAddr: 0xCAB8, symBinAddr: 0x10001C850, symSize: 0xC4 }
  - { offsetInCU: 0x342D1, offset: 0xB8363, size: 0x8, addend: 0x0, symName: __ZNSt3__16vectorIN3tmx7Vector2IfEENS_9allocatorIS3_EEEaSB8ue170006ERKS6_, symObjAddr: 0xCB7C, symBinAddr: 0x10001C914, symSize: 0x68 }
  - { offsetInCU: 0x34308, offset: 0xB839A, size: 0x8, addend: 0x0, symName: __ZN3tmx4TextaSERKS0_, symObjAddr: 0xCBE4, symBinAddr: 0x10001C97C, symSize: 0x5C }
  - { offsetInCU: 0x34339, offset: 0xB83CB, size: 0x8, addend: 0x0, symName: __ZNSt3__16vectorIN3tmx7Vector2IfEENS_9allocatorIS3_EEE19__copy_assign_allocB8ue170006ERKS6_, symObjAddr: 0xCC40, symBinAddr: 0x10001C9D8, symSize: 0x2C }
  - { offsetInCU: 0x3436E, offset: 0xB8400, size: 0x8, addend: 0x0, symName: __ZNSt3__16vectorIN3tmx7Vector2IfEENS_9allocatorIS3_EEE6assignIPS3_Li0EEEvT_S9_, symObjAddr: 0xCC6C, symBinAddr: 0x10001CA04, symSize: 0x5C }
  - { offsetInCU: 0x343C4, offset: 0xB8456, size: 0x8, addend: 0x0, symName: __ZNSt3__16vectorIN3tmx7Vector2IfEENS_9allocatorIS3_EEE19__copy_assign_allocB8ue170006ERKS6_NS_17integral_constantIbLb0EEE, symObjAddr: 0xCCC8, symBinAddr: 0x10001CA60, symSize: 0x14 }
  - { offsetInCU: 0x34402, offset: 0xB8494, size: 0x8, addend: 0x0, symName: __ZNSt3__16vectorIN3tmx7Vector2IfEENS_9allocatorIS3_EEE18__assign_with_sizeB8ue170006IPS3_S8_EEvT_T0_l, symObjAddr: 0xCCDC, symBinAddr: 0x10001CA74, symSize: 0x164 }
  - { offsetInCU: 0x344B2, offset: 0xB8544, size: 0x8, addend: 0x0, symName: __ZNSt3__16vectorIN3tmx7Vector2IfEENS_9allocatorIS3_EEE17__destruct_at_endB8ue170006EPS3_, symObjAddr: 0xCEA0, symBinAddr: 0x10001CC38, symSize: 0x4C }
  - { offsetInCU: 0x344F6, offset: 0xB8588, size: 0x8, addend: 0x0, symName: __ZNSt3__16vectorIN3tmx7Vector2IfEENS_9allocatorIS3_EEE13__vdeallocateEv, symObjAddr: 0xCEEC, symBinAddr: 0x10001CC84, symSize: 0x94 }
  - { offsetInCU: 0x3451E, offset: 0xB85B0, size: 0x8, addend: 0x0, symName: __ZNKSt3__16vectorIN3tmx7Vector2IfEENS_9allocatorIS3_EEE11__recommendB8ue170006Em, symObjAddr: 0xCF80, symBinAddr: 0x10001CD18, symSize: 0xB4 }
  - { offsetInCU: 0x34573, offset: 0xB8605, size: 0x8, addend: 0x0, symName: __ZNKSt3__16vectorIN3tmx7Vector2IfEENS_9allocatorIS3_EEE17__annotate_shrinkB8ue170006Em, symObjAddr: 0xD094, symBinAddr: 0x10001CE2C, symSize: 0xB4 }
  - { offsetInCU: 0x345A8, offset: 0xB863A, size: 0x8, addend: 0x0, symName: __ZNSt3__16vectorIN3tmx7Vector2IfEENS_9allocatorIS3_EEE5clearB8ue170006Ev, symObjAddr: 0xD148, symBinAddr: 0x10001CEE0, symSize: 0x44 }
  - { offsetInCU: 0x345DD, offset: 0xB866F, size: 0x8, addend: 0x0, symName: __ZNKSt3__16vectorIN3tmx6ObjectENS_9allocatorIS2_EEE17__annotate_shrinkB8ue170006Em, symObjAddr: 0xD240, symBinAddr: 0x10001CF4C, symSize: 0xD0 }
  - { offsetInCU: 0x34612, offset: 0xB86A4, size: 0x8, addend: 0x0, symName: __ZNSt3__16vectorIN3tmx6ObjectENS_9allocatorIS2_EEE5clearB8ue170006Ev, symObjAddr: 0xD358, symBinAddr: 0x10001D01C, symSize: 0x44 }
  - { offsetInCU: 0x34647, offset: 0xB86D9, size: 0x8, addend: 0x0, symName: __ZNSt3__16vectorIN3tmx6ObjectENS_9allocatorIS2_EEE9__end_capB8ue170006Ev, symObjAddr: 0xD4A4, symBinAddr: 0x10001D060, symSize: 0x28 }
  - { offsetInCU: 0x3466D, offset: 0xB86FF, size: 0x8, addend: 0x0, symName: __ZNSt3__117__compressed_pairIPN3tmx6ObjectENS_9allocatorIS2_EEE5firstB8ue170006Ev, symObjAddr: 0xD538, symBinAddr: 0x10001D088, symSize: 0x24 }
  - { offsetInCU: 0x34693, offset: 0xB8725, size: 0x8, addend: 0x0, symName: __ZNSt3__122__compressed_pair_elemIPN3tmx6ObjectELi0ELb0EE5__getB8ue170006Ev, symObjAddr: 0xD55C, symBinAddr: 0x10001D0AC, symSize: 0x14 }
  - { offsetInCU: 0x346B9, offset: 0xB874B, size: 0x8, addend: 0x0, symName: __ZNKSt3__16vectorIN3tmx6ObjectENS_9allocatorIS2_EEE8max_sizeEv, symObjAddr: 0xD570, symBinAddr: 0x10001D0C0, symSize: 0x60 }
  - { offsetInCU: 0x346E1, offset: 0xB8773, size: 0x8, addend: 0x0, symName: __ZNKSt3__16vectorIN3tmx6ObjectENS_9allocatorIS2_EEE20__throw_length_errorB8ue170006Ev, symObjAddr: 0xD5D0, symBinAddr: 0x10001D120, symSize: 0x1C }
  - { offsetInCU: 0x34707, offset: 0xB8799, size: 0x8, addend: 0x0, symName: __ZNKSt3__16vectorIN3tmx6ObjectENS_9allocatorIS2_EEE14__annotate_newB8ue170006Em, symObjAddr: 0xD62C, symBinAddr: 0x10001D17C, symSize: 0xC8 }
  - { offsetInCU: 0x34746, offset: 0xB87D8, size: 0x8, addend: 0x0, symName: __ZNSt3__116allocator_traitsINS_9allocatorIN3tmx6ObjectEEEE8max_sizeB8ue170006IS4_vEEmRKS4_, symObjAddr: 0xD6F4, symBinAddr: 0x10001D244, symSize: 0x24 }
  - { offsetInCU: 0x34774, offset: 0xB8806, size: 0x8, addend: 0x0, symName: __ZNKSt3__16vectorIN3tmx6ObjectENS_9allocatorIS2_EEE7__allocB8ue170006Ev, symObjAddr: 0xD718, symBinAddr: 0x10001D268, symSize: 0x28 }
  - { offsetInCU: 0x3479A, offset: 0xB882C, size: 0x8, addend: 0x0, symName: __ZNKSt3__19allocatorIN3tmx6ObjectEE8max_sizeB8ue170006Ev, symObjAddr: 0xD740, symBinAddr: 0x10001D290, symSize: 0x18 }
  - { offsetInCU: 0x347C0, offset: 0xB8852, size: 0x8, addend: 0x0, symName: __ZNKSt3__117__compressed_pairIPN3tmx6ObjectENS_9allocatorIS2_EEE6secondB8ue170006Ev, symObjAddr: 0xD758, symBinAddr: 0x10001D2A8, symSize: 0x24 }
  - { offsetInCU: 0x347E6, offset: 0xB8878, size: 0x8, addend: 0x0, symName: __ZNKSt3__122__compressed_pair_elemINS_9allocatorIN3tmx6ObjectEEELi1ELb1EE5__getB8ue170006Ev, symObjAddr: 0xD77C, symBinAddr: 0x10001D2CC, symSize: 0x14 }
  - { offsetInCU: 0x3480C, offset: 0xB889E, size: 0x8, addend: 0x0, symName: __ZNSt3__19allocatorIN3tmx6ObjectEE8allocateB8ue170006Em, symObjAddr: 0xD790, symBinAddr: 0x10001D2E0, symSize: 0x5C }
  - { offsetInCU: 0x34840, offset: 0xB88D2, size: 0x8, addend: 0x0, symName: __ZN3tmx7Vector2IfEC2Ev, symObjAddr: 0xD858, symBinAddr: 0x10001D364, symSize: 0x20 }
  - { offsetInCU: 0x3486A, offset: 0xB88FC, size: 0x8, addend: 0x0, symName: __ZN3tmx7Vector2IjEC2Ev, symObjAddr: 0xD878, symBinAddr: 0x10001D384, symSize: 0x1C }
  - { offsetInCU: 0x34894, offset: 0xB8926, size: 0x8, addend: 0x0, symName: __ZNSt3__16vectorIN3tmx8PropertyENS_9allocatorIS2_EEEC2B8ue170006Ev, symObjAddr: 0xD894, symBinAddr: 0x10001D3A0, symSize: 0x4C }
  - { offsetInCU: 0x348BE, offset: 0xB8950, size: 0x8, addend: 0x0, symName: __ZNSt3__117__compressed_pairIPN3tmx8PropertyENS_9allocatorIS2_EEEC1B8ue170006IDnNS_18__default_init_tagEEEOT_OT0_, symObjAddr: 0xD8E0, symBinAddr: 0x10001D3EC, symSize: 0x3C }
  - { offsetInCU: 0x34916, offset: 0xB89A8, size: 0x8, addend: 0x0, symName: __ZNSt3__117__compressed_pairIPN3tmx8PropertyENS_9allocatorIS2_EEEC2B8ue170006IDnNS_18__default_init_tagEEEOT_OT0_, symObjAddr: 0xD91C, symBinAddr: 0x10001D428, symSize: 0x40 }
  - { offsetInCU: 0x3496E, offset: 0xB8A00, size: 0x8, addend: 0x0, symName: __ZNSt3__122__compressed_pair_elemINS_9allocatorIN3tmx8PropertyEEELi1ELb1EEC2B8ue170006ENS_18__default_init_tagE, symObjAddr: 0xD95C, symBinAddr: 0x10001D468, symSize: 0x2C }
  - { offsetInCU: 0x349A3, offset: 0xB8A35, size: 0x8, addend: 0x0, symName: __ZNSt3__19allocatorIN3tmx8PropertyEEC2B8ue170006Ev, symObjAddr: 0xD988, symBinAddr: 0x10001D494, symSize: 0x2C }
  - { offsetInCU: 0x349CD, offset: 0xB8A5F, size: 0x8, addend: 0x0, symName: __ZNSt3__116__non_trivial_ifILb1ENS_9allocatorIN3tmx8PropertyEEEEC2B8ue170006Ev, symObjAddr: 0xD9B4, symBinAddr: 0x10001D4C0, symSize: 0x14 }
  - { offsetInCU: 0x349F7, offset: 0xB8A89, size: 0x8, addend: 0x0, symName: __ZN3tmx7Vector2IjEC2Ejj, symObjAddr: 0xD9C8, symBinAddr: 0x10001D4D4, symSize: 0x2C }
  - { offsetInCU: 0x34A3D, offset: 0xB8ACF, size: 0x8, addend: 0x0, symName: __ZNSt3__16vectorIN3tmx8PropertyENS_9allocatorIS2_EEE22__construct_one_at_endB8ue170006IJEEEvDpOT_, symObjAddr: 0xD9F4, symBinAddr: 0x10001D500, symSize: 0x88 }
  - { offsetInCU: 0x34A77, offset: 0xB8B09, size: 0x8, addend: 0x0, symName: __ZNSt3__16vectorIN3tmx8PropertyENS_9allocatorIS2_EEE24__emplace_back_slow_pathIJEEEvDpOT_, symObjAddr: 0xDA7C, symBinAddr: 0x10001D588, symSize: 0xD0 }
  - { offsetInCU: 0x34AC2, offset: 0xB8B54, size: 0x8, addend: 0x0, symName: __ZNSt3__116allocator_traitsINS_9allocatorIN3tmx8PropertyEEEE9constructB8ue170006IS3_JEvEEvRS4_PT_DpOT0_, symObjAddr: 0xDB4C, symBinAddr: 0x10001D658, symSize: 0x2C }
  - { offsetInCU: 0x34B04, offset: 0xB8B96, size: 0x8, addend: 0x0, symName: __ZNSt3__19allocatorIN3tmx8PropertyEE9constructB8ue170006IS2_JEEEvPT_DpOT0_, symObjAddr: 0xDB78, symBinAddr: 0x10001D684, symSize: 0x28 }
  - { offsetInCU: 0x34B46, offset: 0xB8BD8, size: 0x8, addend: 0x0, symName: __ZNSt3__114__split_bufferIN3tmx8PropertyERNS_9allocatorIS2_EEEC1EmmS5_, symObjAddr: 0xDBA0, symBinAddr: 0x10001D6AC, symSize: 0x44 }
  - { offsetInCU: 0x34B9C, offset: 0xB8C2E, size: 0x8, addend: 0x0, symName: __ZNSt3__114__split_bufferIN3tmx8PropertyERNS_9allocatorIS2_EEED1Ev, symObjAddr: 0xDCF4, symBinAddr: 0x10001D800, symSize: 0x2C }
  - { offsetInCU: 0x34BC8, offset: 0xB8C5A, size: 0x8, addend: 0x0, symName: __ZNSt3__114__split_bufferIN3tmx8PropertyERNS_9allocatorIS2_EEEC2EmmS5_, symObjAddr: 0xDD20, symBinAddr: 0x10001D82C, symSize: 0xE0 }
  - { offsetInCU: 0x34C3B, offset: 0xB8CCD, size: 0x8, addend: 0x0, symName: __ZNSt3__117__compressed_pairIPN3tmx8PropertyERNS_9allocatorIS2_EEEC1B8ue170006IDnS6_EEOT_OT0_, symObjAddr: 0xDE00, symBinAddr: 0x10001D90C, symSize: 0x3C }
  - { offsetInCU: 0x34C93, offset: 0xB8D25, size: 0x8, addend: 0x0, symName: __ZNSt3__114__split_bufferIN3tmx8PropertyERNS_9allocatorIS2_EEE7__allocB8ue170006Ev, symObjAddr: 0xDE3C, symBinAddr: 0x10001D948, symSize: 0x28 }
  - { offsetInCU: 0x34CB9, offset: 0xB8D4B, size: 0x8, addend: 0x0, symName: __ZNSt3__114__split_bufferIN3tmx8PropertyERNS_9allocatorIS2_EEE9__end_capB8ue170006Ev, symObjAddr: 0xDE64, symBinAddr: 0x10001D970, symSize: 0x28 }
  - { offsetInCU: 0x34CDF, offset: 0xB8D71, size: 0x8, addend: 0x0, symName: __ZNSt3__117__compressed_pairIPN3tmx8PropertyERNS_9allocatorIS2_EEEC2B8ue170006IDnS6_EEOT_OT0_, symObjAddr: 0xDE8C, symBinAddr: 0x10001D998, symSize: 0x48 }
  - { offsetInCU: 0x34D37, offset: 0xB8DC9, size: 0x8, addend: 0x0, symName: __ZNSt3__122__compressed_pair_elemIRNS_9allocatorIN3tmx8PropertyEEELi1ELb0EEC2B8ue170006IS5_vEEOT_, symObjAddr: 0xDED4, symBinAddr: 0x10001D9E0, symSize: 0x20 }
  - { offsetInCU: 0x34D79, offset: 0xB8E0B, size: 0x8, addend: 0x0, symName: __ZNSt3__117__compressed_pairIPN3tmx8PropertyERNS_9allocatorIS2_EEE6secondB8ue170006Ev, symObjAddr: 0xDEF4, symBinAddr: 0x10001DA00, symSize: 0x28 }
  - { offsetInCU: 0x34D9F, offset: 0xB8E31, size: 0x8, addend: 0x0, symName: __ZNSt3__122__compressed_pair_elemIRNS_9allocatorIN3tmx8PropertyEEELi1ELb0EE5__getB8ue170006Ev, symObjAddr: 0xDF1C, symBinAddr: 0x10001DA28, symSize: 0x18 }
  - { offsetInCU: 0x34DC5, offset: 0xB8E57, size: 0x8, addend: 0x0, symName: __ZNSt3__117__compressed_pairIPN3tmx8PropertyERNS_9allocatorIS2_EEE5firstB8ue170006Ev, symObjAddr: 0xDF34, symBinAddr: 0x10001DA40, symSize: 0x24 }
  - { offsetInCU: 0x34DEB, offset: 0xB8E7D, size: 0x8, addend: 0x0, symName: __ZNSt3__129_AllocatorDestroyRangeReverseINS_9allocatorIN3tmx8PropertyEEENS_16reverse_iteratorIPS3_EEEC1B8ue170006ERS4_RS7_SA_, symObjAddr: 0xE0FC, symBinAddr: 0x10001DC08, symSize: 0x44 }
  - { offsetInCU: 0x34E47, offset: 0xB8ED9, size: 0x8, addend: 0x0, symName: __ZNSt3__116allocator_traitsINS_9allocatorIN3tmx8PropertyEEEE9constructB8ue170006IS3_JS3_EvEEvRS4_PT_DpOT0_, symObjAddr: 0xE140, symBinAddr: 0x10001DC4C, symSize: 0x34 }
  - { offsetInCU: 0x34E9E, offset: 0xB8F30, size: 0x8, addend: 0x0, symName: __ZNSt3__128__exception_guard_exceptionsINS_29_AllocatorDestroyRangeReverseINS_9allocatorIN3tmx8PropertyEEENS_16reverse_iteratorIPS4_EEEEE10__completeB8ue170006Ev, symObjAddr: 0xE174, symBinAddr: 0x10001DC80, symSize: 0x1C }
  - { offsetInCU: 0x34EC4, offset: 0xB8F56, size: 0x8, addend: 0x0, symName: __ZNSt3__128__exception_guard_exceptionsINS_29_AllocatorDestroyRangeReverseINS_9allocatorIN3tmx8PropertyEEENS_16reverse_iteratorIPS4_EEEEED1B8ue170006Ev, symObjAddr: 0xE190, symBinAddr: 0x10001DC9C, symSize: 0x2C }
  - { offsetInCU: 0x34EEE, offset: 0xB8F80, size: 0x8, addend: 0x0, symName: __ZNSt3__128__exception_guard_exceptionsINS_29_AllocatorDestroyRangeReverseINS_9allocatorIN3tmx8PropertyEEENS_16reverse_iteratorIPS4_EEEEEC1B8ue170006ES9_, symObjAddr: 0xE1BC, symBinAddr: 0x10001DCC8, symSize: 0x34 }
  - { offsetInCU: 0x34F27, offset: 0xB8FB9, size: 0x8, addend: 0x0, symName: __ZNSt3__128__exception_guard_exceptionsINS_29_AllocatorDestroyRangeReverseINS_9allocatorIN3tmx8PropertyEEENS_16reverse_iteratorIPS4_EEEEEC2B8ue170006ES9_, symObjAddr: 0xE1F0, symBinAddr: 0x10001DCFC, symSize: 0x30 }
  - { offsetInCU: 0x34F60, offset: 0xB8FF2, size: 0x8, addend: 0x0, symName: __ZNSt3__129_AllocatorDestroyRangeReverseINS_9allocatorIN3tmx8PropertyEEENS_16reverse_iteratorIPS3_EEEC2B8ue170006ERS4_RS7_SA_, symObjAddr: 0xE220, symBinAddr: 0x10001DD2C, symSize: 0x38 }
  - { offsetInCU: 0x34FB7, offset: 0xB9049, size: 0x8, addend: 0x0, symName: __ZNSt3__19allocatorIN3tmx8PropertyEE9constructB8ue170006IS2_JS2_EEEvPT_DpOT0_, symObjAddr: 0xE258, symBinAddr: 0x10001DD64, symSize: 0x30 }
  - { offsetInCU: 0x3500D, offset: 0xB909F, size: 0x8, addend: 0x0, symName: __ZN3tmx8PropertyC1EOS0_, symObjAddr: 0xE288, symBinAddr: 0x10001DD94, symSize: 0x34 }
  - { offsetInCU: 0x35042, offset: 0xB90D4, size: 0x8, addend: 0x0, symName: __ZN3tmx8PropertyC2EOS0_, symObjAddr: 0xE2BC, symBinAddr: 0x10001DDC8, symSize: 0x9C }
  - { offsetInCU: 0x35077, offset: 0xB9109, size: 0x8, addend: 0x0, symName: __ZNSt3__112basic_stringIcNS_11char_traitsIcEENS_9allocatorIcEEEC1B8ue170006EOS5_, symObjAddr: 0xE358, symBinAddr: 0x10001DE64, symSize: 0x34 }
  - { offsetInCU: 0x350B0, offset: 0xB9142, size: 0x8, addend: 0x0, symName: __ZNSt3__16vectorIN3tmx8PropertyENS_9allocatorIS2_EEEC1B8ue170006EOS5_, symObjAddr: 0xE38C, symBinAddr: 0x10001DE98, symSize: 0x34 }
  - { offsetInCU: 0x350EB, offset: 0xB917D, size: 0x8, addend: 0x0, symName: __ZNSt3__112basic_stringIcNS_11char_traitsIcEENS_9allocatorIcEEEC2B8ue170006EOS5_, symObjAddr: 0xE3C0, symBinAddr: 0x10001DECC, symSize: 0x48 }
  - { offsetInCU: 0x35124, offset: 0xB91B6, size: 0x8, addend: 0x0, symName: __ZNSt3__16vectorIN3tmx8PropertyENS_9allocatorIS2_EEEC2B8ue170006EOS5_, symObjAddr: 0xE408, symBinAddr: 0x10001DF14, symSize: 0xC4 }
  - { offsetInCU: 0x3515F, offset: 0xB91F1, size: 0x8, addend: 0x0, symName: __ZNSt3__128__exception_guard_exceptionsINS_29_AllocatorDestroyRangeReverseINS_9allocatorIN3tmx8PropertyEEENS_16reverse_iteratorIPS4_EEEEED2B8ue170006Ev, symObjAddr: 0xE4CC, symBinAddr: 0x10001DFD8, symSize: 0x50 }
  - { offsetInCU: 0x35189, offset: 0xB921B, size: 0x8, addend: 0x0, symName: __ZNKSt3__129_AllocatorDestroyRangeReverseINS_9allocatorIN3tmx8PropertyEEENS_16reverse_iteratorIPS3_EEEclB8ue170006Ev, symObjAddr: 0xE51C, symBinAddr: 0x10001E028, symSize: 0xB4 }
  - { offsetInCU: 0x351B0, offset: 0xB9242, size: 0x8, addend: 0x0, symName: __ZNSt3__116reverse_iteratorINS0_IPN3tmx8PropertyEEEEC1B8ue170006ES4_, symObjAddr: 0xE640, symBinAddr: 0x10001E14C, symSize: 0x3C }
  - { offsetInCU: 0x351E8, offset: 0xB927A, size: 0x8, addend: 0x0, symName: __ZNSt3__116reverse_iteratorINS0_IPN3tmx8PropertyEEEEppB8ue170006Ev, symObjAddr: 0xE700, symBinAddr: 0x10001E20C, symSize: 0x30 }
  - { offsetInCU: 0x3520E, offset: 0xB92A0, size: 0x8, addend: 0x0, symName: __ZNKSt3__116reverse_iteratorINS0_IPN3tmx8PropertyEEEE4baseB8ue170006Ev, symObjAddr: 0xE730, symBinAddr: 0x10001E23C, symSize: 0x24 }
  - { offsetInCU: 0x35239, offset: 0xB92CB, size: 0x8, addend: 0x0, symName: __ZNSt3__119__to_address_helperINS_16reverse_iteratorINS1_IPN3tmx8PropertyEEEEEvE6__callB8ue170006ERKS6_, symObjAddr: 0xE754, symBinAddr: 0x10001E260, symSize: 0x38 }
  - { offsetInCU: 0x3525C, offset: 0xB92EE, size: 0x8, addend: 0x0, symName: __ZNKSt3__116reverse_iteratorINS0_IPN3tmx8PropertyEEEEptB8ue170006Ev, symObjAddr: 0xE78C, symBinAddr: 0x10001E298, symSize: 0x24 }
  - { offsetInCU: 0x35282, offset: 0xB9314, size: 0x8, addend: 0x0, symName: __ZNKSt3__116reverse_iteratorINS0_IPN3tmx8PropertyEEEEdeB8ue170006Ev, symObjAddr: 0xE7B0, symBinAddr: 0x10001E2BC, symSize: 0x34 }
  - { offsetInCU: 0x352B7, offset: 0xB9349, size: 0x8, addend: 0x0, symName: __ZNSt3__116reverse_iteratorIPN3tmx8PropertyEEmmB8ue170006Ev, symObjAddr: 0xE7E4, symBinAddr: 0x10001E2F0, symSize: 0x20 }
  - { offsetInCU: 0x352DD, offset: 0xB936F, size: 0x8, addend: 0x0, symName: __ZNSt3__116reverse_iteratorINS0_IPN3tmx8PropertyEEEEC2B8ue170006ES4_, symObjAddr: 0xE804, symBinAddr: 0x10001E310, symSize: 0x2C }
  - { offsetInCU: 0x35315, offset: 0xB93A7, size: 0x8, addend: 0x0, symName: __ZNSt3__114__split_bufferIN3tmx8PropertyERNS_9allocatorIS2_EEED2Ev, symObjAddr: 0xE830, symBinAddr: 0x10001E33C, symSize: 0x8C }
  - { offsetInCU: 0x35341, offset: 0xB93D3, size: 0x8, addend: 0x0, symName: __ZNSt3__114__split_bufferIN3tmx8PropertyERNS_9allocatorIS2_EEE5clearB8ue170006Ev, symObjAddr: 0xE8BC, symBinAddr: 0x10001E3C8, symSize: 0x28 }
  - { offsetInCU: 0x35367, offset: 0xB93F9, size: 0x8, addend: 0x0, symName: __ZNKSt3__114__split_bufferIN3tmx8PropertyERNS_9allocatorIS2_EEE8capacityB8ue170006Ev, symObjAddr: 0xE8E4, symBinAddr: 0x10001E3F0, symSize: 0x40 }
  - { offsetInCU: 0x3538D, offset: 0xB941F, size: 0x8, addend: 0x0, symName: __ZNSt3__114__split_bufferIN3tmx8PropertyERNS_9allocatorIS2_EEE17__destruct_at_endB8ue170006EPS2_, symObjAddr: 0xE924, symBinAddr: 0x10001E430, symSize: 0x2C }
  - { offsetInCU: 0x353C1, offset: 0xB9453, size: 0x8, addend: 0x0, symName: __ZNSt3__114__split_bufferIN3tmx8PropertyERNS_9allocatorIS2_EEE17__destruct_at_endB8ue170006EPS2_NS_17integral_constantIbLb0EEE, symObjAddr: 0xE950, symBinAddr: 0x10001E45C, symSize: 0x80 }
  - { offsetInCU: 0x35402, offset: 0xB9494, size: 0x8, addend: 0x0, symName: __ZNKSt3__114__split_bufferIN3tmx8PropertyERNS_9allocatorIS2_EEE9__end_capB8ue170006Ev, symObjAddr: 0xE9D0, symBinAddr: 0x10001E4DC, symSize: 0x28 }
  - { offsetInCU: 0x35428, offset: 0xB94BA, size: 0x8, addend: 0x0, symName: __ZNKSt3__117__compressed_pairIPN3tmx8PropertyERNS_9allocatorIS2_EEE5firstB8ue170006Ev, symObjAddr: 0xE9F8, symBinAddr: 0x10001E504, symSize: 0x24 }
  - { offsetInCU: 0x3544E, offset: 0xB94E0, size: 0x8, addend: 0x0, symName: __ZNSt3__19allocatorIcEC1B8ue170006Ev, symObjAddr: 0xEA74, symBinAddr: 0x10001E528, symSize: 0x2C }
  - { offsetInCU: 0x35482, offset: 0xB9514, size: 0x8, addend: 0x0, symName: __ZNSt3__116allocator_traitsINS_9allocatorIcEEE37select_on_container_copy_constructionB8ue170006IS2_vvEES2_RKS2_, symObjAddr: 0xEAA0, symBinAddr: 0x10001E554, symSize: 0x10 }
  - { offsetInCU: 0x354B1, offset: 0xB9543, size: 0x8, addend: 0x0, symName: __ZNSt3__112basic_stringIcNS_11char_traitsIcEENS_9allocatorIcEEEC1B8ue170006ENS_24__uninitialized_size_tagEmRKS4_, symObjAddr: 0xEAB0, symBinAddr: 0x10001E564, symSize: 0x3C }
  - { offsetInCU: 0x35505, offset: 0xB9597, size: 0x8, addend: 0x0, symName: __ZNSt3__111char_traitsIcE4copyB8ue170006EPcPKcm, symObjAddr: 0xEAEC, symBinAddr: 0x10001E5A0, symSize: 0x40 }
  - { offsetInCU: 0x35544, offset: 0xB95D6, size: 0x8, addend: 0x0, symName: __ZNSt3__111char_traitsIcE6assignB8ue170006EPcmc, symObjAddr: 0xEB2C, symBinAddr: 0x10001E5E0, symSize: 0x44 }
  - { offsetInCU: 0x35583, offset: 0xB9615, size: 0x8, addend: 0x0, symName: __ZNSt3__112basic_stringIcNS_11char_traitsIcEENS_9allocatorIcEEEC2B8ue170006ENS_24__uninitialized_size_tagEmRKS4_, symObjAddr: 0xEB70, symBinAddr: 0x10001E624, symSize: 0x110 }
  - { offsetInCU: 0x35603, offset: 0xB9695, size: 0x8, addend: 0x0, symName: __ZNSt3__116allocator_traitsINS_9allocatorIcEEE8allocateB8ue170006ERS2_m, symObjAddr: 0xEDEC, symBinAddr: 0x10001E734, symSize: 0x2C }
  - { offsetInCU: 0x3564F, offset: 0xB96E1, size: 0x8, addend: 0x0, symName: __ZNKSt3__114__copy_trivialclB8ue170006IKccLi0EEENS_4pairIPT_PT0_EES5_S5_S7_, symObjAddr: 0xF1F4, symBinAddr: 0x10001E980, symSize: 0x48 }
  - { offsetInCU: 0x356D6, offset: 0xB9768, size: 0x8, addend: 0x0, symName: __ZNSt3__14pairIPKcS2_EC1B8ue170006IS2_S2_LPv0EEEOT_OT0_, symObjAddr: 0xF35C, symBinAddr: 0x10001EAE8, symSize: 0x3C }
  - { offsetInCU: 0x35735, offset: 0xB97C7, size: 0x8, addend: 0x0, symName: __ZNSt3__14pairIPKcS2_EC2B8ue170006IS2_S2_LPv0EEEOT_OT0_, symObjAddr: 0xF398, symBinAddr: 0x10001EB24, symSize: 0x34 }
  - { offsetInCU: 0x35794, offset: 0xB9826, size: 0x8, addend: 0x0, symName: __ZNSt3__118__unwrap_iter_implIPKcLb1EE8__unwrapB8ue170006ES2_, symObjAddr: 0xF3CC, symBinAddr: 0x10001EB58, symSize: 0x24 }
  - { offsetInCU: 0x357C1, offset: 0xB9853, size: 0x8, addend: 0x0, symName: __ZNSt3__14pairIPKcPcEC1B8ue170006IRS2_S3_LPv0EEEOT_OT0_, symObjAddr: 0xF504, symBinAddr: 0x10001EC90, symSize: 0x3C }
  - { offsetInCU: 0x35820, offset: 0xB98B2, size: 0x8, addend: 0x0, symName: __ZNSt3__14pairIPKcPcEC2B8ue170006IRS2_S3_LPv0EEEOT_OT0_, symObjAddr: 0xF540, symBinAddr: 0x10001ECCC, symSize: 0x34 }
  - { offsetInCU: 0x3587F, offset: 0xB9911, size: 0x8, addend: 0x0, symName: __ZNSt3__118__unwrap_iter_implIPcLb1EE8__unwrapB8ue170006ES1_, symObjAddr: 0xF574, symBinAddr: 0x10001ED00, symSize: 0x24 }
  - { offsetInCU: 0x358A2, offset: 0xB9934, size: 0x8, addend: 0x0, symName: __ZNSt3__14pairIPKcPcEC1B8ue170006IS2_S3_LPv0EEEOT_OT0_, symObjAddr: 0xF598, symBinAddr: 0x10001ED24, symSize: 0x3C }
  - { offsetInCU: 0x35901, offset: 0xB9993, size: 0x8, addend: 0x0, symName: __ZNSt3__14pairIPKcPcEC2B8ue170006IS2_S3_LPv0EEEOT_OT0_, symObjAddr: 0xF5D4, symBinAddr: 0x10001ED60, symSize: 0x34 }
  - { offsetInCU: 0x35960, offset: 0xB99F2, size: 0x8, addend: 0x0, symName: __ZNSt3__118__unwrap_iter_implIPKcLb1EE8__rewrapB8ue170006ES2_S2_, symObjAddr: 0xF644, symBinAddr: 0x10001EDD0, symSize: 0x48 }
  - { offsetInCU: 0x35991, offset: 0xB9A23, size: 0x8, addend: 0x0, symName: __ZNSt3__118__unwrap_iter_implIPcLb1EE8__rewrapB8ue170006ES1_S1_, symObjAddr: 0xF68C, symBinAddr: 0x10001EE18, symSize: 0x48 }
  - { offsetInCU: 0x359C2, offset: 0xB9A54, size: 0x8, addend: 0x0, symName: __ZNSt3__16vectorIN3tmx7TilesetENS_9allocatorIS2_EEEC2B8ue170006Ev, symObjAddr: 0xF790, symBinAddr: 0x10001EF1C, symSize: 0x4C }
  - { offsetInCU: 0x359EC, offset: 0xB9A7E, size: 0x8, addend: 0x0, symName: __ZNSt3__117__compressed_pairIPN3tmx7TilesetENS_9allocatorIS2_EEEC1B8ue170006IDnNS_18__default_init_tagEEEOT_OT0_, symObjAddr: 0xF7DC, symBinAddr: 0x10001EF68, symSize: 0x3C }
  - { offsetInCU: 0x35A44, offset: 0xB9AD6, size: 0x8, addend: 0x0, symName: __ZNSt3__117__compressed_pairIPN3tmx7TilesetENS_9allocatorIS2_EEEC2B8ue170006IDnNS_18__default_init_tagEEEOT_OT0_, symObjAddr: 0xF818, symBinAddr: 0x10001EFA4, symSize: 0x40 }
  - { offsetInCU: 0x35A9C, offset: 0xB9B2E, size: 0x8, addend: 0x0, symName: __ZNSt3__122__compressed_pair_elemIPN3tmx7TilesetELi0ELb0EEC2B8ue170006IDnvEEOT_, symObjAddr: 0xF858, symBinAddr: 0x10001EFE4, symSize: 0x1C }
  - { offsetInCU: 0x35ADE, offset: 0xB9B70, size: 0x8, addend: 0x0, symName: __ZNSt3__122__compressed_pair_elemINS_9allocatorIN3tmx7TilesetEEELi1ELb1EEC2B8ue170006ENS_18__default_init_tagE, symObjAddr: 0xF874, symBinAddr: 0x10001F000, symSize: 0x2C }
  - { offsetInCU: 0x35B13, offset: 0xB9BA5, size: 0x8, addend: 0x0, symName: __ZNSt3__19allocatorIN3tmx7TilesetEEC2B8ue170006Ev, symObjAddr: 0xF8A0, symBinAddr: 0x10001F02C, symSize: 0x2C }
  - { offsetInCU: 0x35B3D, offset: 0xB9BCF, size: 0x8, addend: 0x0, symName: __ZNSt3__116__non_trivial_ifILb1ENS_9allocatorIN3tmx7TilesetEEEEC2B8ue170006Ev, symObjAddr: 0xF8CC, symBinAddr: 0x10001F058, symSize: 0x14 }
  - { offsetInCU: 0x35B67, offset: 0xB9BF9, size: 0x8, addend: 0x0, symName: __ZNSt3__16vectorINS_10unique_ptrIN3tmx5LayerENS_14default_deleteIS3_EEEENS_9allocatorIS6_EEEC2B8ue170006Ev, symObjAddr: 0xF8E0, symBinAddr: 0x10001F06C, symSize: 0x4C }
  - { offsetInCU: 0x35B91, offset: 0xB9C23, size: 0x8, addend: 0x0, symName: __ZNSt3__117__compressed_pairIPNS_10unique_ptrIN3tmx5LayerENS_14default_deleteIS3_EEEENS_9allocatorIS6_EEEC1B8ue170006IDnNS_18__default_init_tagEEEOT_OT0_, symObjAddr: 0xF92C, symBinAddr: 0x10001F0B8, symSize: 0x3C }
  - { offsetInCU: 0x35BE9, offset: 0xB9C7B, size: 0x8, addend: 0x0, symName: __ZNSt3__117__compressed_pairIPNS_10unique_ptrIN3tmx5LayerENS_14default_deleteIS3_EEEENS_9allocatorIS6_EEEC2B8ue170006IDnNS_18__default_init_tagEEEOT_OT0_, symObjAddr: 0xF968, symBinAddr: 0x10001F0F4, symSize: 0x40 }
  - { offsetInCU: 0x35C41, offset: 0xB9CD3, size: 0x8, addend: 0x0, symName: __ZNSt3__122__compressed_pair_elemIPNS_10unique_ptrIN3tmx5LayerENS_14default_deleteIS3_EEEELi0ELb0EEC2B8ue170006IDnvEEOT_, symObjAddr: 0xF9A8, symBinAddr: 0x10001F134, symSize: 0x1C }
  - { offsetInCU: 0x35C83, offset: 0xB9D15, size: 0x8, addend: 0x0, symName: __ZNSt3__122__compressed_pair_elemINS_9allocatorINS_10unique_ptrIN3tmx5LayerENS_14default_deleteIS4_EEEEEELi1ELb1EEC2B8ue170006ENS_18__default_init_tagE, symObjAddr: 0xF9C4, symBinAddr: 0x10001F150, symSize: 0x2C }
  - { offsetInCU: 0x35CB8, offset: 0xB9D4A, size: 0x8, addend: 0x0, symName: __ZNSt3__19allocatorINS_10unique_ptrIN3tmx5LayerENS_14default_deleteIS3_EEEEEC2B8ue170006Ev, symObjAddr: 0xF9F0, symBinAddr: 0x10001F17C, symSize: 0x2C }
  - { offsetInCU: 0x35CE2, offset: 0xB9D74, size: 0x8, addend: 0x0, symName: __ZNSt3__116__non_trivial_ifILb1ENS_9allocatorINS_10unique_ptrIN3tmx5LayerENS_14default_deleteIS4_EEEEEEEC2B8ue170006Ev, symObjAddr: 0xFA1C, symBinAddr: 0x10001F1A8, symSize: 0x14 }
  - { offsetInCU: 0x35D0C, offset: 0xB9D9E, size: 0x8, addend: 0x0, symName: __ZNSt3__13mapIjN3tmx7Tileset4TileENS_4lessIjEENS_9allocatorINS_4pairIKjS3_EEEEEC2B8ue170006Ev, symObjAddr: 0xFA30, symBinAddr: 0x10001F1BC, symSize: 0x40 }
  - { offsetInCU: 0x35D36, offset: 0xB9DC8, size: 0x8, addend: 0x0, symName: __ZNSt3__119__map_value_compareIjNS_12__value_typeIjN3tmx7Tileset4TileEEENS_4lessIjEELb1EEC1B8ue170006ES7_, symObjAddr: 0xFA70, symBinAddr: 0x10001F1FC, symSize: 0x2C }
  - { offsetInCU: 0x35D6F, offset: 0xB9E01, size: 0x8, addend: 0x0, symName: __ZNSt3__16__treeINS_12__value_typeIjN3tmx7Tileset4TileEEENS_19__map_value_compareIjS5_NS_4lessIjEELb1EEENS_9allocatorIS5_EEEC1ERKS9_, symObjAddr: 0xFA9C, symBinAddr: 0x10001F228, symSize: 0x34 }
  - { offsetInCU: 0x35DAA, offset: 0xB9E3C, size: 0x8, addend: 0x0, symName: __ZNSt3__119__map_value_compareIjNS_12__value_typeIjN3tmx7Tileset4TileEEENS_4lessIjEELb1EEC2B8ue170006ES7_, symObjAddr: 0xFAD0, symBinAddr: 0x10001F25C, symSize: 0x14 }
  - { offsetInCU: 0x35DE3, offset: 0xB9E75, size: 0x8, addend: 0x0, symName: __ZNSt3__16__treeINS_12__value_typeIjN3tmx7Tileset4TileEEENS_19__map_value_compareIjS5_NS_4lessIjEELb1EEENS_9allocatorIS5_EEEC2ERKS9_, symObjAddr: 0xFAE4, symBinAddr: 0x10001F270, symSize: 0x7C }
  - { offsetInCU: 0x35E1E, offset: 0xB9EB0, size: 0x8, addend: 0x0, symName: __ZNSt3__117__compressed_pairINS_15__tree_end_nodeIPNS_16__tree_node_baseIPvEEEENS_9allocatorINS_11__tree_nodeINS_12__value_typeIjN3tmx7Tileset4TileEEES3_EEEEEC1B8ue170006ILb1EvEEv, symObjAddr: 0xFB60, symBinAddr: 0x10001F2EC, symSize: 0x2C }
  - { offsetInCU: 0x35E53, offset: 0xB9EE5, size: 0x8, addend: 0x0, symName: __ZNSt3__117__compressed_pairImNS_19__map_value_compareIjNS_12__value_typeIjN3tmx7Tileset4TileEEENS_4lessIjEELb1EEEEC1B8ue170006IiRKS9_EEOT_OT0_, symObjAddr: 0xFB8C, symBinAddr: 0x10001F318, symSize: 0x3C }
  - { offsetInCU: 0x35EAB, offset: 0xB9F3D, size: 0x8, addend: 0x0, symName: __ZNSt3__16__treeINS_12__value_typeIjN3tmx7Tileset4TileEEENS_19__map_value_compareIjS5_NS_4lessIjEELb1EEENS_9allocatorIS5_EEE10__end_nodeB8ue170006Ev, symObjAddr: 0xFBC8, symBinAddr: 0x10001F354, symSize: 0x2C }
  - { offsetInCU: 0x35ED1, offset: 0xB9F63, size: 0x8, addend: 0x0, symName: __ZNSt3__16__treeINS_12__value_typeIjN3tmx7Tileset4TileEEENS_19__map_value_compareIjS5_NS_4lessIjEELb1EEENS_9allocatorIS5_EEE12__begin_nodeB8ue170006Ev, symObjAddr: 0xFBF4, symBinAddr: 0x10001F380, symSize: 0x14 }
  - { offsetInCU: 0x35EF7, offset: 0xB9F89, size: 0x8, addend: 0x0, symName: __ZNSt3__117__compressed_pairINS_15__tree_end_nodeIPNS_16__tree_node_baseIPvEEEENS_9allocatorINS_11__tree_nodeINS_12__value_typeIjN3tmx7Tileset4TileEEES3_EEEEEC2B8ue170006ILb1EvEEv, symObjAddr: 0xFC08, symBinAddr: 0x10001F394, symSize: 0x34 }
  - { offsetInCU: 0x35F2C, offset: 0xB9FBE, size: 0x8, addend: 0x0, symName: __ZNSt3__122__compressed_pair_elemINS_9allocatorINS_11__tree_nodeINS_12__value_typeIjN3tmx7Tileset4TileEEEPvEEEELi1ELb1EEC2B8ue170006ENS_16__value_init_tagE, symObjAddr: 0xFC68, symBinAddr: 0x10001F3C8, symSize: 0x2C }
  - { offsetInCU: 0x35F61, offset: 0xB9FF3, size: 0x8, addend: 0x0, symName: __ZNSt3__19allocatorINS_11__tree_nodeINS_12__value_typeIjN3tmx7Tileset4TileEEEPvEEEC2B8ue170006Ev, symObjAddr: 0xFCD8, symBinAddr: 0x10001F3F4, symSize: 0x2C }
  - { offsetInCU: 0x35F8B, offset: 0xBA01D, size: 0x8, addend: 0x0, symName: __ZNSt3__116__non_trivial_ifILb1ENS_9allocatorINS_11__tree_nodeINS_12__value_typeIjN3tmx7Tileset4TileEEEPvEEEEEC2B8ue170006Ev, symObjAddr: 0xFD04, symBinAddr: 0x10001F420, symSize: 0x14 }
  - { offsetInCU: 0x35FB5, offset: 0xBA047, size: 0x8, addend: 0x0, symName: __ZNSt3__117__compressed_pairImNS_19__map_value_compareIjNS_12__value_typeIjN3tmx7Tileset4TileEEENS_4lessIjEELb1EEEEC2B8ue170006IiRKS9_EEOT_OT0_, symObjAddr: 0xFD18, symBinAddr: 0x10001F434, symSize: 0x44 }
  - { offsetInCU: 0x3600D, offset: 0xBA09F, size: 0x8, addend: 0x0, symName: __ZNSt3__122__compressed_pair_elemINS_19__map_value_compareIjNS_12__value_typeIjN3tmx7Tileset4TileEEENS_4lessIjEELb1EEELi1ELb1EEC2B8ue170006IRKS9_vEEOT_, symObjAddr: 0xFD5C, symBinAddr: 0x10001F478, symSize: 0x18 }
  - { offsetInCU: 0x3604F, offset: 0xBA0E1, size: 0x8, addend: 0x0, symName: __ZNSt3__117__compressed_pairINS_15__tree_end_nodeIPNS_16__tree_node_baseIPvEEEENS_9allocatorINS_11__tree_nodeINS_12__value_typeIjN3tmx7Tileset4TileEEES3_EEEEE5firstB8ue170006Ev, symObjAddr: 0xFD88, symBinAddr: 0x10001F490, symSize: 0x24 }
  - { offsetInCU: 0x36075, offset: 0xBA107, size: 0x8, addend: 0x0, symName: __ZNSt3__113unordered_mapINS_12basic_stringIcNS_11char_traitsIcEENS_9allocatorIcEEEEN3tmx6ObjectENS_4hashIS6_EENS_8equal_toIS6_EENS4_INS_4pairIKS6_S8_EEEEEC2B8ue170006Ev, symObjAddr: 0xFDC0, symBinAddr: 0x10001F4B4, symSize: 0x2C }
  - { offsetInCU: 0x3609F, offset: 0xBA131, size: 0x8, addend: 0x0, symName: __ZNSt3__112__hash_tableINS_17__hash_value_typeINS_12basic_stringIcNS_11char_traitsIcEENS_9allocatorIcEEEEN3tmx6ObjectEEENS_22__unordered_map_hasherIS7_SA_NS_4hashIS7_EENS_8equal_toIS7_EELb1EEENS_21__unordered_map_equalIS7_SA_SF_SD_Lb1EEENS5_ISA_EEEC1Ev, symObjAddr: 0xFDEC, symBinAddr: 0x10001F4E0, symSize: 0x2C }
  - { offsetInCU: 0x360CB, offset: 0xBA15D, size: 0x8, addend: 0x0, symName: __ZNSt3__112__hash_tableINS_17__hash_value_typeINS_12basic_stringIcNS_11char_traitsIcEENS_9allocatorIcEEEEN3tmx6ObjectEEENS_22__unordered_map_hasherIS7_SA_NS_4hashIS7_EENS_8equal_toIS7_EELb1EEENS_21__unordered_map_equalIS7_SA_SF_SD_Lb1EEENS5_ISA_EEEC2Ev, symObjAddr: 0xFE18, symBinAddr: 0x10001F50C, symSize: 0x7C }
  - { offsetInCU: 0x360F7, offset: 0xBA189, size: 0x8, addend: 0x0, symName: __ZNSt3__110unique_ptrIA_PNS_16__hash_node_baseIPNS_11__hash_nodeINS_17__hash_value_typeINS_12basic_stringIcNS_11char_traitsIcEENS_9allocatorIcEEEEN3tmx6ObjectEEEPvEEEENS_25__bucket_list_deallocatorINS7_ISH_EEEEEC1B8ue170006ILb1EvEEv, symObjAddr: 0xFE94, symBinAddr: 0x10001F588, symSize: 0x2C }
  - { offsetInCU: 0x3612C, offset: 0xBA1BE, size: 0x8, addend: 0x0, symName: __ZNSt3__117__compressed_pairINS_16__hash_node_baseIPNS_11__hash_nodeINS_17__hash_value_typeINS_12basic_stringIcNS_11char_traitsIcEENS_9allocatorIcEEEEN3tmx6ObjectEEEPvEEEENS7_ISE_EEEC1B8ue170006ILb1EvEEv, symObjAddr: 0xFEC0, symBinAddr: 0x10001F5B4, symSize: 0x2C }
  - { offsetInCU: 0x36161, offset: 0xBA1F3, size: 0x8, addend: 0x0, symName: __ZNSt3__117__compressed_pairImNS_22__unordered_map_hasherINS_12basic_stringIcNS_11char_traitsIcEENS_9allocatorIcEEEENS_17__hash_value_typeIS7_N3tmx6ObjectEEENS_4hashIS7_EENS_8equal_toIS7_EELb1EEEEC1B8ue170006IiNS_18__default_init_tagEEEOT_OT0_, symObjAddr: 0xFEEC, symBinAddr: 0x10001F5E0, symSize: 0x3C }
  - { offsetInCU: 0x361BE, offset: 0xBA250, size: 0x8, addend: 0x0, symName: __ZNSt3__117__compressed_pairIfNS_21__unordered_map_equalINS_12basic_stringIcNS_11char_traitsIcEENS_9allocatorIcEEEENS_17__hash_value_typeIS7_N3tmx6ObjectEEENS_8equal_toIS7_EENS_4hashIS7_EELb1EEEEC1B8ue170006IfNS_18__default_init_tagEEEOT_OT0_, symObjAddr: 0xFF28, symBinAddr: 0x10001F61C, symSize: 0x3C }
  - { offsetInCU: 0x36216, offset: 0xBA2A8, size: 0x8, addend: 0x0, symName: __ZNSt3__110unique_ptrIA_PNS_16__hash_node_baseIPNS_11__hash_nodeINS_17__hash_value_typeINS_12basic_stringIcNS_11char_traitsIcEENS_9allocatorIcEEEEN3tmx6ObjectEEEPvEEEENS_25__bucket_list_deallocatorINS7_ISH_EEEEEC2B8ue170006ILb1EvEEv, symObjAddr: 0xFF64, symBinAddr: 0x10001F658, symSize: 0x3C }
  - { offsetInCU: 0x36250, offset: 0xBA2E2, size: 0x8, addend: 0x0, symName: __ZNSt3__117__compressed_pairIPPNS_16__hash_node_baseIPNS_11__hash_nodeINS_17__hash_value_typeINS_12basic_stringIcNS_11char_traitsIcEENS_9allocatorIcEEEEN3tmx6ObjectEEEPvEEEENS_25__bucket_list_deallocatorINS7_ISH_EEEEEC1B8ue170006INS_16__value_init_tagESO_EEOT_OT0_, symObjAddr: 0xFFA0, symBinAddr: 0x10001F694, symSize: 0x3C }
  - { offsetInCU: 0x362A8, offset: 0xBA33A, size: 0x8, addend: 0x0, symName: __ZNSt3__117__compressed_pairIPPNS_16__hash_node_baseIPNS_11__hash_nodeINS_17__hash_value_typeINS_12basic_stringIcNS_11char_traitsIcEENS_9allocatorIcEEEEN3tmx6ObjectEEEPvEEEENS_25__bucket_list_deallocatorINS7_ISH_EEEEEC2B8ue170006INS_16__value_init_tagESO_EEOT_OT0_, symObjAddr: 0xFFDC, symBinAddr: 0x10001F6D0, symSize: 0x40 }
  - { offsetInCU: 0x36300, offset: 0xBA392, size: 0x8, addend: 0x0, symName: __ZNSt3__122__compressed_pair_elemIPPNS_16__hash_node_baseIPNS_11__hash_nodeINS_17__hash_value_typeINS_12basic_stringIcNS_11char_traitsIcEENS_9allocatorIcEEEEN3tmx6ObjectEEEPvEEEELi0ELb0EEC2B8ue170006ENS_16__value_init_tagE, symObjAddr: 0x1001C, symBinAddr: 0x10001F710, symSize: 0x18 }
  - { offsetInCU: 0x36335, offset: 0xBA3C7, size: 0x8, addend: 0x0, symName: __ZNSt3__122__compressed_pair_elemINS_25__bucket_list_deallocatorINS_9allocatorIPNS_16__hash_node_baseIPNS_11__hash_nodeINS_17__hash_value_typeINS_12basic_stringIcNS_11char_traitsIcEENS2_IcEEEEN3tmx6ObjectEEEPvEEEEEEEELi1ELb0EEC2B8ue170006ENS_16__value_init_tagE, symObjAddr: 0x10034, symBinAddr: 0x10001F728, symSize: 0x2C }
  - { offsetInCU: 0x3636A, offset: 0xBA3FC, size: 0x8, addend: 0x0, symName: __ZNSt3__125__bucket_list_deallocatorINS_9allocatorIPNS_16__hash_node_baseIPNS_11__hash_nodeINS_17__hash_value_typeINS_12basic_stringIcNS_11char_traitsIcEENS1_IcEEEEN3tmx6ObjectEEEPvEEEEEEEC1B8ue170006Ev, symObjAddr: 0x10060, symBinAddr: 0x10001F754, symSize: 0x2C }
  - { offsetInCU: 0x36394, offset: 0xBA426, size: 0x8, addend: 0x0, symName: __ZNSt3__125__bucket_list_deallocatorINS_9allocatorIPNS_16__hash_node_baseIPNS_11__hash_nodeINS_17__hash_value_typeINS_12basic_stringIcNS_11char_traitsIcEENS1_IcEEEEN3tmx6ObjectEEEPvEEEEEEEC2B8ue170006Ev, symObjAddr: 0x1008C, symBinAddr: 0x10001F780, symSize: 0x40 }
  - { offsetInCU: 0x363BE, offset: 0xBA450, size: 0x8, addend: 0x0, symName: __ZNSt3__117__compressed_pairImNS_9allocatorIPNS_16__hash_node_baseIPNS_11__hash_nodeINS_17__hash_value_typeINS_12basic_stringIcNS_11char_traitsIcEENS1_IcEEEEN3tmx6ObjectEEEPvEEEEEEEC1B8ue170006IiNS_18__default_init_tagEEEOT_OT0_, symObjAddr: 0x100CC, symBinAddr: 0x10001F7C0, symSize: 0x3C }
  - { offsetInCU: 0x36416, offset: 0xBA4A8, size: 0x8, addend: 0x0, symName: __ZNSt3__117__compressed_pairImNS_9allocatorIPNS_16__hash_node_baseIPNS_11__hash_nodeINS_17__hash_value_typeINS_12basic_stringIcNS_11char_traitsIcEENS1_IcEEEEN3tmx6ObjectEEEPvEEEEEEEC2B8ue170006IiNS_18__default_init_tagEEEOT_OT0_, symObjAddr: 0x10108, symBinAddr: 0x10001F7FC, symSize: 0x40 }
  - { offsetInCU: 0x3646E, offset: 0xBA500, size: 0x8, addend: 0x0, symName: __ZNSt3__122__compressed_pair_elemINS_9allocatorIPNS_16__hash_node_baseIPNS_11__hash_nodeINS_17__hash_value_typeINS_12basic_stringIcNS_11char_traitsIcEENS1_IcEEEEN3tmx6ObjectEEEPvEEEEEELi1ELb1EEC2B8ue170006ENS_18__default_init_tagE, symObjAddr: 0x10148, symBinAddr: 0x10001F83C, symSize: 0x2C }
  - { offsetInCU: 0x364A3, offset: 0xBA535, size: 0x8, addend: 0x0, symName: __ZNSt3__19allocatorIPNS_16__hash_node_baseIPNS_11__hash_nodeINS_17__hash_value_typeINS_12basic_stringIcNS_11char_traitsIcEENS0_IcEEEEN3tmx6ObjectEEEPvEEEEEC2B8ue170006Ev, symObjAddr: 0x10174, symBinAddr: 0x10001F868, symSize: 0x2C }
  - { offsetInCU: 0x364CD, offset: 0xBA55F, size: 0x8, addend: 0x0, symName: __ZNSt3__116__non_trivial_ifILb1ENS_9allocatorIPNS_16__hash_node_baseIPNS_11__hash_nodeINS_17__hash_value_typeINS_12basic_stringIcNS_11char_traitsIcEENS1_IcEEEEN3tmx6ObjectEEEPvEEEEEEEC2B8ue170006Ev, symObjAddr: 0x101A0, symBinAddr: 0x10001F894, symSize: 0x14 }
  - { offsetInCU: 0x364F7, offset: 0xBA589, size: 0x8, addend: 0x0, symName: __ZNSt3__117__compressed_pairINS_16__hash_node_baseIPNS_11__hash_nodeINS_17__hash_value_typeINS_12basic_stringIcNS_11char_traitsIcEENS_9allocatorIcEEEEN3tmx6ObjectEEEPvEEEENS7_ISE_EEEC2B8ue170006ILb1EvEEv, symObjAddr: 0x101B4, symBinAddr: 0x10001F8A8, symSize: 0x34 }
  - { offsetInCU: 0x3652C, offset: 0xBA5BE, size: 0x8, addend: 0x0, symName: __ZNSt3__122__compressed_pair_elemINS_16__hash_node_baseIPNS_11__hash_nodeINS_17__hash_value_typeINS_12basic_stringIcNS_11char_traitsIcEENS_9allocatorIcEEEEN3tmx6ObjectEEEPvEEEELi0ELb0EEC2B8ue170006ENS_16__value_init_tagE, symObjAddr: 0x101E8, symBinAddr: 0x10001F8DC, symSize: 0x2C }
  - { offsetInCU: 0x36561, offset: 0xBA5F3, size: 0x8, addend: 0x0, symName: __ZNSt3__122__compressed_pair_elemINS_9allocatorINS_11__hash_nodeINS_17__hash_value_typeINS_12basic_stringIcNS_11char_traitsIcEENS1_IcEEEEN3tmx6ObjectEEEPvEEEELi1ELb1EEC2B8ue170006ENS_16__value_init_tagE, symObjAddr: 0x10214, symBinAddr: 0x10001F908, symSize: 0x2C }
  - { offsetInCU: 0x36596, offset: 0xBA628, size: 0x8, addend: 0x0, symName: __ZNSt3__116__hash_node_baseIPNS_11__hash_nodeINS_17__hash_value_typeINS_12basic_stringIcNS_11char_traitsIcEENS_9allocatorIcEEEEN3tmx6ObjectEEEPvEEEC1B8ue170006Ev, symObjAddr: 0x10240, symBinAddr: 0x10001F934, symSize: 0x2C }
  - { offsetInCU: 0x365C0, offset: 0xBA652, size: 0x8, addend: 0x0, symName: __ZNSt3__116__hash_node_baseIPNS_11__hash_nodeINS_17__hash_value_typeINS_12basic_stringIcNS_11char_traitsIcEENS_9allocatorIcEEEEN3tmx6ObjectEEEPvEEEC2B8ue170006Ev, symObjAddr: 0x1026C, symBinAddr: 0x10001F960, symSize: 0x18 }
  - { offsetInCU: 0x365EA, offset: 0xBA67C, size: 0x8, addend: 0x0, symName: __ZNSt3__19allocatorINS_11__hash_nodeINS_17__hash_value_typeINS_12basic_stringIcNS_11char_traitsIcEENS0_IcEEEEN3tmx6ObjectEEEPvEEEC2B8ue170006Ev, symObjAddr: 0x10284, symBinAddr: 0x10001F978, symSize: 0x2C }
  - { offsetInCU: 0x36614, offset: 0xBA6A6, size: 0x8, addend: 0x0, symName: __ZNSt3__116__non_trivial_ifILb1ENS_9allocatorINS_11__hash_nodeINS_17__hash_value_typeINS_12basic_stringIcNS_11char_traitsIcEENS1_IcEEEEN3tmx6ObjectEEEPvEEEEEC2B8ue170006Ev, symObjAddr: 0x102B0, symBinAddr: 0x10001F9A4, symSize: 0x14 }
  - { offsetInCU: 0x3663E, offset: 0xBA6D0, size: 0x8, addend: 0x0, symName: __ZNSt3__117__compressed_pairImNS_22__unordered_map_hasherINS_12basic_stringIcNS_11char_traitsIcEENS_9allocatorIcEEEENS_17__hash_value_typeIS7_N3tmx6ObjectEEENS_4hashIS7_EENS_8equal_toIS7_EELb1EEEEC2B8ue170006IiNS_18__default_init_tagEEEOT_OT0_, symObjAddr: 0x102C4, symBinAddr: 0x10001F9B8, symSize: 0x40 }
  - { offsetInCU: 0x36696, offset: 0xBA728, size: 0x8, addend: 0x0, symName: __ZNSt3__122__compressed_pair_elemINS_22__unordered_map_hasherINS_12basic_stringIcNS_11char_traitsIcEENS_9allocatorIcEEEENS_17__hash_value_typeIS7_N3tmx6ObjectEEENS_4hashIS7_EENS_8equal_toIS7_EELb1EEELi1ELb1EEC2B8ue170006ENS_18__default_init_tagE, symObjAddr: 0x10304, symBinAddr: 0x10001F9F8, symSize: 0x2C }
  - { offsetInCU: 0x366CB, offset: 0xBA75D, size: 0x8, addend: 0x0, symName: __ZNSt3__122__unordered_map_hasherINS_12basic_stringIcNS_11char_traitsIcEENS_9allocatorIcEEEENS_17__hash_value_typeIS6_N3tmx6ObjectEEENS_4hashIS6_EENS_8equal_toIS6_EELb1EEC2B8ue170006Ev, symObjAddr: 0x10330, symBinAddr: 0x10001FA24, symSize: 0x14 }
  - { offsetInCU: 0x366F5, offset: 0xBA787, size: 0x8, addend: 0x0, symName: __ZNSt3__117__compressed_pairIfNS_21__unordered_map_equalINS_12basic_stringIcNS_11char_traitsIcEENS_9allocatorIcEEEENS_17__hash_value_typeIS7_N3tmx6ObjectEEENS_8equal_toIS7_EENS_4hashIS7_EELb1EEEEC2B8ue170006IfNS_18__default_init_tagEEEOT_OT0_, symObjAddr: 0x10344, symBinAddr: 0x10001FA38, symSize: 0x40 }
  - { offsetInCU: 0x3674D, offset: 0xBA7DF, size: 0x8, addend: 0x0, symName: __ZNSt3__122__compressed_pair_elemIfLi0ELb0EEC2B8ue170006IfvEEOT_, symObjAddr: 0x10384, symBinAddr: 0x10001FA78, symSize: 0x24 }
  - { offsetInCU: 0x3678F, offset: 0xBA821, size: 0x8, addend: 0x0, symName: __ZNSt3__122__compressed_pair_elemINS_21__unordered_map_equalINS_12basic_stringIcNS_11char_traitsIcEENS_9allocatorIcEEEENS_17__hash_value_typeIS7_N3tmx6ObjectEEENS_8equal_toIS7_EENS_4hashIS7_EELb1EEELi1ELb1EEC2B8ue170006ENS_18__default_init_tagE, symObjAddr: 0x103A8, symBinAddr: 0x10001FA9C, symSize: 0x2C }
  - { offsetInCU: 0x367C4, offset: 0xBA856, size: 0x8, addend: 0x0, symName: __ZNSt3__121__unordered_map_equalINS_12basic_stringIcNS_11char_traitsIcEENS_9allocatorIcEEEENS_17__hash_value_typeIS6_N3tmx6ObjectEEENS_8equal_toIS6_EENS_4hashIS6_EELb1EEC2B8ue170006Ev, symObjAddr: 0x103D4, symBinAddr: 0x10001FAC8, symSize: 0x14 }
  - { offsetInCU: 0x367EE, offset: 0xBA880, size: 0x8, addend: 0x0, symName: __ZNSt3__113unordered_mapINS_12basic_stringIcNS_11char_traitsIcEENS_9allocatorIcEEEEN3tmx7TilesetENS_4hashIS6_EENS_8equal_toIS6_EENS4_INS_4pairIKS6_S8_EEEEEC2B8ue170006Ev, symObjAddr: 0x103E8, symBinAddr: 0x10001FADC, symSize: 0x2C }
  - { offsetInCU: 0x36818, offset: 0xBA8AA, size: 0x8, addend: 0x0, symName: __ZNSt3__112__hash_tableINS_17__hash_value_typeINS_12basic_stringIcNS_11char_traitsIcEENS_9allocatorIcEEEEN3tmx7TilesetEEENS_22__unordered_map_hasherIS7_SA_NS_4hashIS7_EENS_8equal_toIS7_EELb1EEENS_21__unordered_map_equalIS7_SA_SF_SD_Lb1EEENS5_ISA_EEEC1Ev, symObjAddr: 0x10414, symBinAddr: 0x10001FB08, symSize: 0x2C }
  - { offsetInCU: 0x36844, offset: 0xBA8D6, size: 0x8, addend: 0x0, symName: __ZNSt3__112__hash_tableINS_17__hash_value_typeINS_12basic_stringIcNS_11char_traitsIcEENS_9allocatorIcEEEEN3tmx7TilesetEEENS_22__unordered_map_hasherIS7_SA_NS_4hashIS7_EENS_8equal_toIS7_EELb1EEENS_21__unordered_map_equalIS7_SA_SF_SD_Lb1EEENS5_ISA_EEEC2Ev, symObjAddr: 0x10440, symBinAddr: 0x10001FB34, symSize: 0x7C }
  - { offsetInCU: 0x36870, offset: 0xBA902, size: 0x8, addend: 0x0, symName: __ZNSt3__110unique_ptrIA_PNS_16__hash_node_baseIPNS_11__hash_nodeINS_17__hash_value_typeINS_12basic_stringIcNS_11char_traitsIcEENS_9allocatorIcEEEEN3tmx7TilesetEEEPvEEEENS_25__bucket_list_deallocatorINS7_ISH_EEEEEC1B8ue170006ILb1EvEEv, symObjAddr: 0x104BC, symBinAddr: 0x10001FBB0, symSize: 0x2C }
  - { offsetInCU: 0x368A5, offset: 0xBA937, size: 0x8, addend: 0x0, symName: __ZNSt3__117__compressed_pairINS_16__hash_node_baseIPNS_11__hash_nodeINS_17__hash_value_typeINS_12basic_stringIcNS_11char_traitsIcEENS_9allocatorIcEEEEN3tmx7TilesetEEEPvEEEENS7_ISE_EEEC1B8ue170006ILb1EvEEv, symObjAddr: 0x104E8, symBinAddr: 0x10001FBDC, symSize: 0x2C }
  - { offsetInCU: 0x368DA, offset: 0xBA96C, size: 0x8, addend: 0x0, symName: __ZNSt3__117__compressed_pairImNS_22__unordered_map_hasherINS_12basic_stringIcNS_11char_traitsIcEENS_9allocatorIcEEEENS_17__hash_value_typeIS7_N3tmx7TilesetEEENS_4hashIS7_EENS_8equal_toIS7_EELb1EEEEC1B8ue170006IiNS_18__default_init_tagEEEOT_OT0_, symObjAddr: 0x10514, symBinAddr: 0x10001FC08, symSize: 0x3C }
  - { offsetInCU: 0x36932, offset: 0xBA9C4, size: 0x8, addend: 0x0, symName: __ZNSt3__117__compressed_pairIfNS_21__unordered_map_equalINS_12basic_stringIcNS_11char_traitsIcEENS_9allocatorIcEEEENS_17__hash_value_typeIS7_N3tmx7TilesetEEENS_8equal_toIS7_EENS_4hashIS7_EELb1EEEEC1B8ue170006IfNS_18__default_init_tagEEEOT_OT0_, symObjAddr: 0x10550, symBinAddr: 0x10001FC44, symSize: 0x3C }
  - { offsetInCU: 0x3698A, offset: 0xBAA1C, size: 0x8, addend: 0x0, symName: __ZNSt3__110unique_ptrIA_PNS_16__hash_node_baseIPNS_11__hash_nodeINS_17__hash_value_typeINS_12basic_stringIcNS_11char_traitsIcEENS_9allocatorIcEEEEN3tmx7TilesetEEEPvEEEENS_25__bucket_list_deallocatorINS7_ISH_EEEEEC2B8ue170006ILb1EvEEv, symObjAddr: 0x1058C, symBinAddr: 0x10001FC80, symSize: 0x3C }
  - { offsetInCU: 0x369BF, offset: 0xBAA51, size: 0x8, addend: 0x0, symName: __ZNSt3__117__compressed_pairIPPNS_16__hash_node_baseIPNS_11__hash_nodeINS_17__hash_value_typeINS_12basic_stringIcNS_11char_traitsIcEENS_9allocatorIcEEEEN3tmx7TilesetEEEPvEEEENS_25__bucket_list_deallocatorINS7_ISH_EEEEEC1B8ue170006INS_16__value_init_tagESO_EEOT_OT0_, symObjAddr: 0x105C8, symBinAddr: 0x10001FCBC, symSize: 0x3C }
  - { offsetInCU: 0x36A17, offset: 0xBAAA9, size: 0x8, addend: 0x0, symName: __ZNSt3__117__compressed_pairIPPNS_16__hash_node_baseIPNS_11__hash_nodeINS_17__hash_value_typeINS_12basic_stringIcNS_11char_traitsIcEENS_9allocatorIcEEEEN3tmx7TilesetEEEPvEEEENS_25__bucket_list_deallocatorINS7_ISH_EEEEEC2B8ue170006INS_16__value_init_tagESO_EEOT_OT0_, symObjAddr: 0x10604, symBinAddr: 0x10001FCF8, symSize: 0x40 }
  - { offsetInCU: 0x36A6F, offset: 0xBAB01, size: 0x8, addend: 0x0, symName: __ZNSt3__122__compressed_pair_elemIPPNS_16__hash_node_baseIPNS_11__hash_nodeINS_17__hash_value_typeINS_12basic_stringIcNS_11char_traitsIcEENS_9allocatorIcEEEEN3tmx7TilesetEEEPvEEEELi0ELb0EEC2B8ue170006ENS_16__value_init_tagE, symObjAddr: 0x10644, symBinAddr: 0x10001FD38, symSize: 0x18 }
  - { offsetInCU: 0x36AA4, offset: 0xBAB36, size: 0x8, addend: 0x0, symName: __ZNSt3__122__compressed_pair_elemINS_25__bucket_list_deallocatorINS_9allocatorIPNS_16__hash_node_baseIPNS_11__hash_nodeINS_17__hash_value_typeINS_12basic_stringIcNS_11char_traitsIcEENS2_IcEEEEN3tmx7TilesetEEEPvEEEEEEEELi1ELb0EEC2B8ue170006ENS_16__value_init_tagE, symObjAddr: 0x1065C, symBinAddr: 0x10001FD50, symSize: 0x2C }
  - { offsetInCU: 0x36AD9, offset: 0xBAB6B, size: 0x8, addend: 0x0, symName: __ZNSt3__125__bucket_list_deallocatorINS_9allocatorIPNS_16__hash_node_baseIPNS_11__hash_nodeINS_17__hash_value_typeINS_12basic_stringIcNS_11char_traitsIcEENS1_IcEEEEN3tmx7TilesetEEEPvEEEEEEEC1B8ue170006Ev, symObjAddr: 0x10688, symBinAddr: 0x10001FD7C, symSize: 0x2C }
  - { offsetInCU: 0x36B03, offset: 0xBAB95, size: 0x8, addend: 0x0, symName: __ZNSt3__125__bucket_list_deallocatorINS_9allocatorIPNS_16__hash_node_baseIPNS_11__hash_nodeINS_17__hash_value_typeINS_12basic_stringIcNS_11char_traitsIcEENS1_IcEEEEN3tmx7TilesetEEEPvEEEEEEEC2B8ue170006Ev, symObjAddr: 0x106B4, symBinAddr: 0x10001FDA8, symSize: 0x40 }
  - { offsetInCU: 0x36B2D, offset: 0xBABBF, size: 0x8, addend: 0x0, symName: __ZNSt3__117__compressed_pairImNS_9allocatorIPNS_16__hash_node_baseIPNS_11__hash_nodeINS_17__hash_value_typeINS_12basic_stringIcNS_11char_traitsIcEENS1_IcEEEEN3tmx7TilesetEEEPvEEEEEEEC1B8ue170006IiNS_18__default_init_tagEEEOT_OT0_, symObjAddr: 0x106F4, symBinAddr: 0x10001FDE8, symSize: 0x3C }
  - { offsetInCU: 0x36B85, offset: 0xBAC17, size: 0x8, addend: 0x0, symName: __ZNSt3__117__compressed_pairImNS_9allocatorIPNS_16__hash_node_baseIPNS_11__hash_nodeINS_17__hash_value_typeINS_12basic_stringIcNS_11char_traitsIcEENS1_IcEEEEN3tmx7TilesetEEEPvEEEEEEEC2B8ue170006IiNS_18__default_init_tagEEEOT_OT0_, symObjAddr: 0x10730, symBinAddr: 0x10001FE24, symSize: 0x40 }
  - { offsetInCU: 0x36BDD, offset: 0xBAC6F, size: 0x8, addend: 0x0, symName: __ZNSt3__122__compressed_pair_elemINS_9allocatorIPNS_16__hash_node_baseIPNS_11__hash_nodeINS_17__hash_value_typeINS_12basic_stringIcNS_11char_traitsIcEENS1_IcEEEEN3tmx7TilesetEEEPvEEEEEELi1ELb1EEC2B8ue170006ENS_18__default_init_tagE, symObjAddr: 0x10770, symBinAddr: 0x10001FE64, symSize: 0x2C }
  - { offsetInCU: 0x36C12, offset: 0xBACA4, size: 0x8, addend: 0x0, symName: __ZNSt3__19allocatorIPNS_16__hash_node_baseIPNS_11__hash_nodeINS_17__hash_value_typeINS_12basic_stringIcNS_11char_traitsIcEENS0_IcEEEEN3tmx7TilesetEEEPvEEEEEC2B8ue170006Ev, symObjAddr: 0x1079C, symBinAddr: 0x10001FE90, symSize: 0x2C }
  - { offsetInCU: 0x36C3C, offset: 0xBACCE, size: 0x8, addend: 0x0, symName: __ZNSt3__116__non_trivial_ifILb1ENS_9allocatorIPNS_16__hash_node_baseIPNS_11__hash_nodeINS_17__hash_value_typeINS_12basic_stringIcNS_11char_traitsIcEENS1_IcEEEEN3tmx7TilesetEEEPvEEEEEEEC2B8ue170006Ev, symObjAddr: 0x107C8, symBinAddr: 0x10001FEBC, symSize: 0x14 }
  - { offsetInCU: 0x36C66, offset: 0xBACF8, size: 0x8, addend: 0x0, symName: __ZNSt3__117__compressed_pairINS_16__hash_node_baseIPNS_11__hash_nodeINS_17__hash_value_typeINS_12basic_stringIcNS_11char_traitsIcEENS_9allocatorIcEEEEN3tmx7TilesetEEEPvEEEENS7_ISE_EEEC2B8ue170006ILb1EvEEv, symObjAddr: 0x107DC, symBinAddr: 0x10001FED0, symSize: 0x34 }
  - { offsetInCU: 0x36C9B, offset: 0xBAD2D, size: 0x8, addend: 0x0, symName: __ZNSt3__122__compressed_pair_elemINS_16__hash_node_baseIPNS_11__hash_nodeINS_17__hash_value_typeINS_12basic_stringIcNS_11char_traitsIcEENS_9allocatorIcEEEEN3tmx7TilesetEEEPvEEEELi0ELb0EEC2B8ue170006ENS_16__value_init_tagE, symObjAddr: 0x10810, symBinAddr: 0x10001FF04, symSize: 0x2C }
  - { offsetInCU: 0x36CD0, offset: 0xBAD62, size: 0x8, addend: 0x0, symName: __ZNSt3__122__compressed_pair_elemINS_9allocatorINS_11__hash_nodeINS_17__hash_value_typeINS_12basic_stringIcNS_11char_traitsIcEENS1_IcEEEEN3tmx7TilesetEEEPvEEEELi1ELb1EEC2B8ue170006ENS_16__value_init_tagE, symObjAddr: 0x1083C, symBinAddr: 0x10001FF30, symSize: 0x2C }
  - { offsetInCU: 0x36D05, offset: 0xBAD97, size: 0x8, addend: 0x0, symName: __ZNSt3__116__hash_node_baseIPNS_11__hash_nodeINS_17__hash_value_typeINS_12basic_stringIcNS_11char_traitsIcEENS_9allocatorIcEEEEN3tmx7TilesetEEEPvEEEC1B8ue170006Ev, symObjAddr: 0x10868, symBinAddr: 0x10001FF5C, symSize: 0x2C }
  - { offsetInCU: 0x36D2F, offset: 0xBADC1, size: 0x8, addend: 0x0, symName: __ZNSt3__116__hash_node_baseIPNS_11__hash_nodeINS_17__hash_value_typeINS_12basic_stringIcNS_11char_traitsIcEENS_9allocatorIcEEEEN3tmx7TilesetEEEPvEEEC2B8ue170006Ev, symObjAddr: 0x10894, symBinAddr: 0x10001FF88, symSize: 0x18 }
  - { offsetInCU: 0x36D59, offset: 0xBADEB, size: 0x8, addend: 0x0, symName: __ZNSt3__19allocatorINS_11__hash_nodeINS_17__hash_value_typeINS_12basic_stringIcNS_11char_traitsIcEENS0_IcEEEEN3tmx7TilesetEEEPvEEEC2B8ue170006Ev, symObjAddr: 0x108AC, symBinAddr: 0x10001FFA0, symSize: 0x2C }
  - { offsetInCU: 0x36D83, offset: 0xBAE15, size: 0x8, addend: 0x0, symName: __ZNSt3__116__non_trivial_ifILb1ENS_9allocatorINS_11__hash_nodeINS_17__hash_value_typeINS_12basic_stringIcNS_11char_traitsIcEENS1_IcEEEEN3tmx7TilesetEEEPvEEEEEC2B8ue170006Ev, symObjAddr: 0x108D8, symBinAddr: 0x10001FFCC, symSize: 0x14 }
  - { offsetInCU: 0x36DAD, offset: 0xBAE3F, size: 0x8, addend: 0x0, symName: __ZNSt3__117__compressed_pairImNS_22__unordered_map_hasherINS_12basic_stringIcNS_11char_traitsIcEENS_9allocatorIcEEEENS_17__hash_value_typeIS7_N3tmx7TilesetEEENS_4hashIS7_EENS_8equal_toIS7_EELb1EEEEC2B8ue170006IiNS_18__default_init_tagEEEOT_OT0_, symObjAddr: 0x108EC, symBinAddr: 0x10001FFE0, symSize: 0x40 }
  - { offsetInCU: 0x36E05, offset: 0xBAE97, size: 0x8, addend: 0x0, symName: __ZNSt3__122__compressed_pair_elemINS_22__unordered_map_hasherINS_12basic_stringIcNS_11char_traitsIcEENS_9allocatorIcEEEENS_17__hash_value_typeIS7_N3tmx7TilesetEEENS_4hashIS7_EENS_8equal_toIS7_EELb1EEELi1ELb1EEC2B8ue170006ENS_18__default_init_tagE, symObjAddr: 0x1092C, symBinAddr: 0x100020020, symSize: 0x2C }
  - { offsetInCU: 0x36E3A, offset: 0xBAECC, size: 0x8, addend: 0x0, symName: __ZNSt3__122__unordered_map_hasherINS_12basic_stringIcNS_11char_traitsIcEENS_9allocatorIcEEEENS_17__hash_value_typeIS6_N3tmx7TilesetEEENS_4hashIS6_EENS_8equal_toIS6_EELb1EEC2B8ue170006Ev, symObjAddr: 0x10958, symBinAddr: 0x10002004C, symSize: 0x14 }
  - { offsetInCU: 0x36E64, offset: 0xBAEF6, size: 0x8, addend: 0x0, symName: __ZNSt3__117__compressed_pairIfNS_21__unordered_map_equalINS_12basic_stringIcNS_11char_traitsIcEENS_9allocatorIcEEEENS_17__hash_value_typeIS7_N3tmx7TilesetEEENS_8equal_toIS7_EENS_4hashIS7_EELb1EEEEC2B8ue170006IfNS_18__default_init_tagEEEOT_OT0_, symObjAddr: 0x1096C, symBinAddr: 0x100020060, symSize: 0x40 }
  - { offsetInCU: 0x36EBC, offset: 0xBAF4E, size: 0x8, addend: 0x0, symName: __ZNSt3__122__compressed_pair_elemINS_21__unordered_map_equalINS_12basic_stringIcNS_11char_traitsIcEENS_9allocatorIcEEEENS_17__hash_value_typeIS7_N3tmx7TilesetEEENS_8equal_toIS7_EENS_4hashIS7_EELb1EEELi1ELb1EEC2B8ue170006ENS_18__default_init_tagE, symObjAddr: 0x109AC, symBinAddr: 0x1000200A0, symSize: 0x2C }
  - { offsetInCU: 0x36EF1, offset: 0xBAF83, size: 0x8, addend: 0x0, symName: __ZNSt3__121__unordered_map_equalINS_12basic_stringIcNS_11char_traitsIcEENS_9allocatorIcEEEENS_17__hash_value_typeIS6_N3tmx7TilesetEEENS_8equal_toIS6_EENS_4hashIS6_EELb1EEC2B8ue170006Ev, symObjAddr: 0x109D8, symBinAddr: 0x1000200CC, symSize: 0x14 }
  - { offsetInCU: 0x36F1B, offset: 0xBAFAD, size: 0x8, addend: 0x0, symName: __ZNSt3__112basic_stringIcNS_11char_traitsIcEENS_9allocatorIcEEE15__make_iteratorB8ue170006EPc, symObjAddr: 0x109EC, symBinAddr: 0x1000200E0, symSize: 0x30 }
  - { offsetInCU: 0x36F50, offset: 0xBAFE2, size: 0x8, addend: 0x0, symName: __ZNSt3__111__wrap_iterIPcEC1B8ue170006ES1_, symObjAddr: 0x10A1C, symBinAddr: 0x100020110, symSize: 0x34 }
  - { offsetInCU: 0x36F88, offset: 0xBB01A, size: 0x8, addend: 0x0, symName: __ZNSt3__111__wrap_iterIPcEC2B8ue170006ES1_, symObjAddr: 0x10A50, symBinAddr: 0x100020144, symSize: 0x20 }
  - { offsetInCU: 0x36FC0, offset: 0xBB052, size: 0x8, addend: 0x0, symName: __ZNKSt3__111__wrap_iterIPcEdeB8ue170006Ev, symObjAddr: 0x10AA4, symBinAddr: 0x100020198, symSize: 0x18 }
  - { offsetInCU: 0x36FE6, offset: 0xBB078, size: 0x8, addend: 0x0, symName: __ZNSt3__111__wrap_iterIPcEppB8ue170006Ev, symObjAddr: 0x10ABC, symBinAddr: 0x1000201B0, symSize: 0x20 }
  - { offsetInCU: 0x3700C, offset: 0xBB09E, size: 0x8, addend: 0x0, symName: __ZNKSt3__111__wrap_iterIPcE4baseB8ue170006Ev, symObjAddr: 0x10B24, symBinAddr: 0x100020218, symSize: 0x18 }
  - { offsetInCU: 0x37032, offset: 0xBB0C4, size: 0x8, addend: 0x0, symName: __ZNSt3__112basic_stringIcNS_11char_traitsIcEENS_9allocatorIcEEE14__erase_to_endB8ue170006Em, symObjAddr: 0x10B3C, symBinAddr: 0x100020230, symSize: 0x40 }
  - { offsetInCU: 0x37067, offset: 0xBB0F9, size: 0x8, addend: 0x0, symName: __ZNSt3__112basic_stringIcNS_11char_traitsIcEENS_9allocatorIcEEE19__null_terminate_atB8ue170006EPcm, symObjAddr: 0x10B7C, symBinAddr: 0x100020270, symSize: 0x50 }
  - { offsetInCU: 0x370AB, offset: 0xBB13D, size: 0x8, addend: 0x0, symName: __ZN3tmx7Vector2IfEC2Eff, symObjAddr: 0x10C20, symBinAddr: 0x1000202C0, symSize: 0x2C }
  - { offsetInCU: 0x370F1, offset: 0xBB183, size: 0x8, addend: 0x0, symName: __ZNSt3__16vectorIN3tmx7TilesetENS_9allocatorIS2_EEE9__end_capB8ue170006Ev, symObjAddr: 0x10C4C, symBinAddr: 0x1000202EC, symSize: 0x28 }
  - { offsetInCU: 0x37117, offset: 0xBB1A9, size: 0x8, addend: 0x0, symName: __ZNSt3__16vectorIN3tmx7TilesetENS_9allocatorIS2_EEE22__construct_one_at_endB8ue170006IJRNS_12basic_stringIcNS_11char_traitsIcEENS3_IcEEEEEEEvDpOT_, symObjAddr: 0x10C74, symBinAddr: 0x100020314, symSize: 0x90 }
  - { offsetInCU: 0x37166, offset: 0xBB1F8, size: 0x8, addend: 0x0, symName: __ZNSt3__16vectorIN3tmx7TilesetENS_9allocatorIS2_EEE24__emplace_back_slow_pathIJRNS_12basic_stringIcNS_11char_traitsIcEENS3_IcEEEEEEEvDpOT_, symObjAddr: 0x10D04, symBinAddr: 0x1000203A4, symSize: 0xD8 }
  - { offsetInCU: 0x371C6, offset: 0xBB258, size: 0x8, addend: 0x0, symName: __ZNSt3__117__compressed_pairIPN3tmx7TilesetENS_9allocatorIS2_EEE5firstB8ue170006Ev, symObjAddr: 0x10DDC, symBinAddr: 0x10002047C, symSize: 0x24 }
  - { offsetInCU: 0x371EC, offset: 0xBB27E, size: 0x8, addend: 0x0, symName: __ZNSt3__122__compressed_pair_elemIPN3tmx7TilesetELi0ELb0EE5__getB8ue170006Ev, symObjAddr: 0x10E00, symBinAddr: 0x1000204A0, symSize: 0x14 }
  - { offsetInCU: 0x3722B, offset: 0xBB2BD, size: 0x8, addend: 0x0, symName: __ZNSt3__16vectorIN3tmx7TilesetENS_9allocatorIS2_EEE21_ConstructTransactionC1B8ue170006ERS5_m, symObjAddr: 0x10E14, symBinAddr: 0x1000204B4, symSize: 0x3C }
  - { offsetInCU: 0x37273, offset: 0xBB305, size: 0x8, addend: 0x0, symName: __ZNSt3__116allocator_traitsINS_9allocatorIN3tmx7TilesetEEEE9constructB8ue170006IS3_JRNS_12basic_stringIcNS_11char_traitsIcEENS1_IcEEEEEvEEvRS4_PT_DpOT0_, symObjAddr: 0x10E50, symBinAddr: 0x1000204F0, symSize: 0x34 }
  - { offsetInCU: 0x372CA, offset: 0xBB35C, size: 0x8, addend: 0x0, symName: __ZNSt3__16vectorIN3tmx7TilesetENS_9allocatorIS2_EEE21_ConstructTransactionD1B8ue170006Ev, symObjAddr: 0x10EC0, symBinAddr: 0x100020524, symSize: 0x2C }
  - { offsetInCU: 0x372F4, offset: 0xBB386, size: 0x8, addend: 0x0, symName: __ZNSt3__16vectorIN3tmx7TilesetENS_9allocatorIS2_EEE21_ConstructTransactionC2B8ue170006ERS5_m, symObjAddr: 0x10EEC, symBinAddr: 0x100020550, symSize: 0x4C }
  - { offsetInCU: 0x3733C, offset: 0xBB3CE, size: 0x8, addend: 0x0, symName: __ZNSt3__19allocatorIN3tmx7TilesetEE9constructB8ue170006IS2_JRNS_12basic_stringIcNS_11char_traitsIcEENS0_IcEEEEEEEvPT_DpOT0_, symObjAddr: 0x10F38, symBinAddr: 0x10002059C, symSize: 0x30 }
  - { offsetInCU: 0x37392, offset: 0xBB424, size: 0x8, addend: 0x0, symName: __ZNSt3__16vectorIN3tmx7TilesetENS_9allocatorIS2_EEE21_ConstructTransactionD2B8ue170006Ev, symObjAddr: 0x10FA0, symBinAddr: 0x1000205CC, symSize: 0x20 }
  - { offsetInCU: 0x373BC, offset: 0xBB44E, size: 0x8, addend: 0x0, symName: __ZNKSt3__16vectorIN3tmx7TilesetENS_9allocatorIS2_EEE11__recommendB8ue170006Em, symObjAddr: 0x10FC0, symBinAddr: 0x1000205EC, symSize: 0xB4 }
  - { offsetInCU: 0x37411, offset: 0xBB4A3, size: 0x8, addend: 0x0, symName: __ZNSt3__114__split_bufferIN3tmx7TilesetERNS_9allocatorIS2_EEEC1EmmS5_, symObjAddr: 0x1109C, symBinAddr: 0x1000206A0, symSize: 0x44 }
  - { offsetInCU: 0x37467, offset: 0xBB4F9, size: 0x8, addend: 0x0, symName: __ZNSt3__114__split_bufferIN3tmx7TilesetERNS_9allocatorIS2_EEED1Ev, symObjAddr: 0x111F0, symBinAddr: 0x1000207F4, symSize: 0x2C }
  - { offsetInCU: 0x37493, offset: 0xBB525, size: 0x8, addend: 0x0, symName: __ZNKSt3__16vectorIN3tmx7TilesetENS_9allocatorIS2_EEE8max_sizeEv, symObjAddr: 0x1121C, symBinAddr: 0x100020820, symSize: 0x60 }
  - { offsetInCU: 0x374BB, offset: 0xBB54D, size: 0x8, addend: 0x0, symName: __ZNKSt3__16vectorIN3tmx7TilesetENS_9allocatorIS2_EEE20__throw_length_errorB8ue170006Ev, symObjAddr: 0x1127C, symBinAddr: 0x100020880, symSize: 0x1C }
  - { offsetInCU: 0x374EB, offset: 0xBB57D, size: 0x8, addend: 0x0, symName: __ZNSt3__116allocator_traitsINS_9allocatorIN3tmx7TilesetEEEE8max_sizeB8ue170006IS4_vEEmRKS4_, symObjAddr: 0x112D8, symBinAddr: 0x10002089C, symSize: 0x24 }
  - { offsetInCU: 0x37519, offset: 0xBB5AB, size: 0x8, addend: 0x0, symName: __ZNKSt3__16vectorIN3tmx7TilesetENS_9allocatorIS2_EEE7__allocB8ue170006Ev, symObjAddr: 0x112FC, symBinAddr: 0x1000208C0, symSize: 0x28 }
  - { offsetInCU: 0x3753F, offset: 0xBB5D1, size: 0x8, addend: 0x0, symName: __ZNKSt3__19allocatorIN3tmx7TilesetEE8max_sizeB8ue170006Ev, symObjAddr: 0x11324, symBinAddr: 0x1000208E8, symSize: 0x20 }
  - { offsetInCU: 0x37565, offset: 0xBB5F7, size: 0x8, addend: 0x0, symName: __ZNKSt3__117__compressed_pairIPN3tmx7TilesetENS_9allocatorIS2_EEE6secondB8ue170006Ev, symObjAddr: 0x11344, symBinAddr: 0x100020908, symSize: 0x24 }
  - { offsetInCU: 0x3758B, offset: 0xBB61D, size: 0x8, addend: 0x0, symName: __ZNKSt3__122__compressed_pair_elemINS_9allocatorIN3tmx7TilesetEEELi1ELb1EE5__getB8ue170006Ev, symObjAddr: 0x11368, symBinAddr: 0x10002092C, symSize: 0x14 }
  - { offsetInCU: 0x375B1, offset: 0xBB643, size: 0x8, addend: 0x0, symName: __ZNSt3__114__split_bufferIN3tmx7TilesetERNS_9allocatorIS2_EEEC2EmmS5_, symObjAddr: 0x113DC, symBinAddr: 0x100020940, symSize: 0xE0 }
  - { offsetInCU: 0x37624, offset: 0xBB6B6, size: 0x8, addend: 0x0, symName: __ZNSt3__117__compressed_pairIPN3tmx7TilesetERNS_9allocatorIS2_EEEC1B8ue170006IDnS6_EEOT_OT0_, symObjAddr: 0x114BC, symBinAddr: 0x100020A20, symSize: 0x3C }
  - { offsetInCU: 0x3767C, offset: 0xBB70E, size: 0x8, addend: 0x0, symName: __ZNSt3__114__split_bufferIN3tmx7TilesetERNS_9allocatorIS2_EEE7__allocB8ue170006Ev, symObjAddr: 0x11538, symBinAddr: 0x100020A9C, symSize: 0x28 }
  - { offsetInCU: 0x376A2, offset: 0xBB734, size: 0x8, addend: 0x0, symName: __ZNSt3__114__split_bufferIN3tmx7TilesetERNS_9allocatorIS2_EEE9__end_capB8ue170006Ev, symObjAddr: 0x11560, symBinAddr: 0x100020AC4, symSize: 0x28 }
  - { offsetInCU: 0x376C8, offset: 0xBB75A, size: 0x8, addend: 0x0, symName: __ZNSt3__117__compressed_pairIPN3tmx7TilesetERNS_9allocatorIS2_EEEC2B8ue170006IDnS6_EEOT_OT0_, symObjAddr: 0x11588, symBinAddr: 0x100020AEC, symSize: 0x48 }
  - { offsetInCU: 0x37720, offset: 0xBB7B2, size: 0x8, addend: 0x0, symName: __ZNSt3__122__compressed_pair_elemIRNS_9allocatorIN3tmx7TilesetEEELi1ELb0EEC2B8ue170006IS5_vEEOT_, symObjAddr: 0x115D0, symBinAddr: 0x100020B34, symSize: 0x20 }
  - { offsetInCU: 0x37762, offset: 0xBB7F4, size: 0x8, addend: 0x0, symName: __ZNSt3__19allocatorIN3tmx7TilesetEE8allocateB8ue170006Em, symObjAddr: 0x115F0, symBinAddr: 0x100020B54, symSize: 0x5C }
  - { offsetInCU: 0x37796, offset: 0xBB828, size: 0x8, addend: 0x0, symName: __ZNSt3__117__compressed_pairIPN3tmx7TilesetERNS_9allocatorIS2_EEE6secondB8ue170006Ev, symObjAddr: 0x1164C, symBinAddr: 0x100020BB0, symSize: 0x28 }
  - { offsetInCU: 0x377BC, offset: 0xBB84E, size: 0x8, addend: 0x0, symName: __ZNSt3__122__compressed_pair_elemIRNS_9allocatorIN3tmx7TilesetEEELi1ELb0EE5__getB8ue170006Ev, symObjAddr: 0x11674, symBinAddr: 0x100020BD8, symSize: 0x18 }
  - { offsetInCU: 0x377E2, offset: 0xBB874, size: 0x8, addend: 0x0, symName: __ZNSt3__117__compressed_pairIPN3tmx7TilesetERNS_9allocatorIS2_EEE5firstB8ue170006Ev, symObjAddr: 0x1168C, symBinAddr: 0x100020BF0, symSize: 0x24 }
  - { offsetInCU: 0x37808, offset: 0xBB89A, size: 0x8, addend: 0x0, symName: __ZNSt3__116reverse_iteratorIPN3tmx7TilesetEEC1B8ue170006ES3_, symObjAddr: 0x118B0, symBinAddr: 0x100020D40, symSize: 0x34 }
  - { offsetInCU: 0x37840, offset: 0xBB8D2, size: 0x8, addend: 0x0, symName: __ZNKSt3__116reverse_iteratorIPN3tmx7TilesetEE4baseB8ue170006Ev, symObjAddr: 0x118E4, symBinAddr: 0x100020D74, symSize: 0x18 }
  - { offsetInCU: 0x37866, offset: 0xBB8F8, size: 0x8, addend: 0x0, symName: __ZNKSt3__16vectorIN3tmx7TilesetENS_9allocatorIS2_EEE14__annotate_newB8ue170006Em, symObjAddr: 0x11938, symBinAddr: 0x100020DC8, symSize: 0xC8 }
  - { offsetInCU: 0x3789B, offset: 0xBB92D, size: 0x8, addend: 0x0, symName: __ZNSt3__129_AllocatorDestroyRangeReverseINS_9allocatorIN3tmx7TilesetEEENS_16reverse_iteratorIPS3_EEEC1B8ue170006ERS4_RS7_SA_, symObjAddr: 0x11A94, symBinAddr: 0x100020EDC, symSize: 0x44 }
  - { offsetInCU: 0x378F7, offset: 0xBB989, size: 0x8, addend: 0x0, symName: __ZNSt3__116allocator_traitsINS_9allocatorIN3tmx7TilesetEEEE9constructB8ue170006IS3_JS3_EvEEvRS4_PT_DpOT0_, symObjAddr: 0x11B20, symBinAddr: 0x100020F68, symSize: 0x34 }
  - { offsetInCU: 0x3794E, offset: 0xBB9E0, size: 0x8, addend: 0x0, symName: __ZNKSt3__116reverse_iteratorIPN3tmx7TilesetEEdeB8ue170006Ev, symObjAddr: 0x11B78, symBinAddr: 0x100020FC0, symSize: 0x28 }
  - { offsetInCU: 0x37983, offset: 0xBBA15, size: 0x8, addend: 0x0, symName: __ZNSt3__116reverse_iteratorIPN3tmx7TilesetEEppB8ue170006Ev, symObjAddr: 0x11BA0, symBinAddr: 0x100020FE8, symSize: 0x20 }
  - { offsetInCU: 0x379A9, offset: 0xBBA3B, size: 0x8, addend: 0x0, symName: __ZNSt3__128__exception_guard_exceptionsINS_29_AllocatorDestroyRangeReverseINS_9allocatorIN3tmx7TilesetEEENS_16reverse_iteratorIPS4_EEEEE10__completeB8ue170006Ev, symObjAddr: 0x11BC0, symBinAddr: 0x100021008, symSize: 0x1C }
  - { offsetInCU: 0x379CF, offset: 0xBBA61, size: 0x8, addend: 0x0, symName: __ZNSt3__128__exception_guard_exceptionsINS_29_AllocatorDestroyRangeReverseINS_9allocatorIN3tmx7TilesetEEENS_16reverse_iteratorIPS4_EEEEED1B8ue170006Ev, symObjAddr: 0x11BDC, symBinAddr: 0x100021024, symSize: 0x2C }
  - { offsetInCU: 0x379F9, offset: 0xBBA8B, size: 0x8, addend: 0x0, symName: __ZNSt3__128__exception_guard_exceptionsINS_29_AllocatorDestroyRangeReverseINS_9allocatorIN3tmx7TilesetEEENS_16reverse_iteratorIPS4_EEEEEC1B8ue170006ES9_, symObjAddr: 0x11C08, symBinAddr: 0x100021050, symSize: 0x34 }
  - { offsetInCU: 0x37A32, offset: 0xBBAC4, size: 0x8, addend: 0x0, symName: __ZNSt3__128__exception_guard_exceptionsINS_29_AllocatorDestroyRangeReverseINS_9allocatorIN3tmx7TilesetEEENS_16reverse_iteratorIPS4_EEEEEC2B8ue170006ES9_, symObjAddr: 0x11C3C, symBinAddr: 0x100021084, symSize: 0x30 }
  - { offsetInCU: 0x37A6B, offset: 0xBBAFD, size: 0x8, addend: 0x0, symName: __ZNSt3__129_AllocatorDestroyRangeReverseINS_9allocatorIN3tmx7TilesetEEENS_16reverse_iteratorIPS3_EEEC2B8ue170006ERS4_RS7_SA_, symObjAddr: 0x11C6C, symBinAddr: 0x1000210B4, symSize: 0x38 }
  - { offsetInCU: 0x37AC2, offset: 0xBBB54, size: 0x8, addend: 0x0, symName: __ZNSt3__19allocatorIN3tmx7TilesetEE9constructB8ue170006IS2_JS2_EEEvPT_DpOT0_, symObjAddr: 0x11CA4, symBinAddr: 0x1000210EC, symSize: 0x30 }
  - { offsetInCU: 0x37B18, offset: 0xBBBAA, size: 0x8, addend: 0x0, symName: __ZN3tmx7TilesetC1EOS0_, symObjAddr: 0x11CD4, symBinAddr: 0x10002111C, symSize: 0x34 }
  - { offsetInCU: 0x37B4D, offset: 0xBBBDF, size: 0x8, addend: 0x0, symName: __ZN3tmx7TilesetC2EOS0_, symObjAddr: 0x11D08, symBinAddr: 0x100021150, symSize: 0x10C }
  - { offsetInCU: 0x37B82, offset: 0xBBC14, size: 0x8, addend: 0x0, symName: __ZNSt3__16vectorIN3tmx7Tileset7TerrainENS_9allocatorIS3_EEEC1B8ue170006EOS6_, symObjAddr: 0x11E14, symBinAddr: 0x10002125C, symSize: 0x34 }
  - { offsetInCU: 0x37BBD, offset: 0xBBC4F, size: 0x8, addend: 0x0, symName: __ZNSt3__16vectorIjNS_9allocatorIjEEEC1B8ue170006EOS3_, symObjAddr: 0x11E48, symBinAddr: 0x100021290, symSize: 0x34 }
  - { offsetInCU: 0x37BF8, offset: 0xBBC8A, size: 0x8, addend: 0x0, symName: __ZNSt3__16vectorIN3tmx7Tileset4TileENS_9allocatorIS3_EEEC1B8ue170006EOS6_, symObjAddr: 0x11E7C, symBinAddr: 0x1000212C4, symSize: 0x34 }
  - { offsetInCU: 0x37C33, offset: 0xBBCC5, size: 0x8, addend: 0x0, symName: __ZNSt3__16vectorIN3tmx7Tileset7TerrainENS_9allocatorIS3_EEEC2B8ue170006EOS6_, symObjAddr: 0x11EB0, symBinAddr: 0x1000212F8, symSize: 0xC4 }
  - { offsetInCU: 0x37C73, offset: 0xBBD05, size: 0x8, addend: 0x0, symName: __ZNSt3__117__compressed_pairIPN3tmx7Tileset7TerrainENS_9allocatorIS3_EEEC1B8ue170006IDnS6_EEOT_OT0_, symObjAddr: 0x11F9C, symBinAddr: 0x1000213BC, symSize: 0x3C }
  - { offsetInCU: 0x37CCB, offset: 0xBBD5D, size: 0x8, addend: 0x0, symName: __ZNSt3__16vectorIN3tmx7Tileset7TerrainENS_9allocatorIS3_EEE9__end_capB8ue170006Ev, symObjAddr: 0x11FD8, symBinAddr: 0x1000213F8, symSize: 0x28 }
  - { offsetInCU: 0x37CF1, offset: 0xBBD83, size: 0x8, addend: 0x0, symName: __ZNSt3__117__compressed_pairIPN3tmx7Tileset7TerrainENS_9allocatorIS3_EEEC2B8ue170006IDnS6_EEOT_OT0_, symObjAddr: 0x12038, symBinAddr: 0x100021420, symSize: 0x44 }
  - { offsetInCU: 0x37D49, offset: 0xBBDDB, size: 0x8, addend: 0x0, symName: __ZNSt3__122__compressed_pair_elemIPN3tmx7Tileset7TerrainELi0ELb0EEC2B8ue170006IDnvEEOT_, symObjAddr: 0x1207C, symBinAddr: 0x100021464, symSize: 0x1C }
  - { offsetInCU: 0x37D8B, offset: 0xBBE1D, size: 0x8, addend: 0x0, symName: __ZNSt3__122__compressed_pair_elemINS_9allocatorIN3tmx7Tileset7TerrainEEELi1ELb1EEC2B8ue170006IS5_vEEOT_, symObjAddr: 0x12098, symBinAddr: 0x100021480, symSize: 0x18 }
  - { offsetInCU: 0x37DCD, offset: 0xBBE5F, size: 0x8, addend: 0x0, symName: __ZNSt3__117__compressed_pairIPN3tmx7Tileset7TerrainENS_9allocatorIS3_EEE5firstB8ue170006Ev, symObjAddr: 0x120B0, symBinAddr: 0x100021498, symSize: 0x24 }
  - { offsetInCU: 0x37DF3, offset: 0xBBE85, size: 0x8, addend: 0x0, symName: __ZNSt3__122__compressed_pair_elemIPN3tmx7Tileset7TerrainELi0ELb0EE5__getB8ue170006Ev, symObjAddr: 0x120D4, symBinAddr: 0x1000214BC, symSize: 0x14 }
  - { offsetInCU: 0x37E19, offset: 0xBBEAB, size: 0x8, addend: 0x0, symName: __ZNSt3__16vectorIjNS_9allocatorIjEEEC2B8ue170006EOS3_, symObjAddr: 0x120E8, symBinAddr: 0x1000214D0, symSize: 0xC4 }
  - { offsetInCU: 0x37E59, offset: 0xBBEEB, size: 0x8, addend: 0x0, symName: __ZNSt3__117__compressed_pairIPjNS_9allocatorIjEEEC1B8ue170006IDnS3_EEOT_OT0_, symObjAddr: 0x121D4, symBinAddr: 0x100021594, symSize: 0x3C }
  - { offsetInCU: 0x37EB1, offset: 0xBBF43, size: 0x8, addend: 0x0, symName: __ZNSt3__16vectorIjNS_9allocatorIjEEE9__end_capB8ue170006Ev, symObjAddr: 0x12210, symBinAddr: 0x1000215D0, symSize: 0x28 }
  - { offsetInCU: 0x37ED7, offset: 0xBBF69, size: 0x8, addend: 0x0, symName: __ZNSt3__117__compressed_pairIPjNS_9allocatorIjEEEC2B8ue170006IDnS3_EEOT_OT0_, symObjAddr: 0x12270, symBinAddr: 0x1000215F8, symSize: 0x44 }
  - { offsetInCU: 0x37F2F, offset: 0xBBFC1, size: 0x8, addend: 0x0, symName: __ZNSt3__122__compressed_pair_elemIPjLi0ELb0EEC2B8ue170006IDnvEEOT_, symObjAddr: 0x122B4, symBinAddr: 0x10002163C, symSize: 0x1C }
  - { offsetInCU: 0x37F71, offset: 0xBC003, size: 0x8, addend: 0x0, symName: __ZNSt3__122__compressed_pair_elemINS_9allocatorIjEELi1ELb1EEC2B8ue170006IS2_vEEOT_, symObjAddr: 0x122D0, symBinAddr: 0x100021658, symSize: 0x18 }
  - { offsetInCU: 0x37FB3, offset: 0xBC045, size: 0x8, addend: 0x0, symName: __ZNSt3__117__compressed_pairIPjNS_9allocatorIjEEE5firstB8ue170006Ev, symObjAddr: 0x122E8, symBinAddr: 0x100021670, symSize: 0x24 }
  - { offsetInCU: 0x37FD9, offset: 0xBC06B, size: 0x8, addend: 0x0, symName: __ZNSt3__122__compressed_pair_elemIPjLi0ELb0EE5__getB8ue170006Ev, symObjAddr: 0x1230C, symBinAddr: 0x100021694, symSize: 0x14 }
  - { offsetInCU: 0x37FFF, offset: 0xBC091, size: 0x8, addend: 0x0, symName: __ZNSt3__16vectorIN3tmx7Tileset4TileENS_9allocatorIS3_EEEC2B8ue170006EOS6_, symObjAddr: 0x12320, symBinAddr: 0x1000216A8, symSize: 0xC4 }
  - { offsetInCU: 0x3803F, offset: 0xBC0D1, size: 0x8, addend: 0x0, symName: __ZNSt3__117__compressed_pairIPN3tmx7Tileset4TileENS_9allocatorIS3_EEEC1B8ue170006IDnS6_EEOT_OT0_, symObjAddr: 0x1240C, symBinAddr: 0x10002176C, symSize: 0x3C }
  - { offsetInCU: 0x38097, offset: 0xBC129, size: 0x8, addend: 0x0, symName: __ZNSt3__16vectorIN3tmx7Tileset4TileENS_9allocatorIS3_EEE9__end_capB8ue170006Ev, symObjAddr: 0x12448, symBinAddr: 0x1000217A8, symSize: 0x28 }
  - { offsetInCU: 0x380BD, offset: 0xBC14F, size: 0x8, addend: 0x0, symName: __ZNSt3__117__compressed_pairIPN3tmx7Tileset4TileENS_9allocatorIS3_EEEC2B8ue170006IDnS6_EEOT_OT0_, symObjAddr: 0x124A8, symBinAddr: 0x1000217D0, symSize: 0x44 }
  - { offsetInCU: 0x38115, offset: 0xBC1A7, size: 0x8, addend: 0x0, symName: __ZNSt3__122__compressed_pair_elemIPN3tmx7Tileset4TileELi0ELb0EEC2B8ue170006IDnvEEOT_, symObjAddr: 0x124EC, symBinAddr: 0x100021814, symSize: 0x1C }
  - { offsetInCU: 0x38157, offset: 0xBC1E9, size: 0x8, addend: 0x0, symName: __ZNSt3__122__compressed_pair_elemINS_9allocatorIN3tmx7Tileset4TileEEELi1ELb1EEC2B8ue170006IS5_vEEOT_, symObjAddr: 0x12508, symBinAddr: 0x100021830, symSize: 0x18 }
  - { offsetInCU: 0x38199, offset: 0xBC22B, size: 0x8, addend: 0x0, symName: __ZNSt3__117__compressed_pairIPN3tmx7Tileset4TileENS_9allocatorIS3_EEE5firstB8ue170006Ev, symObjAddr: 0x12520, symBinAddr: 0x100021848, symSize: 0x24 }
  - { offsetInCU: 0x381BF, offset: 0xBC251, size: 0x8, addend: 0x0, symName: __ZNSt3__122__compressed_pair_elemIPN3tmx7Tileset4TileELi0ELb0EE5__getB8ue170006Ev, symObjAddr: 0x12544, symBinAddr: 0x10002186C, symSize: 0x14 }
  - { offsetInCU: 0x381EA, offset: 0xBC27C, size: 0x8, addend: 0x0, symName: __ZNSt3__119__to_address_helperINS_16reverse_iteratorIPN3tmx7TilesetEEEvE6__callB8ue170006ERKS5_, symObjAddr: 0x12558, symBinAddr: 0x100021880, symSize: 0x38 }
  - { offsetInCU: 0x3820D, offset: 0xBC29F, size: 0x8, addend: 0x0, symName: __ZNKSt3__116reverse_iteratorIPN3tmx7TilesetEEptB8ue170006Ev, symObjAddr: 0x12590, symBinAddr: 0x1000218B8, symSize: 0x24 }
  - { offsetInCU: 0x38233, offset: 0xBC2C5, size: 0x8, addend: 0x0, symName: __ZNSt3__128__exception_guard_exceptionsINS_29_AllocatorDestroyRangeReverseINS_9allocatorIN3tmx7TilesetEEENS_16reverse_iteratorIPS4_EEEEED2B8ue170006Ev, symObjAddr: 0x125B4, symBinAddr: 0x1000218DC, symSize: 0x50 }
  - { offsetInCU: 0x3825D, offset: 0xBC2EF, size: 0x8, addend: 0x0, symName: __ZNKSt3__129_AllocatorDestroyRangeReverseINS_9allocatorIN3tmx7TilesetEEENS_16reverse_iteratorIPS3_EEEclB8ue170006Ev, symObjAddr: 0x12604, symBinAddr: 0x10002192C, symSize: 0xB4 }
  - { offsetInCU: 0x38284, offset: 0xBC316, size: 0x8, addend: 0x0, symName: __ZNSt3__116reverse_iteratorINS0_IPN3tmx7TilesetEEEEC1B8ue170006ES4_, symObjAddr: 0x12728, symBinAddr: 0x100021A50, symSize: 0x3C }
  - { offsetInCU: 0x382BC, offset: 0xBC34E, size: 0x8, addend: 0x0, symName: __ZNSt3__116reverse_iteratorINS0_IPN3tmx7TilesetEEEEppB8ue170006Ev, symObjAddr: 0x12814, symBinAddr: 0x100021B10, symSize: 0x30 }
  - { offsetInCU: 0x382E2, offset: 0xBC374, size: 0x8, addend: 0x0, symName: __ZNKSt3__116reverse_iteratorINS0_IPN3tmx7TilesetEEEE4baseB8ue170006Ev, symObjAddr: 0x12844, symBinAddr: 0x100021B40, symSize: 0x24 }
  - { offsetInCU: 0x38312, offset: 0xBC3A4, size: 0x8, addend: 0x0, symName: __ZNSt3__119__to_address_helperINS_16reverse_iteratorINS1_IPN3tmx7TilesetEEEEEvE6__callB8ue170006ERKS6_, symObjAddr: 0x13C50, symBinAddr: 0x100021B64, symSize: 0x38 }
  - { offsetInCU: 0x38335, offset: 0xBC3C7, size: 0x8, addend: 0x0, symName: __ZNKSt3__116reverse_iteratorINS0_IPN3tmx7TilesetEEEEptB8ue170006Ev, symObjAddr: 0x13C88, symBinAddr: 0x100021B9C, symSize: 0x24 }
  - { offsetInCU: 0x3835B, offset: 0xBC3ED, size: 0x8, addend: 0x0, symName: __ZNKSt3__116reverse_iteratorINS0_IPN3tmx7TilesetEEEEdeB8ue170006Ev, symObjAddr: 0x13CAC, symBinAddr: 0x100021BC0, symSize: 0x34 }
  - { offsetInCU: 0x38390, offset: 0xBC422, size: 0x8, addend: 0x0, symName: __ZNSt3__116reverse_iteratorIPN3tmx7TilesetEEmmB8ue170006Ev, symObjAddr: 0x13CE0, symBinAddr: 0x100021BF4, symSize: 0x20 }
  - { offsetInCU: 0x383B6, offset: 0xBC448, size: 0x8, addend: 0x0, symName: __ZNSt3__116reverse_iteratorINS0_IPN3tmx7TilesetEEEEC2B8ue170006ES4_, symObjAddr: 0x13D00, symBinAddr: 0x100021C14, symSize: 0x2C }
  - { offsetInCU: 0x383EE, offset: 0xBC480, size: 0x8, addend: 0x0, symName: __ZNSt3__116reverse_iteratorIPN3tmx7TilesetEEC2B8ue170006ES3_, symObjAddr: 0x13D2C, symBinAddr: 0x100021C40, symSize: 0x28 }
  - { offsetInCU: 0x38426, offset: 0xBC4B8, size: 0x8, addend: 0x0, symName: __ZNSt3__114__split_bufferIN3tmx7TilesetERNS_9allocatorIS2_EEED2Ev, symObjAddr: 0x13D54, symBinAddr: 0x100021C68, symSize: 0x8C }
  - { offsetInCU: 0x38452, offset: 0xBC4E4, size: 0x8, addend: 0x0, symName: __ZNSt3__114__split_bufferIN3tmx7TilesetERNS_9allocatorIS2_EEE5clearB8ue170006Ev, symObjAddr: 0x13DE0, symBinAddr: 0x100021CF4, symSize: 0x28 }
  - { offsetInCU: 0x38478, offset: 0xBC50A, size: 0x8, addend: 0x0, symName: __ZNKSt3__114__split_bufferIN3tmx7TilesetERNS_9allocatorIS2_EEE8capacityB8ue170006Ev, symObjAddr: 0x13E3C, symBinAddr: 0x100021D1C, symSize: 0x40 }
  - { offsetInCU: 0x3849E, offset: 0xBC530, size: 0x8, addend: 0x0, symName: __ZNSt3__114__split_bufferIN3tmx7TilesetERNS_9allocatorIS2_EEE17__destruct_at_endB8ue170006EPS2_, symObjAddr: 0x13E7C, symBinAddr: 0x100021D5C, symSize: 0x2C }
  - { offsetInCU: 0x384D2, offset: 0xBC564, size: 0x8, addend: 0x0, symName: __ZNSt3__114__split_bufferIN3tmx7TilesetERNS_9allocatorIS2_EEE17__destruct_at_endB8ue170006EPS2_NS_17integral_constantIbLb0EEE, symObjAddr: 0x13EA8, symBinAddr: 0x100021D88, symSize: 0x80 }
  - { offsetInCU: 0x38513, offset: 0xBC5A5, size: 0x8, addend: 0x0, symName: __ZNKSt3__114__split_bufferIN3tmx7TilesetERNS_9allocatorIS2_EEE9__end_capB8ue170006Ev, symObjAddr: 0x13F6C, symBinAddr: 0x100021E08, symSize: 0x28 }
  - { offsetInCU: 0x38539, offset: 0xBC5CB, size: 0x8, addend: 0x0, symName: __ZNKSt3__117__compressed_pairIPN3tmx7TilesetERNS_9allocatorIS2_EEE5firstB8ue170006Ev, symObjAddr: 0x13F94, symBinAddr: 0x100021E30, symSize: 0x24 }
  - { offsetInCU: 0x3855F, offset: 0xBC5F1, size: 0x8, addend: 0x0, symName: __ZNSt3__110unique_ptrIN3tmx9TileLayerENS_14default_deleteIS2_EEEC1B8ue170006ILb1EvEEPS2_, symObjAddr: 0x13FB8, symBinAddr: 0x100021E54, symSize: 0x34 }
  - { offsetInCU: 0x385A2, offset: 0xBC634, size: 0x8, addend: 0x0, symName: __ZNSt3__110unique_ptrIN3tmx9TileLayerENS_14default_deleteIS2_EEEC2B8ue170006ILb1EvEEPS2_, symObjAddr: 0x13FEC, symBinAddr: 0x100021E88, symSize: 0x44 }
  - { offsetInCU: 0x385E5, offset: 0xBC677, size: 0x8, addend: 0x0, symName: __ZNSt3__117__compressed_pairIPN3tmx9TileLayerENS_14default_deleteIS2_EEEC1B8ue170006IRS3_NS_16__value_init_tagEEEOT_OT0_, symObjAddr: 0x14030, symBinAddr: 0x100021ECC, symSize: 0x3C }
  - { offsetInCU: 0x3863D, offset: 0xBC6CF, size: 0x8, addend: 0x0, symName: __ZNSt3__117__compressed_pairIPN3tmx9TileLayerENS_14default_deleteIS2_EEEC2B8ue170006IRS3_NS_16__value_init_tagEEEOT_OT0_, symObjAddr: 0x1406C, symBinAddr: 0x100021F08, symSize: 0x40 }
  - { offsetInCU: 0x38695, offset: 0xBC727, size: 0x8, addend: 0x0, symName: __ZNSt3__122__compressed_pair_elemIPN3tmx9TileLayerELi0ELb0EEC2B8ue170006IRS3_vEEOT_, symObjAddr: 0x140AC, symBinAddr: 0x100021F48, symSize: 0x24 }
  - { offsetInCU: 0x386D7, offset: 0xBC769, size: 0x8, addend: 0x0, symName: __ZNSt3__122__compressed_pair_elemINS_14default_deleteIN3tmx9TileLayerEEELi1ELb1EEC2B8ue170006ENS_16__value_init_tagE, symObjAddr: 0x140D0, symBinAddr: 0x100021F6C, symSize: 0x14 }
  - { offsetInCU: 0x3870C, offset: 0xBC79E, size: 0x8, addend: 0x0, symName: __ZNSt3__110unique_ptrIN3tmx9TileLayerENS_14default_deleteIS2_EEED2B8ue170006Ev, symObjAddr: 0x140E4, symBinAddr: 0x100021F80, symSize: 0x30 }
  - { offsetInCU: 0x38736, offset: 0xBC7C8, size: 0x8, addend: 0x0, symName: __ZNSt3__110unique_ptrIN3tmx9TileLayerENS_14default_deleteIS2_EEE5resetB8ue170006EPS2_, symObjAddr: 0x14114, symBinAddr: 0x100021FB0, symSize: 0x78 }
  - { offsetInCU: 0x3877A, offset: 0xBC80C, size: 0x8, addend: 0x0, symName: __ZNSt3__117__compressed_pairIPN3tmx9TileLayerENS_14default_deleteIS2_EEE5firstB8ue170006Ev, symObjAddr: 0x1418C, symBinAddr: 0x100022028, symSize: 0x24 }
  - { offsetInCU: 0x387A0, offset: 0xBC832, size: 0x8, addend: 0x0, symName: __ZNSt3__117__compressed_pairIPN3tmx9TileLayerENS_14default_deleteIS2_EEE6secondB8ue170006Ev, symObjAddr: 0x141B0, symBinAddr: 0x10002204C, symSize: 0x24 }
  - { offsetInCU: 0x387C6, offset: 0xBC858, size: 0x8, addend: 0x0, symName: __ZNKSt3__114default_deleteIN3tmx9TileLayerEEclB8ue170006EPS2_, symObjAddr: 0x141D4, symBinAddr: 0x100022070, symSize: 0x4C }
  - { offsetInCU: 0x387FA, offset: 0xBC88C, size: 0x8, addend: 0x0, symName: __ZNSt3__122__compressed_pair_elemIPN3tmx9TileLayerELi0ELb0EE5__getB8ue170006Ev, symObjAddr: 0x14220, symBinAddr: 0x1000220BC, symSize: 0x14 }
  - { offsetInCU: 0x38820, offset: 0xBC8B2, size: 0x8, addend: 0x0, symName: __ZNSt3__122__compressed_pair_elemINS_14default_deleteIN3tmx9TileLayerEEELi1ELb1EE5__getB8ue170006Ev, symObjAddr: 0x14234, symBinAddr: 0x1000220D0, symSize: 0x14 }
  - { offsetInCU: 0x38846, offset: 0xBC8D8, size: 0x8, addend: 0x0, symName: __ZN3tmx9TileLayerD1Ev, symObjAddr: 0x14248, symBinAddr: 0x1000220E4, symSize: 0x2C }
  - { offsetInCU: 0x38872, offset: 0xBC904, size: 0x8, addend: 0x0, symName: __ZN3tmx9TileLayerD2Ev, symObjAddr: 0x14274, symBinAddr: 0x100022110, symSize: 0x44 }
  - { offsetInCU: 0x3889E, offset: 0xBC930, size: 0x8, addend: 0x0, symName: __ZNSt3__16vectorIN3tmx9TileLayer5ChunkENS_9allocatorIS3_EEED1B8ue170006Ev, symObjAddr: 0x142B8, symBinAddr: 0x100022154, symSize: 0x2C }
  - { offsetInCU: 0x388C8, offset: 0xBC95A, size: 0x8, addend: 0x0, symName: __ZNSt3__16vectorIN3tmx9TileLayer4TileENS_9allocatorIS3_EEED1B8ue170006Ev, symObjAddr: 0x142E4, symBinAddr: 0x100022180, symSize: 0x2C }
  - { offsetInCU: 0x388F2, offset: 0xBC984, size: 0x8, addend: 0x0, symName: __ZNSt3__16vectorIN3tmx9TileLayer5ChunkENS_9allocatorIS3_EEED2B8ue170006Ev, symObjAddr: 0x14310, symBinAddr: 0x1000221AC, symSize: 0x44 }
  - { offsetInCU: 0x3891C, offset: 0xBC9AE, size: 0x8, addend: 0x0, symName: __ZNSt3__16vectorIN3tmx9TileLayer5ChunkENS_9allocatorIS3_EEE16__destroy_vectorC1B8ue170006ERS6_, symObjAddr: 0x14354, symBinAddr: 0x1000221F0, symSize: 0x34 }
  - { offsetInCU: 0x38955, offset: 0xBC9E7, size: 0x8, addend: 0x0, symName: __ZNSt3__16vectorIN3tmx9TileLayer5ChunkENS_9allocatorIS3_EEE16__destroy_vectorclB8ue170006Ev, symObjAddr: 0x14388, symBinAddr: 0x100022224, symSize: 0x90 }
  - { offsetInCU: 0x3897B, offset: 0xBCA0D, size: 0x8, addend: 0x0, symName: __ZNSt3__16vectorIN3tmx9TileLayer5ChunkENS_9allocatorIS3_EEE16__destroy_vectorC2B8ue170006ERS6_, symObjAddr: 0x14418, symBinAddr: 0x1000222B4, symSize: 0x20 }
  - { offsetInCU: 0x389B4, offset: 0xBCA46, size: 0x8, addend: 0x0, symName: __ZNSt3__16vectorIN3tmx9TileLayer5ChunkENS_9allocatorIS3_EEE7__clearB8ue170006Ev, symObjAddr: 0x14438, symBinAddr: 0x1000222D4, symSize: 0x28 }
  - { offsetInCU: 0x389DA, offset: 0xBCA6C, size: 0x8, addend: 0x0, symName: __ZNKSt3__16vectorIN3tmx9TileLayer5ChunkENS_9allocatorIS3_EEE17__annotate_deleteB8ue170006Ev, symObjAddr: 0x14460, symBinAddr: 0x1000222FC, symSize: 0xD4 }
  - { offsetInCU: 0x38A00, offset: 0xBCA92, size: 0x8, addend: 0x0, symName: __ZNSt3__116allocator_traitsINS_9allocatorIN3tmx9TileLayer5ChunkEEEE10deallocateB8ue170006ERS5_PS4_m, symObjAddr: 0x14534, symBinAddr: 0x1000223D0, symSize: 0x34 }
  - { offsetInCU: 0x38A42, offset: 0xBCAD4, size: 0x8, addend: 0x0, symName: __ZNSt3__16vectorIN3tmx9TileLayer5ChunkENS_9allocatorIS3_EEE7__allocB8ue170006Ev, symObjAddr: 0x14568, symBinAddr: 0x100022404, symSize: 0x28 }
  - { offsetInCU: 0x38A68, offset: 0xBCAFA, size: 0x8, addend: 0x0, symName: __ZNKSt3__16vectorIN3tmx9TileLayer5ChunkENS_9allocatorIS3_EEE8capacityB8ue170006Ev, symObjAddr: 0x14590, symBinAddr: 0x10002242C, symSize: 0x40 }
  - { offsetInCU: 0x38A8E, offset: 0xBCB20, size: 0x8, addend: 0x0, symName: __ZNSt3__16vectorIN3tmx9TileLayer5ChunkENS_9allocatorIS3_EEE22__base_destruct_at_endB8ue170006EPS3_, symObjAddr: 0x145D0, symBinAddr: 0x10002246C, symSize: 0x8C }
  - { offsetInCU: 0x38AD2, offset: 0xBCB64, size: 0x8, addend: 0x0, symName: __ZNSt3__116allocator_traitsINS_9allocatorIN3tmx9TileLayer5ChunkEEEE7destroyB8ue170006IS4_vEEvRS5_PT_, symObjAddr: 0x1465C, symBinAddr: 0x1000224F8, symSize: 0x2C }
  - { offsetInCU: 0x38B0F, offset: 0xBCBA1, size: 0x8, addend: 0x0, symName: __ZNSt3__19allocatorIN3tmx9TileLayer5ChunkEE7destroyB8ue170006EPS3_, symObjAddr: 0x1469C, symBinAddr: 0x100022538, symSize: 0x28 }
  - { offsetInCU: 0x38B48, offset: 0xBCBDA, size: 0x8, addend: 0x0, symName: __ZN3tmx9TileLayer5ChunkD1Ev, symObjAddr: 0x146C4, symBinAddr: 0x100022560, symSize: 0x2C }
  - { offsetInCU: 0x38B74, offset: 0xBCC06, size: 0x8, addend: 0x0, symName: __ZN3tmx9TileLayer5ChunkD2Ev, symObjAddr: 0x146F0, symBinAddr: 0x10002258C, symSize: 0x30 }
  - { offsetInCU: 0x38BA0, offset: 0xBCC32, size: 0x8, addend: 0x0, symName: __ZNKSt3__16vectorIN3tmx9TileLayer5ChunkENS_9allocatorIS3_EEE31__annotate_contiguous_containerB8ue170006EPKvS8_S8_S8_, symObjAddr: 0x14720, symBinAddr: 0x1000225BC, symSize: 0x20 }
  - { offsetInCU: 0x38BF6, offset: 0xBCC88, size: 0x8, addend: 0x0, symName: __ZNKSt3__16vectorIN3tmx9TileLayer5ChunkENS_9allocatorIS3_EEE4dataB8ue170006Ev, symObjAddr: 0x14740, symBinAddr: 0x1000225DC, symSize: 0x28 }
  - { offsetInCU: 0x38C1C, offset: 0xBCCAE, size: 0x8, addend: 0x0, symName: __ZNKSt3__16vectorIN3tmx9TileLayer5ChunkENS_9allocatorIS3_EEE4sizeB8ue170006Ev, symObjAddr: 0x14768, symBinAddr: 0x100022604, symSize: 0x28 }
  - { offsetInCU: 0x38C42, offset: 0xBCCD4, size: 0x8, addend: 0x0, symName: __ZNSt3__19allocatorIN3tmx9TileLayer5ChunkEE10deallocateB8ue170006EPS3_m, symObjAddr: 0x14790, symBinAddr: 0x10002262C, symSize: 0x44 }
  - { offsetInCU: 0x38C84, offset: 0xBCD16, size: 0x8, addend: 0x0, symName: __ZNSt3__117__compressed_pairIPN3tmx9TileLayer5ChunkENS_9allocatorIS3_EEE6secondB8ue170006Ev, symObjAddr: 0x147D4, symBinAddr: 0x100022670, symSize: 0x24 }
  - { offsetInCU: 0x38CAA, offset: 0xBCD3C, size: 0x8, addend: 0x0, symName: __ZNSt3__122__compressed_pair_elemINS_9allocatorIN3tmx9TileLayer5ChunkEEELi1ELb1EE5__getB8ue170006Ev, symObjAddr: 0x147F8, symBinAddr: 0x100022694, symSize: 0x14 }
  - { offsetInCU: 0x38CD0, offset: 0xBCD62, size: 0x8, addend: 0x0, symName: __ZNKSt3__16vectorIN3tmx9TileLayer5ChunkENS_9allocatorIS3_EEE9__end_capB8ue170006Ev, symObjAddr: 0x1480C, symBinAddr: 0x1000226A8, symSize: 0x28 }
  - { offsetInCU: 0x38CF6, offset: 0xBCD88, size: 0x8, addend: 0x0, symName: __ZNKSt3__117__compressed_pairIPN3tmx9TileLayer5ChunkENS_9allocatorIS3_EEE5firstB8ue170006Ev, symObjAddr: 0x14834, symBinAddr: 0x1000226D0, symSize: 0x24 }
  - { offsetInCU: 0x38D1C, offset: 0xBCDAE, size: 0x8, addend: 0x0, symName: __ZNKSt3__122__compressed_pair_elemIPN3tmx9TileLayer5ChunkELi0ELb0EE5__getB8ue170006Ev, symObjAddr: 0x14858, symBinAddr: 0x1000226F4, symSize: 0x14 }
  - { offsetInCU: 0x38D42, offset: 0xBCDD4, size: 0x8, addend: 0x0, symName: __ZNSt3__16vectorIN3tmx9TileLayer4TileENS_9allocatorIS3_EEED2B8ue170006Ev, symObjAddr: 0x1486C, symBinAddr: 0x100022708, symSize: 0x44 }
  - { offsetInCU: 0x38D6C, offset: 0xBCDFE, size: 0x8, addend: 0x0, symName: __ZNSt3__16vectorIN3tmx9TileLayer4TileENS_9allocatorIS3_EEE16__destroy_vectorC1B8ue170006ERS6_, symObjAddr: 0x148B0, symBinAddr: 0x10002274C, symSize: 0x34 }
  - { offsetInCU: 0x38DA5, offset: 0xBCE37, size: 0x8, addend: 0x0, symName: __ZNSt3__16vectorIN3tmx9TileLayer4TileENS_9allocatorIS3_EEE16__destroy_vectorclB8ue170006Ev, symObjAddr: 0x148E4, symBinAddr: 0x100022780, symSize: 0x90 }
  - { offsetInCU: 0x38DCB, offset: 0xBCE5D, size: 0x8, addend: 0x0, symName: __ZNSt3__16vectorIN3tmx9TileLayer4TileENS_9allocatorIS3_EEE16__destroy_vectorC2B8ue170006ERS6_, symObjAddr: 0x14974, symBinAddr: 0x100022810, symSize: 0x20 }
  - { offsetInCU: 0x38E04, offset: 0xBCE96, size: 0x8, addend: 0x0, symName: __ZNSt3__16vectorIN3tmx9TileLayer4TileENS_9allocatorIS3_EEE7__clearB8ue170006Ev, symObjAddr: 0x14994, symBinAddr: 0x100022830, symSize: 0x28 }
  - { offsetInCU: 0x38E2A, offset: 0xBCEBC, size: 0x8, addend: 0x0, symName: __ZNKSt3__16vectorIN3tmx9TileLayer4TileENS_9allocatorIS3_EEE17__annotate_deleteB8ue170006Ev, symObjAddr: 0x149BC, symBinAddr: 0x100022858, symSize: 0xB8 }
  - { offsetInCU: 0x38E50, offset: 0xBCEE2, size: 0x8, addend: 0x0, symName: __ZNSt3__116allocator_traitsINS_9allocatorIN3tmx9TileLayer4TileEEEE10deallocateB8ue170006ERS5_PS4_m, symObjAddr: 0x14A74, symBinAddr: 0x100022910, symSize: 0x34 }
  - { offsetInCU: 0x38E92, offset: 0xBCF24, size: 0x8, addend: 0x0, symName: __ZNSt3__16vectorIN3tmx9TileLayer4TileENS_9allocatorIS3_EEE7__allocB8ue170006Ev, symObjAddr: 0x14AA8, symBinAddr: 0x100022944, symSize: 0x28 }
  - { offsetInCU: 0x38EB8, offset: 0xBCF4A, size: 0x8, addend: 0x0, symName: __ZNKSt3__16vectorIN3tmx9TileLayer4TileENS_9allocatorIS3_EEE8capacityB8ue170006Ev, symObjAddr: 0x14AD0, symBinAddr: 0x10002296C, symSize: 0x40 }
  - { offsetInCU: 0x38EDE, offset: 0xBCF70, size: 0x8, addend: 0x0, symName: __ZNSt3__16vectorIN3tmx9TileLayer4TileENS_9allocatorIS3_EEE22__base_destruct_at_endB8ue170006EPS3_, symObjAddr: 0x14B10, symBinAddr: 0x1000229AC, symSize: 0x8C }
  - { offsetInCU: 0x38F22, offset: 0xBCFB4, size: 0x8, addend: 0x0, symName: __ZNSt3__116allocator_traitsINS_9allocatorIN3tmx9TileLayer4TileEEEE7destroyB8ue170006IS4_vEEvRS5_PT_, symObjAddr: 0x14B9C, symBinAddr: 0x100022A38, symSize: 0x2C }
  - { offsetInCU: 0x38F5F, offset: 0xBCFF1, size: 0x8, addend: 0x0, symName: __ZNSt3__19allocatorIN3tmx9TileLayer4TileEE7destroyB8ue170006EPS3_, symObjAddr: 0x14BDC, symBinAddr: 0x100022A78, symSize: 0x14 }
  - { offsetInCU: 0x38F93, offset: 0xBD025, size: 0x8, addend: 0x0, symName: __ZNKSt3__16vectorIN3tmx9TileLayer4TileENS_9allocatorIS3_EEE31__annotate_contiguous_containerB8ue170006EPKvS8_S8_S8_, symObjAddr: 0x14BF0, symBinAddr: 0x100022A8C, symSize: 0x20 }
  - { offsetInCU: 0x38FE9, offset: 0xBD07B, size: 0x8, addend: 0x0, symName: __ZNKSt3__16vectorIN3tmx9TileLayer4TileENS_9allocatorIS3_EEE4dataB8ue170006Ev, symObjAddr: 0x14C10, symBinAddr: 0x100022AAC, symSize: 0x28 }
  - { offsetInCU: 0x3900F, offset: 0xBD0A1, size: 0x8, addend: 0x0, symName: __ZNKSt3__16vectorIN3tmx9TileLayer4TileENS_9allocatorIS3_EEE4sizeB8ue170006Ev, symObjAddr: 0x14C38, symBinAddr: 0x100022AD4, symSize: 0x28 }
  - { offsetInCU: 0x39035, offset: 0xBD0C7, size: 0x8, addend: 0x0, symName: __ZNSt3__19allocatorIN3tmx9TileLayer4TileEE10deallocateB8ue170006EPS3_m, symObjAddr: 0x14C60, symBinAddr: 0x100022AFC, symSize: 0x40 }
  - { offsetInCU: 0x39077, offset: 0xBD109, size: 0x8, addend: 0x0, symName: __ZNSt3__117__compressed_pairIPN3tmx9TileLayer4TileENS_9allocatorIS3_EEE6secondB8ue170006Ev, symObjAddr: 0x14CA0, symBinAddr: 0x100022B3C, symSize: 0x24 }
  - { offsetInCU: 0x3909D, offset: 0xBD12F, size: 0x8, addend: 0x0, symName: __ZNSt3__122__compressed_pair_elemINS_9allocatorIN3tmx9TileLayer4TileEEELi1ELb1EE5__getB8ue170006Ev, symObjAddr: 0x14CC4, symBinAddr: 0x100022B60, symSize: 0x14 }
  - { offsetInCU: 0x390C3, offset: 0xBD155, size: 0x8, addend: 0x0, symName: __ZNKSt3__16vectorIN3tmx9TileLayer4TileENS_9allocatorIS3_EEE9__end_capB8ue170006Ev, symObjAddr: 0x14CD8, symBinAddr: 0x100022B74, symSize: 0x28 }
  - { offsetInCU: 0x390E9, offset: 0xBD17B, size: 0x8, addend: 0x0, symName: __ZNKSt3__117__compressed_pairIPN3tmx9TileLayer4TileENS_9allocatorIS3_EEE5firstB8ue170006Ev, symObjAddr: 0x14D00, symBinAddr: 0x100022B9C, symSize: 0x24 }
  - { offsetInCU: 0x3910F, offset: 0xBD1A1, size: 0x8, addend: 0x0, symName: __ZNKSt3__122__compressed_pair_elemIPN3tmx9TileLayer4TileELi0ELb0EE5__getB8ue170006Ev, symObjAddr: 0x14D24, symBinAddr: 0x100022BC0, symSize: 0x14 }
  - { offsetInCU: 0x39135, offset: 0xBD1C7, size: 0x8, addend: 0x0, symName: __ZNSt3__16vectorINS_10unique_ptrIN3tmx5LayerENS_14default_deleteIS3_EEEENS_9allocatorIS6_EEE9__end_capB8ue170006Ev, symObjAddr: 0x14D38, symBinAddr: 0x100022BD4, symSize: 0x28 }
  - { offsetInCU: 0x3915B, offset: 0xBD1ED, size: 0x8, addend: 0x0, symName: __ZNSt3__16vectorINS_10unique_ptrIN3tmx5LayerENS_14default_deleteIS3_EEEENS_9allocatorIS6_EEE22__construct_one_at_endB8ue170006IJNS1_INS2_9TileLayerENS4_ISB_EEEEEEEvDpOT_, symObjAddr: 0x14D60, symBinAddr: 0x100022BFC, symSize: 0x90 }
  - { offsetInCU: 0x391AA, offset: 0xBD23C, size: 0x8, addend: 0x0, symName: __ZNSt3__16vectorINS_10unique_ptrIN3tmx5LayerENS_14default_deleteIS3_EEEENS_9allocatorIS6_EEE24__emplace_back_slow_pathIJNS1_INS2_9TileLayerENS4_ISB_EEEEEEEvDpOT_, symObjAddr: 0x14DF0, symBinAddr: 0x100022C8C, symSize: 0xD8 }
  - { offsetInCU: 0x3920A, offset: 0xBD29C, size: 0x8, addend: 0x0, symName: __ZNSt3__117__compressed_pairIPNS_10unique_ptrIN3tmx5LayerENS_14default_deleteIS3_EEEENS_9allocatorIS6_EEE5firstB8ue170006Ev, symObjAddr: 0x14EC8, symBinAddr: 0x100022D64, symSize: 0x24 }
  - { offsetInCU: 0x39230, offset: 0xBD2C2, size: 0x8, addend: 0x0, symName: __ZNSt3__122__compressed_pair_elemIPNS_10unique_ptrIN3tmx5LayerENS_14default_deleteIS3_EEEELi0ELb0EE5__getB8ue170006Ev, symObjAddr: 0x14EEC, symBinAddr: 0x100022D88, symSize: 0x14 }
  - { offsetInCU: 0x3926F, offset: 0xBD301, size: 0x8, addend: 0x0, symName: __ZNSt3__16vectorINS_10unique_ptrIN3tmx5LayerENS_14default_deleteIS3_EEEENS_9allocatorIS6_EEE21_ConstructTransactionC1B8ue170006ERS9_m, symObjAddr: 0x14F00, symBinAddr: 0x100022D9C, symSize: 0x3C }
  - { offsetInCU: 0x392B7, offset: 0xBD349, size: 0x8, addend: 0x0, symName: __ZNSt3__116allocator_traitsINS_9allocatorINS_10unique_ptrIN3tmx5LayerENS_14default_deleteIS4_EEEEEEE9constructB8ue170006IS7_JNS2_INS3_9TileLayerENS5_ISB_EEEEEvEEvRS8_PT_DpOT0_, symObjAddr: 0x14F3C, symBinAddr: 0x100022DD8, symSize: 0x34 }
  - { offsetInCU: 0x3930E, offset: 0xBD3A0, size: 0x8, addend: 0x0, symName: __ZNSt3__16vectorINS_10unique_ptrIN3tmx5LayerENS_14default_deleteIS3_EEEENS_9allocatorIS6_EEE21_ConstructTransactionD1B8ue170006Ev, symObjAddr: 0x14FAC, symBinAddr: 0x100022E0C, symSize: 0x2C }
  - { offsetInCU: 0x39338, offset: 0xBD3CA, size: 0x8, addend: 0x0, symName: __ZNSt3__16vectorINS_10unique_ptrIN3tmx5LayerENS_14default_deleteIS3_EEEENS_9allocatorIS6_EEE21_ConstructTransactionC2B8ue170006ERS9_m, symObjAddr: 0x14FD8, symBinAddr: 0x100022E38, symSize: 0x44 }
  - { offsetInCU: 0x39380, offset: 0xBD412, size: 0x8, addend: 0x0, symName: __ZNSt3__19allocatorINS_10unique_ptrIN3tmx5LayerENS_14default_deleteIS3_EEEEE9constructB8ue170006IS6_JNS1_INS2_9TileLayerENS4_IS9_EEEEEEEvPT_DpOT0_, symObjAddr: 0x1501C, symBinAddr: 0x100022E7C, symSize: 0x30 }
  - { offsetInCU: 0x393D6, offset: 0xBD468, size: 0x8, addend: 0x0, symName: __ZNSt3__110unique_ptrIN3tmx5LayerENS_14default_deleteIS2_EEEC1B8ue170006INS1_9TileLayerENS3_IS7_EEvvEEONS0_IT_T0_EE, symObjAddr: 0x1504C, symBinAddr: 0x100022EAC, symSize: 0x34 }
  - { offsetInCU: 0x39422, offset: 0xBD4B4, size: 0x8, addend: 0x0, symName: __ZNSt3__110unique_ptrIN3tmx5LayerENS_14default_deleteIS2_EEEC2B8ue170006INS1_9TileLayerENS3_IS7_EEvvEEONS0_IT_T0_EE, symObjAddr: 0x15080, symBinAddr: 0x100022EE0, symSize: 0x60 }
  - { offsetInCU: 0x3946E, offset: 0xBD500, size: 0x8, addend: 0x0, symName: __ZNSt3__110unique_ptrIN3tmx9TileLayerENS_14default_deleteIS2_EEE7releaseB8ue170006Ev, symObjAddr: 0x150E0, symBinAddr: 0x100022F40, symSize: 0x44 }
  - { offsetInCU: 0x394A3, offset: 0xBD535, size: 0x8, addend: 0x0, symName: __ZNSt3__110unique_ptrIN3tmx9TileLayerENS_14default_deleteIS2_EEE11get_deleterB8ue170006Ev, symObjAddr: 0x15124, symBinAddr: 0x100022F84, symSize: 0x24 }
  - { offsetInCU: 0x394D3, offset: 0xBD565, size: 0x8, addend: 0x0, symName: __ZNSt3__117__compressed_pairIPN3tmx5LayerENS_14default_deleteIS2_EEEC1B8ue170006IPNS1_9TileLayerENS4_IS8_EEEEOT_OT0_, symObjAddr: 0x15148, symBinAddr: 0x100022FA8, symSize: 0x3C }
  - { offsetInCU: 0x3952B, offset: 0xBD5BD, size: 0x8, addend: 0x0, symName: __ZNSt3__117__compressed_pairIPN3tmx5LayerENS_14default_deleteIS2_EEEC2B8ue170006IPNS1_9TileLayerENS4_IS8_EEEEOT_OT0_, symObjAddr: 0x15184, symBinAddr: 0x100022FE4, symSize: 0x44 }
  - { offsetInCU: 0x39583, offset: 0xBD615, size: 0x8, addend: 0x0, symName: __ZNSt3__122__compressed_pair_elemIPN3tmx5LayerELi0ELb0EEC2B8ue170006IPNS1_9TileLayerEvEEOT_, symObjAddr: 0x151C8, symBinAddr: 0x100023028, symSize: 0x24 }
  - { offsetInCU: 0x395C5, offset: 0xBD657, size: 0x8, addend: 0x0, symName: __ZNSt3__122__compressed_pair_elemINS_14default_deleteIN3tmx5LayerEEELi1ELb1EEC2B8ue170006INS1_INS2_9TileLayerEEEvEEOT_, symObjAddr: 0x151EC, symBinAddr: 0x10002304C, symSize: 0x38 }
  - { offsetInCU: 0x3960C, offset: 0xBD69E, size: 0x8, addend: 0x0, symName: __ZNSt3__114default_deleteIN3tmx5LayerEEC2B8ue170006INS1_9TileLayerEEERKNS0_IT_EEPNS_9enable_ifIXsr14is_convertibleIPS6_PS2_EE5valueEvE4typeE, symObjAddr: 0x15224, symBinAddr: 0x100023084, symSize: 0x1C }
  - { offsetInCU: 0x39655, offset: 0xBD6E7, size: 0x8, addend: 0x0, symName: __ZNSt3__16vectorINS_10unique_ptrIN3tmx5LayerENS_14default_deleteIS3_EEEENS_9allocatorIS6_EEE21_ConstructTransactionD2B8ue170006Ev, symObjAddr: 0x15278, symBinAddr: 0x1000230A0, symSize: 0x20 }
  - { offsetInCU: 0x3967F, offset: 0xBD711, size: 0x8, addend: 0x0, symName: __ZNKSt3__16vectorINS_10unique_ptrIN3tmx5LayerENS_14default_deleteIS3_EEEENS_9allocatorIS6_EEE11__recommendB8ue170006Em, symObjAddr: 0x15298, symBinAddr: 0x1000230C0, symSize: 0xB4 }
  - { offsetInCU: 0x396D4, offset: 0xBD766, size: 0x8, addend: 0x0, symName: __ZNSt3__114__split_bufferINS_10unique_ptrIN3tmx5LayerENS_14default_deleteIS3_EEEERNS_9allocatorIS6_EEEC1EmmS9_, symObjAddr: 0x15374, symBinAddr: 0x100023174, symSize: 0x44 }
  - { offsetInCU: 0x3972A, offset: 0xBD7BC, size: 0x8, addend: 0x0, symName: __ZNSt3__114__split_bufferINS_10unique_ptrIN3tmx5LayerENS_14default_deleteIS3_EEEERNS_9allocatorIS6_EEED1Ev, symObjAddr: 0x154C8, symBinAddr: 0x1000232C8, symSize: 0x2C }
  - { offsetInCU: 0x39756, offset: 0xBD7E8, size: 0x8, addend: 0x0, symName: __ZNKSt3__16vectorINS_10unique_ptrIN3tmx5LayerENS_14default_deleteIS3_EEEENS_9allocatorIS6_EEE8max_sizeEv, symObjAddr: 0x154F4, symBinAddr: 0x1000232F4, symSize: 0x60 }
  - { offsetInCU: 0x3977E, offset: 0xBD810, size: 0x8, addend: 0x0, symName: __ZNKSt3__16vectorINS_10unique_ptrIN3tmx5LayerENS_14default_deleteIS3_EEEENS_9allocatorIS6_EEE20__throw_length_errorB8ue170006Ev, symObjAddr: 0x15554, symBinAddr: 0x100023354, symSize: 0x1C }
  - { offsetInCU: 0x397AE, offset: 0xBD840, size: 0x8, addend: 0x0, symName: __ZNSt3__116allocator_traitsINS_9allocatorINS_10unique_ptrIN3tmx5LayerENS_14default_deleteIS4_EEEEEEE8max_sizeB8ue170006IS8_vEEmRKS8_, symObjAddr: 0x155B0, symBinAddr: 0x100023370, symSize: 0x24 }
  - { offsetInCU: 0x397DC, offset: 0xBD86E, size: 0x8, addend: 0x0, symName: __ZNKSt3__16vectorINS_10unique_ptrIN3tmx5LayerENS_14default_deleteIS3_EEEENS_9allocatorIS6_EEE7__allocB8ue170006Ev, symObjAddr: 0x155D4, symBinAddr: 0x100023394, symSize: 0x28 }
  - { offsetInCU: 0x39802, offset: 0xBD894, size: 0x8, addend: 0x0, symName: __ZNKSt3__19allocatorINS_10unique_ptrIN3tmx5LayerENS_14default_deleteIS3_EEEEE8max_sizeB8ue170006Ev, symObjAddr: 0x155FC, symBinAddr: 0x1000233BC, symSize: 0x14 }
  - { offsetInCU: 0x39828, offset: 0xBD8BA, size: 0x8, addend: 0x0, symName: __ZNKSt3__117__compressed_pairIPNS_10unique_ptrIN3tmx5LayerENS_14default_deleteIS3_EEEENS_9allocatorIS6_EEE6secondB8ue170006Ev, symObjAddr: 0x15610, symBinAddr: 0x1000233D0, symSize: 0x24 }
  - { offsetInCU: 0x3984E, offset: 0xBD8E0, size: 0x8, addend: 0x0, symName: __ZNKSt3__122__compressed_pair_elemINS_9allocatorINS_10unique_ptrIN3tmx5LayerENS_14default_deleteIS4_EEEEEELi1ELb1EE5__getB8ue170006Ev, symObjAddr: 0x15634, symBinAddr: 0x1000233F4, symSize: 0x14 }
  - { offsetInCU: 0x39874, offset: 0xBD906, size: 0x8, addend: 0x0, symName: __ZNSt3__114__split_bufferINS_10unique_ptrIN3tmx5LayerENS_14default_deleteIS3_EEEERNS_9allocatorIS6_EEEC2EmmS9_, symObjAddr: 0x156A8, symBinAddr: 0x100023408, symSize: 0xD4 }
  - { offsetInCU: 0x398E7, offset: 0xBD979, size: 0x8, addend: 0x0, symName: __ZNSt3__117__compressed_pairIPNS_10unique_ptrIN3tmx5LayerENS_14default_deleteIS3_EEEERNS_9allocatorIS6_EEEC1B8ue170006IDnSA_EEOT_OT0_, symObjAddr: 0x1577C, symBinAddr: 0x1000234DC, symSize: 0x3C }
  - { offsetInCU: 0x3993F, offset: 0xBD9D1, size: 0x8, addend: 0x0, symName: __ZNSt3__114__split_bufferINS_10unique_ptrIN3tmx5LayerENS_14default_deleteIS3_EEEERNS_9allocatorIS6_EEE7__allocB8ue170006Ev, symObjAddr: 0x157F8, symBinAddr: 0x100023558, symSize: 0x28 }
  - { offsetInCU: 0x39965, offset: 0xBD9F7, size: 0x8, addend: 0x0, symName: __ZNSt3__114__split_bufferINS_10unique_ptrIN3tmx5LayerENS_14default_deleteIS3_EEEERNS_9allocatorIS6_EEE9__end_capB8ue170006Ev, symObjAddr: 0x15820, symBinAddr: 0x100023580, symSize: 0x28 }
  - { offsetInCU: 0x3998B, offset: 0xBDA1D, size: 0x8, addend: 0x0, symName: __ZNSt3__117__compressed_pairIPNS_10unique_ptrIN3tmx5LayerENS_14default_deleteIS3_EEEERNS_9allocatorIS6_EEEC2B8ue170006IDnSA_EEOT_OT0_, symObjAddr: 0x15848, symBinAddr: 0x1000235A8, symSize: 0x48 }
  - { offsetInCU: 0x399E3, offset: 0xBDA75, size: 0x8, addend: 0x0, symName: __ZNSt3__122__compressed_pair_elemIRNS_9allocatorINS_10unique_ptrIN3tmx5LayerENS_14default_deleteIS4_EEEEEELi1ELb0EEC2B8ue170006IS9_vEEOT_, symObjAddr: 0x15890, symBinAddr: 0x1000235F0, symSize: 0x20 }
  - { offsetInCU: 0x39A25, offset: 0xBDAB7, size: 0x8, addend: 0x0, symName: __ZNSt3__19allocatorINS_10unique_ptrIN3tmx5LayerENS_14default_deleteIS3_EEEEE8allocateB8ue170006Em, symObjAddr: 0x158B0, symBinAddr: 0x100023610, symSize: 0x58 }
  - { offsetInCU: 0x39A59, offset: 0xBDAEB, size: 0x8, addend: 0x0, symName: __ZNSt3__117__compressed_pairIPNS_10unique_ptrIN3tmx5LayerENS_14default_deleteIS3_EEEERNS_9allocatorIS6_EEE6secondB8ue170006Ev, symObjAddr: 0x15908, symBinAddr: 0x100023668, symSize: 0x28 }
  - { offsetInCU: 0x39A7F, offset: 0xBDB11, size: 0x8, addend: 0x0, symName: __ZNSt3__122__compressed_pair_elemIRNS_9allocatorINS_10unique_ptrIN3tmx5LayerENS_14default_deleteIS4_EEEEEELi1ELb0EE5__getB8ue170006Ev, symObjAddr: 0x15930, symBinAddr: 0x100023690, symSize: 0x18 }
  - { offsetInCU: 0x39AA5, offset: 0xBDB37, size: 0x8, addend: 0x0, symName: __ZNSt3__117__compressed_pairIPNS_10unique_ptrIN3tmx5LayerENS_14default_deleteIS3_EEEERNS_9allocatorIS6_EEE5firstB8ue170006Ev, symObjAddr: 0x15948, symBinAddr: 0x1000236A8, symSize: 0x24 }
  - { offsetInCU: 0x39ACB, offset: 0xBDB5D, size: 0x8, addend: 0x0, symName: __ZNSt3__116reverse_iteratorIPNS_10unique_ptrIN3tmx5LayerENS_14default_deleteIS3_EEEEEC1B8ue170006ES7_, symObjAddr: 0x15B50, symBinAddr: 0x1000237F8, symSize: 0x34 }
  - { offsetInCU: 0x39B03, offset: 0xBDB95, size: 0x8, addend: 0x0, symName: __ZNKSt3__116reverse_iteratorIPNS_10unique_ptrIN3tmx5LayerENS_14default_deleteIS3_EEEEE4baseB8ue170006Ev, symObjAddr: 0x15B84, symBinAddr: 0x10002382C, symSize: 0x18 }
  - { offsetInCU: 0x39B29, offset: 0xBDBBB, size: 0x8, addend: 0x0, symName: __ZNKSt3__16vectorINS_10unique_ptrIN3tmx5LayerENS_14default_deleteIS3_EEEENS_9allocatorIS6_EEE14__annotate_newB8ue170006Em, symObjAddr: 0x15BD8, symBinAddr: 0x100023880, symSize: 0xAC }
  - { offsetInCU: 0x39B5E, offset: 0xBDBF0, size: 0x8, addend: 0x0, symName: __ZNSt3__129_AllocatorDestroyRangeReverseINS_9allocatorINS_10unique_ptrIN3tmx5LayerENS_14default_deleteIS4_EEEEEENS_16reverse_iteratorIPS7_EEEC1B8ue170006ERS8_RSB_SE_, symObjAddr: 0x15D18, symBinAddr: 0x100023978, symSize: 0x44 }
  - { offsetInCU: 0x39BB5, offset: 0xBDC47, size: 0x8, addend: 0x0, symName: __ZNSt3__116allocator_traitsINS_9allocatorINS_10unique_ptrIN3tmx5LayerENS_14default_deleteIS4_EEEEEEE9constructB8ue170006IS7_JS7_EvEEvRS8_PT_DpOT0_, symObjAddr: 0x15DA4, symBinAddr: 0x100023A04, symSize: 0x34 }
  - { offsetInCU: 0x39C0C, offset: 0xBDC9E, size: 0x8, addend: 0x0, symName: __ZNKSt3__116reverse_iteratorIPNS_10unique_ptrIN3tmx5LayerENS_14default_deleteIS3_EEEEEdeB8ue170006Ev, symObjAddr: 0x15DFC, symBinAddr: 0x100023A5C, symSize: 0x28 }
  - { offsetInCU: 0x39C41, offset: 0xBDCD3, size: 0x8, addend: 0x0, symName: __ZNSt3__116reverse_iteratorIPNS_10unique_ptrIN3tmx5LayerENS_14default_deleteIS3_EEEEEppB8ue170006Ev, symObjAddr: 0x15E24, symBinAddr: 0x100023A84, symSize: 0x20 }
  - { offsetInCU: 0x39C67, offset: 0xBDCF9, size: 0x8, addend: 0x0, symName: __ZNSt3__128__exception_guard_exceptionsINS_29_AllocatorDestroyRangeReverseINS_9allocatorINS_10unique_ptrIN3tmx5LayerENS_14default_deleteIS5_EEEEEENS_16reverse_iteratorIPS8_EEEEE10__completeB8ue170006Ev, symObjAddr: 0x15E44, symBinAddr: 0x100023AA4, symSize: 0x1C }
  - { offsetInCU: 0x39C8D, offset: 0xBDD1F, size: 0x8, addend: 0x0, symName: __ZNSt3__128__exception_guard_exceptionsINS_29_AllocatorDestroyRangeReverseINS_9allocatorINS_10unique_ptrIN3tmx5LayerENS_14default_deleteIS5_EEEEEENS_16reverse_iteratorIPS8_EEEEED1B8ue170006Ev, symObjAddr: 0x15E60, symBinAddr: 0x100023AC0, symSize: 0x2C }
  - { offsetInCU: 0x39CB7, offset: 0xBDD49, size: 0x8, addend: 0x0, symName: __ZNSt3__128__exception_guard_exceptionsINS_29_AllocatorDestroyRangeReverseINS_9allocatorINS_10unique_ptrIN3tmx5LayerENS_14default_deleteIS5_EEEEEENS_16reverse_iteratorIPS8_EEEEEC1B8ue170006ESD_, symObjAddr: 0x15E8C, symBinAddr: 0x100023AEC, symSize: 0x34 }
  - { offsetInCU: 0x39CF0, offset: 0xBDD82, size: 0x8, addend: 0x0, symName: __ZNSt3__128__exception_guard_exceptionsINS_29_AllocatorDestroyRangeReverseINS_9allocatorINS_10unique_ptrIN3tmx5LayerENS_14default_deleteIS5_EEEEEENS_16reverse_iteratorIPS8_EEEEEC2B8ue170006ESD_, symObjAddr: 0x15EC0, symBinAddr: 0x100023B20, symSize: 0x30 }
  - { offsetInCU: 0x39D29, offset: 0xBDDBB, size: 0x8, addend: 0x0, symName: __ZNSt3__129_AllocatorDestroyRangeReverseINS_9allocatorINS_10unique_ptrIN3tmx5LayerENS_14default_deleteIS4_EEEEEENS_16reverse_iteratorIPS7_EEEC2B8ue170006ERS8_RSB_SE_, symObjAddr: 0x15EF0, symBinAddr: 0x100023B50, symSize: 0x38 }
  - { offsetInCU: 0x39D80, offset: 0xBDE12, size: 0x8, addend: 0x0, symName: __ZNSt3__19allocatorINS_10unique_ptrIN3tmx5LayerENS_14default_deleteIS3_EEEEE9constructB8ue170006IS6_JS6_EEEvPT_DpOT0_, symObjAddr: 0x15F28, symBinAddr: 0x100023B88, symSize: 0x30 }
  - { offsetInCU: 0x39DD6, offset: 0xBDE68, size: 0x8, addend: 0x0, symName: __ZNSt3__110unique_ptrIN3tmx5LayerENS_14default_deleteIS2_EEEC1B8ue170006EOS5_, symObjAddr: 0x15F58, symBinAddr: 0x100023BB8, symSize: 0x34 }
  - { offsetInCU: 0x39E0E, offset: 0xBDEA0, size: 0x8, addend: 0x0, symName: __ZNSt3__110unique_ptrIN3tmx5LayerENS_14default_deleteIS2_EEEC2B8ue170006EOS5_, symObjAddr: 0x15F8C, symBinAddr: 0x100023BEC, symSize: 0x60 }
  - { offsetInCU: 0x39E46, offset: 0xBDED8, size: 0x8, addend: 0x0, symName: __ZNSt3__110unique_ptrIN3tmx5LayerENS_14default_deleteIS2_EEE7releaseB8ue170006Ev, symObjAddr: 0x15FEC, symBinAddr: 0x100023C4C, symSize: 0x44 }
  - { offsetInCU: 0x39E7B, offset: 0xBDF0D, size: 0x8, addend: 0x0, symName: __ZNSt3__110unique_ptrIN3tmx5LayerENS_14default_deleteIS2_EEE11get_deleterB8ue170006Ev, symObjAddr: 0x16030, symBinAddr: 0x100023C90, symSize: 0x24 }
  - { offsetInCU: 0x39EAB, offset: 0xBDF3D, size: 0x8, addend: 0x0, symName: __ZNSt3__117__compressed_pairIPN3tmx5LayerENS_14default_deleteIS2_EEEC1B8ue170006IS3_S5_EEOT_OT0_, symObjAddr: 0x16054, symBinAddr: 0x100023CB4, symSize: 0x3C }
  - { offsetInCU: 0x39F03, offset: 0xBDF95, size: 0x8, addend: 0x0, symName: __ZNSt3__117__compressed_pairIPN3tmx5LayerENS_14default_deleteIS2_EEEC2B8ue170006IS3_S5_EEOT_OT0_, symObjAddr: 0x16100, symBinAddr: 0x100023CF0, symSize: 0x44 }
  - { offsetInCU: 0x39F5B, offset: 0xBDFED, size: 0x8, addend: 0x0, symName: __ZNSt3__122__compressed_pair_elemIPN3tmx5LayerELi0ELb0EEC2B8ue170006IS3_vEEOT_, symObjAddr: 0x16144, symBinAddr: 0x100023D34, symSize: 0x24 }
  - { offsetInCU: 0x39F9D, offset: 0xBE02F, size: 0x8, addend: 0x0, symName: __ZNSt3__122__compressed_pair_elemINS_14default_deleteIN3tmx5LayerEEELi1ELb1EEC2B8ue170006IS4_vEEOT_, symObjAddr: 0x16168, symBinAddr: 0x100023D58, symSize: 0x18 }
  - { offsetInCU: 0x39FE4, offset: 0xBE076, size: 0x8, addend: 0x0, symName: __ZNSt3__119__to_address_helperINS_16reverse_iteratorIPNS_10unique_ptrIN3tmx5LayerENS_14default_deleteIS4_EEEEEEvE6__callB8ue170006ERKS9_, symObjAddr: 0x16180, symBinAddr: 0x100023D70, symSize: 0x38 }
  - { offsetInCU: 0x3A007, offset: 0xBE099, size: 0x8, addend: 0x0, symName: __ZNKSt3__116reverse_iteratorIPNS_10unique_ptrIN3tmx5LayerENS_14default_deleteIS3_EEEEEptB8ue170006Ev, symObjAddr: 0x161B8, symBinAddr: 0x100023DA8, symSize: 0x24 }
  - { offsetInCU: 0x3A02D, offset: 0xBE0BF, size: 0x8, addend: 0x0, symName: __ZNSt3__128__exception_guard_exceptionsINS_29_AllocatorDestroyRangeReverseINS_9allocatorINS_10unique_ptrIN3tmx5LayerENS_14default_deleteIS5_EEEEEENS_16reverse_iteratorIPS8_EEEEED2B8ue170006Ev, symObjAddr: 0x161DC, symBinAddr: 0x100023DCC, symSize: 0x50 }
  - { offsetInCU: 0x3A057, offset: 0xBE0E9, size: 0x8, addend: 0x0, symName: __ZNKSt3__129_AllocatorDestroyRangeReverseINS_9allocatorINS_10unique_ptrIN3tmx5LayerENS_14default_deleteIS4_EEEEEENS_16reverse_iteratorIPS7_EEEclB8ue170006Ev, symObjAddr: 0x1622C, symBinAddr: 0x100023E1C, symSize: 0xB4 }
  - { offsetInCU: 0x3A07E, offset: 0xBE110, size: 0x8, addend: 0x0, symName: __ZNSt3__116reverse_iteratorINS0_IPNS_10unique_ptrIN3tmx5LayerENS_14default_deleteIS3_EEEEEEEC1B8ue170006ES8_, symObjAddr: 0x16350, symBinAddr: 0x100023F40, symSize: 0x3C }
  - { offsetInCU: 0x3A0B6, offset: 0xBE148, size: 0x8, addend: 0x0, symName: __ZNSt3__116reverse_iteratorINS0_IPNS_10unique_ptrIN3tmx5LayerENS_14default_deleteIS3_EEEEEEEppB8ue170006Ev, symObjAddr: 0x1643C, symBinAddr: 0x100024000, symSize: 0x30 }
  - { offsetInCU: 0x3A0DC, offset: 0xBE16E, size: 0x8, addend: 0x0, symName: __ZNKSt3__116reverse_iteratorINS0_IPNS_10unique_ptrIN3tmx5LayerENS_14default_deleteIS3_EEEEEEE4baseB8ue170006Ev, symObjAddr: 0x1646C, symBinAddr: 0x100024030, symSize: 0x24 }
  - { offsetInCU: 0x3A107, offset: 0xBE199, size: 0x8, addend: 0x0, symName: __ZNSt3__119__to_address_helperINS_16reverse_iteratorINS1_IPNS_10unique_ptrIN3tmx5LayerENS_14default_deleteIS4_EEEEEEEEvE6__callB8ue170006ERKSA_, symObjAddr: 0x165D8, symBinAddr: 0x100024054, symSize: 0x38 }
  - { offsetInCU: 0x3A12A, offset: 0xBE1BC, size: 0x8, addend: 0x0, symName: __ZNKSt3__116reverse_iteratorINS0_IPNS_10unique_ptrIN3tmx5LayerENS_14default_deleteIS3_EEEEEEEptB8ue170006Ev, symObjAddr: 0x16610, symBinAddr: 0x10002408C, symSize: 0x24 }
  - { offsetInCU: 0x3A150, offset: 0xBE1E2, size: 0x8, addend: 0x0, symName: __ZNKSt3__116reverse_iteratorINS0_IPNS_10unique_ptrIN3tmx5LayerENS_14default_deleteIS3_EEEEEEEdeB8ue170006Ev, symObjAddr: 0x16634, symBinAddr: 0x1000240B0, symSize: 0x34 }
  - { offsetInCU: 0x3A185, offset: 0xBE217, size: 0x8, addend: 0x0, symName: __ZNSt3__116reverse_iteratorIPNS_10unique_ptrIN3tmx5LayerENS_14default_deleteIS3_EEEEEmmB8ue170006Ev, symObjAddr: 0x16668, symBinAddr: 0x1000240E4, symSize: 0x20 }
  - { offsetInCU: 0x3A1AB, offset: 0xBE23D, size: 0x8, addend: 0x0, symName: __ZNSt3__116reverse_iteratorINS0_IPNS_10unique_ptrIN3tmx5LayerENS_14default_deleteIS3_EEEEEEEC2B8ue170006ES8_, symObjAddr: 0x16688, symBinAddr: 0x100024104, symSize: 0x2C }
  - { offsetInCU: 0x3A1E3, offset: 0xBE275, size: 0x8, addend: 0x0, symName: __ZNSt3__116reverse_iteratorIPNS_10unique_ptrIN3tmx5LayerENS_14default_deleteIS3_EEEEEC2B8ue170006ES7_, symObjAddr: 0x166B4, symBinAddr: 0x100024130, symSize: 0x28 }
  - { offsetInCU: 0x3A21B, offset: 0xBE2AD, size: 0x8, addend: 0x0, symName: __ZNSt3__114__split_bufferINS_10unique_ptrIN3tmx5LayerENS_14default_deleteIS3_EEEERNS_9allocatorIS6_EEED2Ev, symObjAddr: 0x166DC, symBinAddr: 0x100024158, symSize: 0x8C }
  - { offsetInCU: 0x3A247, offset: 0xBE2D9, size: 0x8, addend: 0x0, symName: __ZNSt3__114__split_bufferINS_10unique_ptrIN3tmx5LayerENS_14default_deleteIS3_EEEERNS_9allocatorIS6_EEE5clearB8ue170006Ev, symObjAddr: 0x16768, symBinAddr: 0x1000241E4, symSize: 0x28 }
  - { offsetInCU: 0x3A26D, offset: 0xBE2FF, size: 0x8, addend: 0x0, symName: __ZNKSt3__114__split_bufferINS_10unique_ptrIN3tmx5LayerENS_14default_deleteIS3_EEEERNS_9allocatorIS6_EEE8capacityB8ue170006Ev, symObjAddr: 0x167C4, symBinAddr: 0x10002420C, symSize: 0x40 }
  - { offsetInCU: 0x3A293, offset: 0xBE325, size: 0x8, addend: 0x0, symName: __ZNSt3__114__split_bufferINS_10unique_ptrIN3tmx5LayerENS_14default_deleteIS3_EEEERNS_9allocatorIS6_EEE17__destruct_at_endB8ue170006EPS6_, symObjAddr: 0x16804, symBinAddr: 0x10002424C, symSize: 0x2C }
  - { offsetInCU: 0x3A2C7, offset: 0xBE359, size: 0x8, addend: 0x0, symName: __ZNSt3__114__split_bufferINS_10unique_ptrIN3tmx5LayerENS_14default_deleteIS3_EEEERNS_9allocatorIS6_EEE17__destruct_at_endB8ue170006EPS6_NS_17integral_constantIbLb0EEE, symObjAddr: 0x16830, symBinAddr: 0x100024278, symSize: 0x80 }
  - { offsetInCU: 0x3A308, offset: 0xBE39A, size: 0x8, addend: 0x0, symName: __ZNKSt3__114__split_bufferINS_10unique_ptrIN3tmx5LayerENS_14default_deleteIS3_EEEERNS_9allocatorIS6_EEE9__end_capB8ue170006Ev, symObjAddr: 0x168F0, symBinAddr: 0x1000242F8, symSize: 0x28 }
  - { offsetInCU: 0x3A32E, offset: 0xBE3C0, size: 0x8, addend: 0x0, symName: __ZNKSt3__117__compressed_pairIPNS_10unique_ptrIN3tmx5LayerENS_14default_deleteIS3_EEEERNS_9allocatorIS6_EEE5firstB8ue170006Ev, symObjAddr: 0x16918, symBinAddr: 0x100024320, symSize: 0x24 }
  - { offsetInCU: 0x3A354, offset: 0xBE3E6, size: 0x8, addend: 0x0, symName: __ZNSt3__110unique_ptrIN3tmx11ObjectGroupENS_14default_deleteIS2_EEEC1B8ue170006ILb1EvEEPS2_, symObjAddr: 0x16974, symBinAddr: 0x100024344, symSize: 0x34 }
  - { offsetInCU: 0x3A397, offset: 0xBE429, size: 0x8, addend: 0x0, symName: __ZNSt3__110unique_ptrIN3tmx11ObjectGroupENS_14default_deleteIS2_EEEC2B8ue170006ILb1EvEEPS2_, symObjAddr: 0x169A8, symBinAddr: 0x100024378, symSize: 0x44 }
  - { offsetInCU: 0x3A3DA, offset: 0xBE46C, size: 0x8, addend: 0x0, symName: __ZNSt3__117__compressed_pairIPN3tmx11ObjectGroupENS_14default_deleteIS2_EEEC1B8ue170006IRS3_NS_16__value_init_tagEEEOT_OT0_, symObjAddr: 0x169EC, symBinAddr: 0x1000243BC, symSize: 0x3C }
  - { offsetInCU: 0x3A432, offset: 0xBE4C4, size: 0x8, addend: 0x0, symName: __ZNSt3__117__compressed_pairIPN3tmx11ObjectGroupENS_14default_deleteIS2_EEEC2B8ue170006IRS3_NS_16__value_init_tagEEEOT_OT0_, symObjAddr: 0x16A28, symBinAddr: 0x1000243F8, symSize: 0x40 }
  - { offsetInCU: 0x3A48A, offset: 0xBE51C, size: 0x8, addend: 0x0, symName: __ZNSt3__122__compressed_pair_elemIPN3tmx11ObjectGroupELi0ELb0EEC2B8ue170006IRS3_vEEOT_, symObjAddr: 0x16A68, symBinAddr: 0x100024438, symSize: 0x24 }
  - { offsetInCU: 0x3A4CC, offset: 0xBE55E, size: 0x8, addend: 0x0, symName: __ZNSt3__122__compressed_pair_elemINS_14default_deleteIN3tmx11ObjectGroupEEELi1ELb1EEC2B8ue170006ENS_16__value_init_tagE, symObjAddr: 0x16A8C, symBinAddr: 0x10002445C, symSize: 0x14 }
  - { offsetInCU: 0x3A501, offset: 0xBE593, size: 0x8, addend: 0x0, symName: __ZNSt3__110unique_ptrIN3tmx11ObjectGroupENS_14default_deleteIS2_EEED2B8ue170006Ev, symObjAddr: 0x16AA0, symBinAddr: 0x100024470, symSize: 0x30 }
  - { offsetInCU: 0x3A52B, offset: 0xBE5BD, size: 0x8, addend: 0x0, symName: __ZNSt3__110unique_ptrIN3tmx11ObjectGroupENS_14default_deleteIS2_EEE5resetB8ue170006EPS2_, symObjAddr: 0x16AD0, symBinAddr: 0x1000244A0, symSize: 0x78 }
  - { offsetInCU: 0x3A56F, offset: 0xBE601, size: 0x8, addend: 0x0, symName: __ZNSt3__117__compressed_pairIPN3tmx11ObjectGroupENS_14default_deleteIS2_EEE5firstB8ue170006Ev, symObjAddr: 0x16B48, symBinAddr: 0x100024518, symSize: 0x24 }
  - { offsetInCU: 0x3A595, offset: 0xBE627, size: 0x8, addend: 0x0, symName: __ZNSt3__117__compressed_pairIPN3tmx11ObjectGroupENS_14default_deleteIS2_EEE6secondB8ue170006Ev, symObjAddr: 0x16B6C, symBinAddr: 0x10002453C, symSize: 0x24 }
  - { offsetInCU: 0x3A5BB, offset: 0xBE64D, size: 0x8, addend: 0x0, symName: __ZNKSt3__114default_deleteIN3tmx11ObjectGroupEEclB8ue170006EPS2_, symObjAddr: 0x16B90, symBinAddr: 0x100024560, symSize: 0x4C }
  - { offsetInCU: 0x3A5EF, offset: 0xBE681, size: 0x8, addend: 0x0, symName: __ZNSt3__122__compressed_pair_elemIPN3tmx11ObjectGroupELi0ELb0EE5__getB8ue170006Ev, symObjAddr: 0x16BDC, symBinAddr: 0x1000245AC, symSize: 0x14 }
  - { offsetInCU: 0x3A615, offset: 0xBE6A7, size: 0x8, addend: 0x0, symName: __ZNSt3__122__compressed_pair_elemINS_14default_deleteIN3tmx11ObjectGroupEEELi1ELb1EE5__getB8ue170006Ev, symObjAddr: 0x16BF0, symBinAddr: 0x1000245C0, symSize: 0x14 }
  - { offsetInCU: 0x3A63B, offset: 0xBE6CD, size: 0x8, addend: 0x0, symName: __ZNSt3__16vectorINS_10unique_ptrIN3tmx5LayerENS_14default_deleteIS3_EEEENS_9allocatorIS6_EEE22__construct_one_at_endB8ue170006IJNS1_INS2_11ObjectGroupENS4_ISB_EEEEEEEvDpOT_, symObjAddr: 0x16C04, symBinAddr: 0x1000245D4, symSize: 0x90 }
  - { offsetInCU: 0x3A68A, offset: 0xBE71C, size: 0x8, addend: 0x0, symName: __ZNSt3__16vectorINS_10unique_ptrIN3tmx5LayerENS_14default_deleteIS3_EEEENS_9allocatorIS6_EEE24__emplace_back_slow_pathIJNS1_INS2_11ObjectGroupENS4_ISB_EEEEEEEvDpOT_, symObjAddr: 0x16C94, symBinAddr: 0x100024664, symSize: 0xD8 }
  - { offsetInCU: 0x3A6EA, offset: 0xBE77C, size: 0x8, addend: 0x0, symName: __ZNSt3__116allocator_traitsINS_9allocatorINS_10unique_ptrIN3tmx5LayerENS_14default_deleteIS4_EEEEEEE9constructB8ue170006IS7_JNS2_INS3_11ObjectGroupENS5_ISB_EEEEEvEEvRS8_PT_DpOT0_, symObjAddr: 0x16D6C, symBinAddr: 0x10002473C, symSize: 0x34 }
  - { offsetInCU: 0x3A741, offset: 0xBE7D3, size: 0x8, addend: 0x0, symName: __ZNSt3__19allocatorINS_10unique_ptrIN3tmx5LayerENS_14default_deleteIS3_EEEEE9constructB8ue170006IS6_JNS1_INS2_11ObjectGroupENS4_IS9_EEEEEEEvPT_DpOT0_, symObjAddr: 0x16DA0, symBinAddr: 0x100024770, symSize: 0x30 }
  - { offsetInCU: 0x3A797, offset: 0xBE829, size: 0x8, addend: 0x0, symName: __ZNSt3__110unique_ptrIN3tmx5LayerENS_14default_deleteIS2_EEEC1B8ue170006INS1_11ObjectGroupENS3_IS7_EEvvEEONS0_IT_T0_EE, symObjAddr: 0x16DD0, symBinAddr: 0x1000247A0, symSize: 0x34 }
  - { offsetInCU: 0x3A7E3, offset: 0xBE875, size: 0x8, addend: 0x0, symName: __ZNSt3__110unique_ptrIN3tmx5LayerENS_14default_deleteIS2_EEEC2B8ue170006INS1_11ObjectGroupENS3_IS7_EEvvEEONS0_IT_T0_EE, symObjAddr: 0x16E04, symBinAddr: 0x1000247D4, symSize: 0x60 }
  - { offsetInCU: 0x3A82F, offset: 0xBE8C1, size: 0x8, addend: 0x0, symName: __ZNSt3__110unique_ptrIN3tmx11ObjectGroupENS_14default_deleteIS2_EEE7releaseB8ue170006Ev, symObjAddr: 0x16E64, symBinAddr: 0x100024834, symSize: 0x44 }
  - { offsetInCU: 0x3A864, offset: 0xBE8F6, size: 0x8, addend: 0x0, symName: __ZNSt3__110unique_ptrIN3tmx11ObjectGroupENS_14default_deleteIS2_EEE11get_deleterB8ue170006Ev, symObjAddr: 0x16EA8, symBinAddr: 0x100024878, symSize: 0x24 }
  - { offsetInCU: 0x3A894, offset: 0xBE926, size: 0x8, addend: 0x0, symName: __ZNSt3__117__compressed_pairIPN3tmx5LayerENS_14default_deleteIS2_EEEC1B8ue170006IPNS1_11ObjectGroupENS4_IS8_EEEEOT_OT0_, symObjAddr: 0x16ECC, symBinAddr: 0x10002489C, symSize: 0x3C }
  - { offsetInCU: 0x3A8EC, offset: 0xBE97E, size: 0x8, addend: 0x0, symName: __ZNSt3__117__compressed_pairIPN3tmx5LayerENS_14default_deleteIS2_EEEC2B8ue170006IPNS1_11ObjectGroupENS4_IS8_EEEEOT_OT0_, symObjAddr: 0x16F08, symBinAddr: 0x1000248D8, symSize: 0x44 }
  - { offsetInCU: 0x3A944, offset: 0xBE9D6, size: 0x8, addend: 0x0, symName: __ZNSt3__122__compressed_pair_elemIPN3tmx5LayerELi0ELb0EEC2B8ue170006IPNS1_11ObjectGroupEvEEOT_, symObjAddr: 0x16F4C, symBinAddr: 0x10002491C, symSize: 0x24 }
  - { offsetInCU: 0x3A986, offset: 0xBEA18, size: 0x8, addend: 0x0, symName: __ZNSt3__122__compressed_pair_elemINS_14default_deleteIN3tmx5LayerEEELi1ELb1EEC2B8ue170006INS1_INS2_11ObjectGroupEEEvEEOT_, symObjAddr: 0x16F70, symBinAddr: 0x100024940, symSize: 0x38 }
  - { offsetInCU: 0x3A9C8, offset: 0xBEA5A, size: 0x8, addend: 0x0, symName: __ZNSt3__114default_deleteIN3tmx5LayerEEC2B8ue170006INS1_11ObjectGroupEEERKNS0_IT_EEPNS_9enable_ifIXsr14is_convertibleIPS6_PS2_EE5valueEvE4typeE, symObjAddr: 0x16FA8, symBinAddr: 0x100024978, symSize: 0x1C }
  - { offsetInCU: 0x3AA11, offset: 0xBEAA3, size: 0x8, addend: 0x0, symName: __ZNSt3__110unique_ptrIN3tmx10ImageLayerENS_14default_deleteIS2_EEEC1B8ue170006ILb1EvEEPS2_, symObjAddr: 0x16FC4, symBinAddr: 0x100024994, symSize: 0x34 }
  - { offsetInCU: 0x3AA54, offset: 0xBEAE6, size: 0x8, addend: 0x0, symName: __ZNSt3__110unique_ptrIN3tmx10ImageLayerENS_14default_deleteIS2_EEEC2B8ue170006ILb1EvEEPS2_, symObjAddr: 0x16FF8, symBinAddr: 0x1000249C8, symSize: 0x44 }
  - { offsetInCU: 0x3AA97, offset: 0xBEB29, size: 0x8, addend: 0x0, symName: __ZNSt3__117__compressed_pairIPN3tmx10ImageLayerENS_14default_deleteIS2_EEEC1B8ue170006IRS3_NS_16__value_init_tagEEEOT_OT0_, symObjAddr: 0x1703C, symBinAddr: 0x100024A0C, symSize: 0x3C }
  - { offsetInCU: 0x3AAEF, offset: 0xBEB81, size: 0x8, addend: 0x0, symName: __ZNSt3__117__compressed_pairIPN3tmx10ImageLayerENS_14default_deleteIS2_EEEC2B8ue170006IRS3_NS_16__value_init_tagEEEOT_OT0_, symObjAddr: 0x17078, symBinAddr: 0x100024A48, symSize: 0x40 }
  - { offsetInCU: 0x3AB47, offset: 0xBEBD9, size: 0x8, addend: 0x0, symName: __ZNSt3__122__compressed_pair_elemIPN3tmx10ImageLayerELi0ELb0EEC2B8ue170006IRS3_vEEOT_, symObjAddr: 0x170B8, symBinAddr: 0x100024A88, symSize: 0x24 }
  - { offsetInCU: 0x3AB89, offset: 0xBEC1B, size: 0x8, addend: 0x0, symName: __ZNSt3__122__compressed_pair_elemINS_14default_deleteIN3tmx10ImageLayerEEELi1ELb1EEC2B8ue170006ENS_16__value_init_tagE, symObjAddr: 0x170DC, symBinAddr: 0x100024AAC, symSize: 0x14 }
  - { offsetInCU: 0x3ABBE, offset: 0xBEC50, size: 0x8, addend: 0x0, symName: __ZNSt3__110unique_ptrIN3tmx10ImageLayerENS_14default_deleteIS2_EEED2B8ue170006Ev, symObjAddr: 0x170F0, symBinAddr: 0x100024AC0, symSize: 0x30 }
  - { offsetInCU: 0x3ABE8, offset: 0xBEC7A, size: 0x8, addend: 0x0, symName: __ZNSt3__110unique_ptrIN3tmx10ImageLayerENS_14default_deleteIS2_EEE5resetB8ue170006EPS2_, symObjAddr: 0x17120, symBinAddr: 0x100024AF0, symSize: 0x78 }
  - { offsetInCU: 0x3AC2C, offset: 0xBECBE, size: 0x8, addend: 0x0, symName: __ZNSt3__117__compressed_pairIPN3tmx10ImageLayerENS_14default_deleteIS2_EEE5firstB8ue170006Ev, symObjAddr: 0x17198, symBinAddr: 0x100024B68, symSize: 0x24 }
  - { offsetInCU: 0x3AC52, offset: 0xBECE4, size: 0x8, addend: 0x0, symName: __ZNSt3__117__compressed_pairIPN3tmx10ImageLayerENS_14default_deleteIS2_EEE6secondB8ue170006Ev, symObjAddr: 0x171BC, symBinAddr: 0x100024B8C, symSize: 0x24 }
  - { offsetInCU: 0x3AC78, offset: 0xBED0A, size: 0x8, addend: 0x0, symName: __ZNKSt3__114default_deleteIN3tmx10ImageLayerEEclB8ue170006EPS2_, symObjAddr: 0x171E0, symBinAddr: 0x100024BB0, symSize: 0x4C }
  - { offsetInCU: 0x3ACAC, offset: 0xBED3E, size: 0x8, addend: 0x0, symName: __ZNSt3__122__compressed_pair_elemIPN3tmx10ImageLayerELi0ELb0EE5__getB8ue170006Ev, symObjAddr: 0x1722C, symBinAddr: 0x100024BFC, symSize: 0x14 }
  - { offsetInCU: 0x3ACD2, offset: 0xBED64, size: 0x8, addend: 0x0, symName: __ZNSt3__122__compressed_pair_elemINS_14default_deleteIN3tmx10ImageLayerEEELi1ELb1EE5__getB8ue170006Ev, symObjAddr: 0x17240, symBinAddr: 0x100024C10, symSize: 0x14 }
  - { offsetInCU: 0x3ACF8, offset: 0xBED8A, size: 0x8, addend: 0x0, symName: __ZN3tmx10ImageLayerD1Ev, symObjAddr: 0x17254, symBinAddr: 0x100024C24, symSize: 0x2C }
  - { offsetInCU: 0x3AD24, offset: 0xBEDB6, size: 0x8, addend: 0x0, symName: __ZN3tmx10ImageLayerD2Ev, symObjAddr: 0x17280, symBinAddr: 0x100024C50, symSize: 0x44 }
  - { offsetInCU: 0x3AD50, offset: 0xBEDE2, size: 0x8, addend: 0x0, symName: __ZNSt3__16vectorINS_10unique_ptrIN3tmx5LayerENS_14default_deleteIS3_EEEENS_9allocatorIS6_EEE22__construct_one_at_endB8ue170006IJNS1_INS2_10ImageLayerENS4_ISB_EEEEEEEvDpOT_, symObjAddr: 0x172C4, symBinAddr: 0x100024C94, symSize: 0x90 }
  - { offsetInCU: 0x3AD9F, offset: 0xBEE31, size: 0x8, addend: 0x0, symName: __ZNSt3__16vectorINS_10unique_ptrIN3tmx5LayerENS_14default_deleteIS3_EEEENS_9allocatorIS6_EEE24__emplace_back_slow_pathIJNS1_INS2_10ImageLayerENS4_ISB_EEEEEEEvDpOT_, symObjAddr: 0x17354, symBinAddr: 0x100024D24, symSize: 0xD8 }
  - { offsetInCU: 0x3ADFF, offset: 0xBEE91, size: 0x8, addend: 0x0, symName: __ZNSt3__116allocator_traitsINS_9allocatorINS_10unique_ptrIN3tmx5LayerENS_14default_deleteIS4_EEEEEEE9constructB8ue170006IS7_JNS2_INS3_10ImageLayerENS5_ISB_EEEEEvEEvRS8_PT_DpOT0_, symObjAddr: 0x1742C, symBinAddr: 0x100024DFC, symSize: 0x34 }
  - { offsetInCU: 0x3AE56, offset: 0xBEEE8, size: 0x8, addend: 0x0, symName: __ZNSt3__19allocatorINS_10unique_ptrIN3tmx5LayerENS_14default_deleteIS3_EEEEE9constructB8ue170006IS6_JNS1_INS2_10ImageLayerENS4_IS9_EEEEEEEvPT_DpOT0_, symObjAddr: 0x17460, symBinAddr: 0x100024E30, symSize: 0x30 }
  - { offsetInCU: 0x3AEAC, offset: 0xBEF3E, size: 0x8, addend: 0x0, symName: __ZNSt3__110unique_ptrIN3tmx5LayerENS_14default_deleteIS2_EEEC1B8ue170006INS1_10ImageLayerENS3_IS7_EEvvEEONS0_IT_T0_EE, symObjAddr: 0x17490, symBinAddr: 0x100024E60, symSize: 0x34 }
  - { offsetInCU: 0x3AEF8, offset: 0xBEF8A, size: 0x8, addend: 0x0, symName: __ZNSt3__110unique_ptrIN3tmx5LayerENS_14default_deleteIS2_EEEC2B8ue170006INS1_10ImageLayerENS3_IS7_EEvvEEONS0_IT_T0_EE, symObjAddr: 0x174C4, symBinAddr: 0x100024E94, symSize: 0x60 }
  - { offsetInCU: 0x3AF44, offset: 0xBEFD6, size: 0x8, addend: 0x0, symName: __ZNSt3__110unique_ptrIN3tmx10ImageLayerENS_14default_deleteIS2_EEE7releaseB8ue170006Ev, symObjAddr: 0x17524, symBinAddr: 0x100024EF4, symSize: 0x44 }
  - { offsetInCU: 0x3AF79, offset: 0xBF00B, size: 0x8, addend: 0x0, symName: __ZNSt3__110unique_ptrIN3tmx10ImageLayerENS_14default_deleteIS2_EEE11get_deleterB8ue170006Ev, symObjAddr: 0x17568, symBinAddr: 0x100024F38, symSize: 0x24 }
  - { offsetInCU: 0x3AFA9, offset: 0xBF03B, size: 0x8, addend: 0x0, symName: __ZNSt3__117__compressed_pairIPN3tmx5LayerENS_14default_deleteIS2_EEEC1B8ue170006IPNS1_10ImageLayerENS4_IS8_EEEEOT_OT0_, symObjAddr: 0x1758C, symBinAddr: 0x100024F5C, symSize: 0x3C }
  - { offsetInCU: 0x3B001, offset: 0xBF093, size: 0x8, addend: 0x0, symName: __ZNSt3__117__compressed_pairIPN3tmx5LayerENS_14default_deleteIS2_EEEC2B8ue170006IPNS1_10ImageLayerENS4_IS8_EEEEOT_OT0_, symObjAddr: 0x175C8, symBinAddr: 0x100024F98, symSize: 0x44 }
  - { offsetInCU: 0x3B059, offset: 0xBF0EB, size: 0x8, addend: 0x0, symName: __ZNSt3__122__compressed_pair_elemIPN3tmx5LayerELi0ELb0EEC2B8ue170006IPNS1_10ImageLayerEvEEOT_, symObjAddr: 0x1760C, symBinAddr: 0x100024FDC, symSize: 0x24 }
  - { offsetInCU: 0x3B09B, offset: 0xBF12D, size: 0x8, addend: 0x0, symName: __ZNSt3__122__compressed_pair_elemINS_14default_deleteIN3tmx5LayerEEELi1ELb1EEC2B8ue170006INS1_INS2_10ImageLayerEEEvEEOT_, symObjAddr: 0x17630, symBinAddr: 0x100025000, symSize: 0x38 }
  - { offsetInCU: 0x3B0DD, offset: 0xBF16F, size: 0x8, addend: 0x0, symName: __ZNSt3__114default_deleteIN3tmx5LayerEEC2B8ue170006INS1_10ImageLayerEEERKNS0_IT_EEPNS_9enable_ifIXsr14is_convertibleIPS6_PS2_EE5valueEvE4typeE, symObjAddr: 0x17668, symBinAddr: 0x100025038, symSize: 0x1C }
  - { offsetInCU: 0x3B126, offset: 0xBF1B8, size: 0x8, addend: 0x0, symName: __ZNSt3__110unique_ptrIN3tmx10LayerGroupENS_14default_deleteIS2_EEEC1B8ue170006ILb1EvEEPS2_, symObjAddr: 0x17684, symBinAddr: 0x100025054, symSize: 0x34 }
  - { offsetInCU: 0x3B169, offset: 0xBF1FB, size: 0x8, addend: 0x0, symName: __ZNSt3__110unique_ptrIN3tmx10LayerGroupENS_14default_deleteIS2_EEEC2B8ue170006ILb1EvEEPS2_, symObjAddr: 0x176B8, symBinAddr: 0x100025088, symSize: 0x44 }
  - { offsetInCU: 0x3B1AC, offset: 0xBF23E, size: 0x8, addend: 0x0, symName: __ZNSt3__117__compressed_pairIPN3tmx10LayerGroupENS_14default_deleteIS2_EEEC1B8ue170006IRS3_NS_16__value_init_tagEEEOT_OT0_, symObjAddr: 0x176FC, symBinAddr: 0x1000250CC, symSize: 0x3C }
  - { offsetInCU: 0x3B204, offset: 0xBF296, size: 0x8, addend: 0x0, symName: __ZNSt3__117__compressed_pairIPN3tmx10LayerGroupENS_14default_deleteIS2_EEEC2B8ue170006IRS3_NS_16__value_init_tagEEEOT_OT0_, symObjAddr: 0x17738, symBinAddr: 0x100025108, symSize: 0x40 }
  - { offsetInCU: 0x3B25C, offset: 0xBF2EE, size: 0x8, addend: 0x0, symName: __ZNSt3__122__compressed_pair_elemIPN3tmx10LayerGroupELi0ELb0EEC2B8ue170006IRS3_vEEOT_, symObjAddr: 0x17778, symBinAddr: 0x100025148, symSize: 0x24 }
  - { offsetInCU: 0x3B29E, offset: 0xBF330, size: 0x8, addend: 0x0, symName: __ZNSt3__122__compressed_pair_elemINS_14default_deleteIN3tmx10LayerGroupEEELi1ELb1EEC2B8ue170006ENS_16__value_init_tagE, symObjAddr: 0x1779C, symBinAddr: 0x10002516C, symSize: 0x14 }
  - { offsetInCU: 0x3B2D3, offset: 0xBF365, size: 0x8, addend: 0x0, symName: __ZNSt3__110unique_ptrIN3tmx10LayerGroupENS_14default_deleteIS2_EEED2B8ue170006Ev, symObjAddr: 0x177B0, symBinAddr: 0x100025180, symSize: 0x30 }
  - { offsetInCU: 0x3B2FD, offset: 0xBF38F, size: 0x8, addend: 0x0, symName: __ZNSt3__110unique_ptrIN3tmx10LayerGroupENS_14default_deleteIS2_EEE5resetB8ue170006EPS2_, symObjAddr: 0x177E0, symBinAddr: 0x1000251B0, symSize: 0x78 }
  - { offsetInCU: 0x3B341, offset: 0xBF3D3, size: 0x8, addend: 0x0, symName: __ZNSt3__117__compressed_pairIPN3tmx10LayerGroupENS_14default_deleteIS2_EEE5firstB8ue170006Ev, symObjAddr: 0x17858, symBinAddr: 0x100025228, symSize: 0x24 }
  - { offsetInCU: 0x3B367, offset: 0xBF3F9, size: 0x8, addend: 0x0, symName: __ZNSt3__117__compressed_pairIPN3tmx10LayerGroupENS_14default_deleteIS2_EEE6secondB8ue170006Ev, symObjAddr: 0x1787C, symBinAddr: 0x10002524C, symSize: 0x24 }
  - { offsetInCU: 0x3B38D, offset: 0xBF41F, size: 0x8, addend: 0x0, symName: __ZNKSt3__114default_deleteIN3tmx10LayerGroupEEclB8ue170006EPS2_, symObjAddr: 0x178A0, symBinAddr: 0x100025270, symSize: 0x4C }
  - { offsetInCU: 0x3B3C1, offset: 0xBF453, size: 0x8, addend: 0x0, symName: __ZNSt3__122__compressed_pair_elemIPN3tmx10LayerGroupELi0ELb0EE5__getB8ue170006Ev, symObjAddr: 0x178EC, symBinAddr: 0x1000252BC, symSize: 0x14 }
  - { offsetInCU: 0x3B3E7, offset: 0xBF479, size: 0x8, addend: 0x0, symName: __ZNSt3__122__compressed_pair_elemINS_14default_deleteIN3tmx10LayerGroupEEELi1ELb1EE5__getB8ue170006Ev, symObjAddr: 0x17900, symBinAddr: 0x1000252D0, symSize: 0x14 }
  - { offsetInCU: 0x3B40D, offset: 0xBF49F, size: 0x8, addend: 0x0, symName: __ZN3tmx10LayerGroupD1Ev, symObjAddr: 0x17914, symBinAddr: 0x1000252E4, symSize: 0x2C }
  - { offsetInCU: 0x3B437, offset: 0xBF4C9, size: 0x8, addend: 0x0, symName: __ZN3tmx10LayerGroupD2Ev, symObjAddr: 0x17940, symBinAddr: 0x100025310, symSize: 0x44 }
  - { offsetInCU: 0x3B461, offset: 0xBF4F3, size: 0x8, addend: 0x0, symName: __ZNSt3__16vectorINS_10unique_ptrIN3tmx5LayerENS_14default_deleteIS3_EEEENS_9allocatorIS6_EEE22__construct_one_at_endB8ue170006IJNS1_INS2_10LayerGroupENS4_ISB_EEEEEEEvDpOT_, symObjAddr: 0x17B8C, symBinAddr: 0x100025354, symSize: 0x90 }
  - { offsetInCU: 0x3B4B0, offset: 0xBF542, size: 0x8, addend: 0x0, symName: __ZNSt3__16vectorINS_10unique_ptrIN3tmx5LayerENS_14default_deleteIS3_EEEENS_9allocatorIS6_EEE24__emplace_back_slow_pathIJNS1_INS2_10LayerGroupENS4_ISB_EEEEEEEvDpOT_, symObjAddr: 0x17C1C, symBinAddr: 0x1000253E4, symSize: 0xD8 }
  - { offsetInCU: 0x3B510, offset: 0xBF5A2, size: 0x8, addend: 0x0, symName: __ZNSt3__116allocator_traitsINS_9allocatorINS_10unique_ptrIN3tmx5LayerENS_14default_deleteIS4_EEEEEEE9constructB8ue170006IS7_JNS2_INS3_10LayerGroupENS5_ISB_EEEEEvEEvRS8_PT_DpOT0_, symObjAddr: 0x17CF4, symBinAddr: 0x1000254BC, symSize: 0x34 }
  - { offsetInCU: 0x3B567, offset: 0xBF5F9, size: 0x8, addend: 0x0, symName: __ZNSt3__19allocatorINS_10unique_ptrIN3tmx5LayerENS_14default_deleteIS3_EEEEE9constructB8ue170006IS6_JNS1_INS2_10LayerGroupENS4_IS9_EEEEEEEvPT_DpOT0_, symObjAddr: 0x17D28, symBinAddr: 0x1000254F0, symSize: 0x30 }
  - { offsetInCU: 0x3B5BD, offset: 0xBF64F, size: 0x8, addend: 0x0, symName: __ZNSt3__110unique_ptrIN3tmx5LayerENS_14default_deleteIS2_EEEC1B8ue170006INS1_10LayerGroupENS3_IS7_EEvvEEONS0_IT_T0_EE, symObjAddr: 0x17D58, symBinAddr: 0x100025520, symSize: 0x34 }
  - { offsetInCU: 0x3B609, offset: 0xBF69B, size: 0x8, addend: 0x0, symName: __ZNSt3__110unique_ptrIN3tmx5LayerENS_14default_deleteIS2_EEEC2B8ue170006INS1_10LayerGroupENS3_IS7_EEvvEEONS0_IT_T0_EE, symObjAddr: 0x17D8C, symBinAddr: 0x100025554, symSize: 0x60 }
  - { offsetInCU: 0x3B655, offset: 0xBF6E7, size: 0x8, addend: 0x0, symName: __ZNSt3__110unique_ptrIN3tmx10LayerGroupENS_14default_deleteIS2_EEE7releaseB8ue170006Ev, symObjAddr: 0x17DEC, symBinAddr: 0x1000255B4, symSize: 0x44 }
  - { offsetInCU: 0x3B68A, offset: 0xBF71C, size: 0x8, addend: 0x0, symName: __ZNSt3__110unique_ptrIN3tmx10LayerGroupENS_14default_deleteIS2_EEE11get_deleterB8ue170006Ev, symObjAddr: 0x17E30, symBinAddr: 0x1000255F8, symSize: 0x24 }
  - { offsetInCU: 0x3B6BA, offset: 0xBF74C, size: 0x8, addend: 0x0, symName: __ZNSt3__117__compressed_pairIPN3tmx5LayerENS_14default_deleteIS2_EEEC1B8ue170006IPNS1_10LayerGroupENS4_IS8_EEEEOT_OT0_, symObjAddr: 0x17E54, symBinAddr: 0x10002561C, symSize: 0x3C }
  - { offsetInCU: 0x3B712, offset: 0xBF7A4, size: 0x8, addend: 0x0, symName: __ZNSt3__117__compressed_pairIPN3tmx5LayerENS_14default_deleteIS2_EEEC2B8ue170006IPNS1_10LayerGroupENS4_IS8_EEEEOT_OT0_, symObjAddr: 0x17E90, symBinAddr: 0x100025658, symSize: 0x44 }
  - { offsetInCU: 0x3B76A, offset: 0xBF7FC, size: 0x8, addend: 0x0, symName: __ZNSt3__122__compressed_pair_elemIPN3tmx5LayerELi0ELb0EEC2B8ue170006IPNS1_10LayerGroupEvEEOT_, symObjAddr: 0x17ED4, symBinAddr: 0x10002569C, symSize: 0x24 }
  - { offsetInCU: 0x3B7AC, offset: 0xBF83E, size: 0x8, addend: 0x0, symName: __ZNSt3__122__compressed_pair_elemINS_14default_deleteIN3tmx5LayerEEELi1ELb1EEC2B8ue170006INS1_INS2_10LayerGroupEEEvEEOT_, symObjAddr: 0x17EF8, symBinAddr: 0x1000256C0, symSize: 0x38 }
  - { offsetInCU: 0x3B7EE, offset: 0xBF880, size: 0x8, addend: 0x0, symName: __ZNSt3__114default_deleteIN3tmx5LayerEEC2B8ue170006INS1_10LayerGroupEEERKNS0_IT_EEPNS_9enable_ifIXsr14is_convertibleIPS6_PS2_EE5valueEvE4typeE, symObjAddr: 0x17F30, symBinAddr: 0x1000256F8, symSize: 0x1C }
  - { offsetInCU: 0x3B837, offset: 0xBF8C9, size: 0x8, addend: 0x0, symName: __ZNSt3__16vectorIN3tmx7TilesetENS_9allocatorIS2_EEE11__make_iterB8ue170006EPS2_, symObjAddr: 0x17F4C, symBinAddr: 0x100025714, symSize: 0x30 }
  - { offsetInCU: 0x3B86C, offset: 0xBF8FE, size: 0x8, addend: 0x0, symName: __ZNSt3__111__wrap_iterIPN3tmx7TilesetEEC1B8ue170006ES3_, symObjAddr: 0x17F7C, symBinAddr: 0x100025744, symSize: 0x34 }
  - { offsetInCU: 0x3B8A4, offset: 0xBF936, size: 0x8, addend: 0x0, symName: __ZNSt3__111__wrap_iterIPN3tmx7TilesetEEC2B8ue170006ES3_, symObjAddr: 0x17FB0, symBinAddr: 0x100025778, symSize: 0x20 }
  - { offsetInCU: 0x3B8DC, offset: 0xBF96E, size: 0x8, addend: 0x0, symName: __ZNKSt3__16vectorIN3tmx7Tileset4TileENS_9allocatorIS3_EEE11__make_iterB8ue170006EPKS3_, symObjAddr: 0x17FD0, symBinAddr: 0x100025798, symSize: 0x30 }
  - { offsetInCU: 0x3B911, offset: 0xBF9A3, size: 0x8, addend: 0x0, symName: __ZNSt3__111__wrap_iterIPKN3tmx7Tileset4TileEEC1B8ue170006ES5_, symObjAddr: 0x18000, symBinAddr: 0x1000257C8, symSize: 0x34 }
  - { offsetInCU: 0x3B949, offset: 0xBF9DB, size: 0x8, addend: 0x0, symName: __ZNSt3__111__wrap_iterIPKN3tmx7Tileset4TileEEC2B8ue170006ES5_, symObjAddr: 0x18034, symBinAddr: 0x1000257FC, symSize: 0x20 }
  - { offsetInCU: 0x3B995, offset: 0xBFA27, size: 0x8, addend: 0x0, symName: __ZNSt3__16__treeINS_12__value_typeIjN3tmx7Tileset4TileEEENS_19__map_value_compareIjS5_NS_4lessIjEELb1EEENS_9allocatorIS5_EEE25__emplace_unique_key_argsIjJRKNS_21piecewise_construct_tENS_5tupleIJOjEEENSH_IJEEEEEENS_4pairINS_15__tree_iteratorIS5_PNS_11__tree_nodeIS5_PvEElEEbEERKT_DpOT0_, symObjAddr: 0x18054, symBinAddr: 0x10002581C, symSize: 0x100 }
  - { offsetInCU: 0x3BA6C, offset: 0xBFAFE, size: 0x8, addend: 0x0, symName: __ZNKSt3__115__tree_iteratorINS_12__value_typeIjN3tmx7Tileset4TileEEEPNS_11__tree_nodeIS5_PvEElEptB8ue170006Ev, symObjAddr: 0x18184, symBinAddr: 0x10002594C, symSize: 0x2C }
